ARM GAS  /tmp/cccp5Acz.s 			page 1


   1              		.syntax unified
   2              		.cpu cortex-m4
   3              		.fpu softvfp
   4              		.eabi_attribute 20, 1
   5              		.eabi_attribute 21, 1
   6              		.eabi_attribute 23, 3
   7              		.eabi_attribute 24, 1
   8              		.eabi_attribute 25, 1
   9              		.eabi_attribute 26, 1
  10              		.eabi_attribute 30, 2
  11              		.eabi_attribute 34, 1
  12              		.eabi_attribute 18, 4
  13              		.thumb
  14              		.file	"chcond.c"
  15              		.text
  16              	.Ltext0:
  17              		.cfi_sections	.debug_frame
  18              		.section	.text.chCondInit,"ax",%progbits
  19              		.align	2
  20              		.p2align 4,,15
  21              		.global	chCondInit
  22              		.thumb
  23              		.thumb_func
  24              		.type	chCondInit, %function
  25              	chCondInit:
  26              	.LFB7:
  27              		.file 1 "../../os/kernel/src/chcond.c"
  28              		.loc 1 59 0
  29              		.cfi_startproc
  30              		@ args = 0, pretend = 0, frame = 0
  31              		@ frame_needed = 0, uses_anonymous_args = 0
  32              		@ link register save eliminated.
  33              	.LVL0:
  34              		.loc 1 63 0
  35 0000 4060     		str	r0, [r0, #4]
  36 0002 0060     		str	r0, [r0, #0]
  37              		.loc 1 64 0
  38 0004 7047     		bx	lr
  39              		.cfi_endproc
  40              	.LFE7:
  41              		.size	chCondInit, .-chCondInit
  42 0006 00BFAFF3 		.section	.text.chCondSignal,"ax",%progbits
  42      0080AFF3 
  42      0080
  43              		.align	2
  44              		.p2align 4,,15
  45              		.global	chCondSignal
  46              		.thumb
  47              		.thumb_func
  48              		.type	chCondSignal, %function
  49              	chCondSignal:
  50              	.LFB8:
  51              		.loc 1 73 0
  52              		.cfi_startproc
  53              		@ args = 0, pretend = 0, frame = 0
  54              		@ frame_needed = 0, uses_anonymous_args = 0
  55              	.LVL1:
ARM GAS  /tmp/cccp5Acz.s 			page 2


  56 0000 08B5     		push	{r3, lr}
  57              	.LCFI0:
  58              		.cfi_def_cfa_offset 8
  59              		.cfi_offset 14, -4
  60              		.cfi_offset 3, -8
  61              		.loc 1 73 0
  62 0002 0246     		mov	r2, r0
  63              	.LBB14:
  64              		.loc 1 77 0
  65 0004 2023     		movs	r3, #32
  66              	.LVL2:
  67              	@ 77 "../../os/kernel/src/chcond.c" 1
  68 0006 83F31188 		msr     BASEPRI, r3
  69              	@ 0 "" 2
  70              	.LVL3:
  71              		.thumb
  72              	.LBE14:
  73              		.loc 1 78 0
  74 000a 0068     		ldr	r0, [r0, #0]
  75              	.LVL4:
  76 000c 9042     		cmp	r0, r2
  77 000e 05D0     		beq	.L3
  78              	.LVL5:
  79              	.LBB15:
  80              	.LBB16:
  81              		.file 2 "../../os/kernel/include/chinline.h"
  82              		.loc 2 62 0
  83 0010 0368     		ldr	r3, [r0, #0]
  84              	.LVL6:
  85              	.LBE16:
  86              	.LBE15:
  87              		.loc 1 79 0
  88 0012 0021     		movs	r1, #0
  89              	.LBB18:
  90              	.LBB17:
  91              		.loc 2 62 0
  92 0014 1360     		str	r3, [r2, #0]
  93 0016 5A60     		str	r2, [r3, #4]
  94              	.LBE17:
  95              	.LBE18:
  96              		.loc 1 79 0
  97 0018 FFF7FEFF 		bl	chSchWakeupS
  98              	.LVL7:
  99              	.L3:
 100              	.LBB19:
 101              		.loc 1 80 0
 102 001c 0023     		movs	r3, #0
 103              	.LVL8:
 104              	@ 80 "../../os/kernel/src/chcond.c" 1
 105 001e 83F31188 		msr     BASEPRI, r3
 106              	@ 0 "" 2
 107              	.LVL9:
 108              		.thumb
 109              	.LBE19:
 110              		.loc 1 81 0
 111 0022 08BD     		pop	{r3, pc}
 112              		.cfi_endproc
ARM GAS  /tmp/cccp5Acz.s 			page 3


 113              	.LFE8:
 114              		.size	chCondSignal, .-chCondSignal
 115 0024 AFF30080 		.section	.text.chCondSignalI,"ax",%progbits
 115      AFF30080 
 115      AFF30080 
 116              		.align	2
 117              		.p2align 4,,15
 118              		.global	chCondSignalI
 119              		.thumb
 120              		.thumb_func
 121              		.type	chCondSignalI, %function
 122              	chCondSignalI:
 123              	.LFB9:
 124              		.loc 1 94 0
 125              		.cfi_startproc
 126              		@ args = 0, pretend = 0, frame = 0
 127              		@ frame_needed = 0, uses_anonymous_args = 0
 128              	.LVL10:
 129 0000 08B5     		push	{r3, lr}
 130              	.LCFI1:
 131              		.cfi_def_cfa_offset 8
 132              		.cfi_offset 14, -4
 133              		.cfi_offset 3, -8
 134              		.loc 1 94 0
 135 0002 0346     		mov	r3, r0
 136              		.loc 1 99 0
 137 0004 0068     		ldr	r0, [r0, #0]
 138              	.LVL11:
 139 0006 9842     		cmp	r0, r3
 140 0008 06D0     		beq	.L5
 141              	.LVL12:
 142              	.LBB20:
 143              	.LBB21:
 144              		.loc 2 62 0
 145 000a 0268     		ldr	r2, [r0, #0]
 146 000c 1A60     		str	r2, [r3, #0]
 147 000e 5360     		str	r3, [r2, #4]
 148              	.LBE21:
 149              	.LBE20:
 150              		.loc 1 100 0
 151 0010 FFF7FEFF 		bl	chSchReadyI
 152              	.LVL13:
 153 0014 0023     		movs	r3, #0
 154 0016 4362     		str	r3, [r0, #36]
 155              	.L5:
 156 0018 08BD     		pop	{r3, pc}
 157              		.cfi_endproc
 158              	.LFE9:
 159              		.size	chCondSignalI, .-chCondSignalI
 160 001a 00BFAFF3 		.section	.text.chCondBroadcastI,"ax",%progbits
 160      0080
 161              		.align	2
 162              		.p2align 4,,15
 163              		.global	chCondBroadcastI
 164              		.thumb
 165              		.thumb_func
 166              		.type	chCondBroadcastI, %function
ARM GAS  /tmp/cccp5Acz.s 			page 4


 167              	chCondBroadcastI:
 168              	.LFB11:
 169              		.loc 1 129 0
 170              		.cfi_startproc
 171              		@ args = 0, pretend = 0, frame = 0
 172              		@ frame_needed = 0, uses_anonymous_args = 0
 173              	.LVL14:
 174 0000 38B5     		push	{r3, r4, r5, lr}
 175              	.LCFI2:
 176              		.cfi_def_cfa_offset 16
 177              		.cfi_offset 14, -4
 178              		.cfi_offset 5, -8
 179              		.cfi_offset 4, -12
 180              		.cfi_offset 3, -16
 181              		.loc 1 129 0
 182 0002 0446     		mov	r4, r0
 183              		.loc 1 137 0
 184 0004 0068     		ldr	r0, [r0, #0]
 185              	.LVL15:
 186 0006 A042     		cmp	r0, r4
 187 0008 0AD0     		beq	.L7
 188              		.loc 1 138 0
 189 000a 6FF00105 		mvn	r5, #1
 190              	.L10:
 191              	.LVL16:
 192              	.LBB22:
 193              	.LBB23:
 194              		.loc 2 62 0
 195 000e 0368     		ldr	r3, [r0, #0]
 196 0010 2360     		str	r3, [r4, #0]
 197 0012 5C60     		str	r4, [r3, #4]
 198              	.LBE23:
 199              	.LBE22:
 200              		.loc 1 138 0
 201 0014 FFF7FEFF 		bl	chSchReadyI
 202              	.LVL17:
 203 0018 4562     		str	r5, [r0, #36]
 204              		.loc 1 137 0
 205 001a 2068     		ldr	r0, [r4, #0]
 206 001c A042     		cmp	r0, r4
 207 001e F6D1     		bne	.L10
 208              	.LVL18:
 209              	.L7:
 210 0020 38BD     		pop	{r3, r4, r5, pc}
 211              		.cfi_endproc
 212              	.LFE11:
 213              		.size	chCondBroadcastI, .-chCondBroadcastI
 214 0022 00BFAFF3 		.section	.text.chCondBroadcast,"ax",%progbits
 214      0080AFF3 
 214      0080AFF3 
 214      0080
 215              		.align	2
 216              		.p2align 4,,15
 217              		.global	chCondBroadcast
 218              		.thumb
 219              		.thumb_func
 220              		.type	chCondBroadcast, %function
ARM GAS  /tmp/cccp5Acz.s 			page 5


 221              	chCondBroadcast:
 222              	.LFB10:
 223              		.loc 1 110 0
 224              		.cfi_startproc
 225              		@ args = 0, pretend = 0, frame = 0
 226              		@ frame_needed = 0, uses_anonymous_args = 0
 227              	.LVL19:
 228 0000 08B5     		push	{r3, lr}
 229              	.LCFI3:
 230              		.cfi_def_cfa_offset 8
 231              		.cfi_offset 14, -4
 232              		.cfi_offset 3, -8
 233              	.LBB24:
 234              		.loc 1 112 0
 235 0002 2023     		movs	r3, #32
 236              	.LVL20:
 237              	@ 112 "../../os/kernel/src/chcond.c" 1
 238 0004 83F31188 		msr     BASEPRI, r3
 239              	@ 0 "" 2
 240              	.LVL21:
 241              		.thumb
 242              	.LBE24:
 243              		.loc 1 113 0
 244 0008 FFF7FEFF 		bl	chCondBroadcastI
 245              	.LVL22:
 246              		.loc 1 114 0
 247 000c FFF7FEFF 		bl	chSchRescheduleS
 248              	.LBB25:
 249              		.loc 1 115 0
 250 0010 0023     		movs	r3, #0
 251              	.LVL23:
 252              	@ 115 "../../os/kernel/src/chcond.c" 1
 253 0012 83F31188 		msr     BASEPRI, r3
 254              	@ 0 "" 2
 255              	.LVL24:
 256              		.thumb
 257              	.LBE25:
 258              		.loc 1 116 0
 259 0016 08BD     		pop	{r3, pc}
 260              		.cfi_endproc
 261              	.LFE10:
 262              		.size	chCondBroadcast, .-chCondBroadcast
 263 0018 AFF30080 		.section	.text.chCondWaitS,"ax",%progbits
 263      AFF30080 
 264              		.align	2
 265              		.p2align 4,,15
 266              		.global	chCondWaitS
 267              		.thumb
 268              		.thumb_func
 269              		.type	chCondWaitS, %function
 270              	chCondWaitS:
 271              	.LFB13:
 272              		.loc 1 184 0
 273              		.cfi_startproc
 274              		@ args = 0, pretend = 0, frame = 0
 275              		@ frame_needed = 0, uses_anonymous_args = 0
 276              	.LVL25:
ARM GAS  /tmp/cccp5Acz.s 			page 6


 277              		.loc 1 185 0
 278 0000 40F20003 		movw	r3, #:lower16:rlist
 279 0004 C0F20003 		movt	r3, #:upper16:rlist
 280              		.loc 1 184 0
 281 0008 70B5     		push	{r4, r5, r6, lr}
 282              	.LCFI4:
 283              		.cfi_def_cfa_offset 16
 284              		.cfi_offset 14, -4
 285              		.cfi_offset 6, -8
 286              		.cfi_offset 5, -12
 287              		.cfi_offset 4, -16
 288              		.loc 1 184 0
 289 000a 0546     		mov	r5, r0
 290              		.loc 1 185 0
 291 000c 9C69     		ldr	r4, [r3, #24]
 292              	.LVL26:
 293              		.loc 1 195 0
 294 000e FFF7FEFF 		bl	chMtxUnlockS
 295              	.LVL27:
 296              		.loc 1 196 0
 297 0012 6562     		str	r5, [r4, #36]
 298              		.loc 1 195 0
 299 0014 0646     		mov	r6, r0
 300              	.LVL28:
 301              		.loc 1 197 0
 302 0016 2B46     		mov	r3, r5
 303              	.LVL29:
 304              		.loc 2 43 0
 305 0018 2A46     		mov	r2, r5
 306 001a 03E0     		b	.L15
 307              	.LVL30:
 308              	.L18:
 309              	.LBB26:
 310              	.LBB27:
 311              		.loc 2 46 0
 312 001c 9068     		ldr	r0, [r2, #8]
 313 001e A168     		ldr	r1, [r4, #8]
 314 0020 8842     		cmp	r0, r1
 315 0022 10D3     		bcc	.L17
 316              	.L15:
 317              		.loc 2 45 0
 318 0024 1268     		ldr	r2, [r2, #0]
 319              	.LVL31:
 320              		.loc 2 46 0
 321 0026 9542     		cmp	r5, r2
 322 0028 F8D1     		bne	.L18
 323              	.L14:
 324              		.loc 2 48 0
 325 002a 5A68     		ldr	r2, [r3, #4]
 326              	.LVL32:
 327              		.loc 2 47 0
 328 002c 2360     		str	r3, [r4, #0]
 329              		.loc 2 48 0
 330 002e 6260     		str	r2, [r4, #4]
 331              		.loc 2 49 0
 332 0030 1460     		str	r4, [r2, #0]
 333 0032 5C60     		str	r4, [r3, #4]
ARM GAS  /tmp/cccp5Acz.s 			page 7


 334              	.LBE27:
 335              	.LBE26:
 336              		.loc 1 198 0
 337 0034 0520     		movs	r0, #5
 338 0036 FFF7FEFF 		bl	chSchGoSleepS
 339              		.loc 1 199 0
 340 003a 646A     		ldr	r4, [r4, #36]
 341              	.LVL33:
 342              		.loc 1 200 0
 343 003c 3046     		mov	r0, r6
 344 003e FFF7FEFF 		bl	chMtxLockS
 345              		.loc 1 202 0
 346 0042 2046     		mov	r0, r4
 347 0044 70BD     		pop	{r4, r5, r6, pc}
 348              	.LVL34:
 349              	.L17:
 350              	.LBB29:
 351              	.LBB28:
 352              		.loc 2 45 0
 353 0046 1346     		mov	r3, r2
 354 0048 EFE7     		b	.L14
 355              	.LBE28:
 356              	.LBE29:
 357              		.cfi_endproc
 358              	.LFE13:
 359              		.size	chCondWaitS, .-chCondWaitS
 360 004a 00BFAFF3 		.section	.text.chCondWait,"ax",%progbits
 360      0080
 361              		.align	2
 362              		.p2align 4,,15
 363              		.global	chCondWait
 364              		.thumb
 365              		.thumb_func
 366              		.type	chCondWait, %function
 367              	chCondWait:
 368              	.LFB12:
 369              		.loc 1 158 0
 370              		.cfi_startproc
 371              		@ args = 0, pretend = 0, frame = 0
 372              		@ frame_needed = 0, uses_anonymous_args = 0
 373              	.LVL35:
 374 0000 08B5     		push	{r3, lr}
 375              	.LCFI5:
 376              		.cfi_def_cfa_offset 8
 377              		.cfi_offset 14, -4
 378              		.cfi_offset 3, -8
 379              	.LBB30:
 380              		.loc 1 161 0
 381 0002 2023     		movs	r3, #32
 382              	.LVL36:
 383              	@ 161 "../../os/kernel/src/chcond.c" 1
 384 0004 83F31188 		msr     BASEPRI, r3
 385              	@ 0 "" 2
 386              	.LVL37:
 387              		.thumb
 388              	.LBE30:
 389              		.loc 1 162 0
ARM GAS  /tmp/cccp5Acz.s 			page 8


 390 0008 FFF7FEFF 		bl	chCondWaitS
 391              	.LVL38:
 392              	.LBB31:
 393              		.loc 1 163 0
 394 000c 0023     		movs	r3, #0
 395              	.LVL39:
 396              	@ 163 "../../os/kernel/src/chcond.c" 1
 397 000e 83F31188 		msr     BASEPRI, r3
 398              	@ 0 "" 2
 399              	.LVL40:
 400              		.thumb
 401              	.LBE31:
 402              		.loc 1 165 0
 403 0012 08BD     		pop	{r3, pc}
 404              		.cfi_endproc
 405              	.LFE12:
 406              		.size	chCondWait, .-chCondWait
 407 0014 AFF30080 		.section	.text.chCondWaitTimeoutS,"ax",%progbits
 407      AFF30080 
 407      AFF30080 
 408              		.align	2
 409              		.p2align 4,,15
 410              		.global	chCondWaitTimeoutS
 411              		.thumb
 412              		.thumb_func
 413              		.type	chCondWaitTimeoutS, %function
 414              	chCondWaitTimeoutS:
 415              	.LFB15:
 416              		.loc 1 270 0
 417              		.cfi_startproc
 418              		@ args = 0, pretend = 0, frame = 0
 419              		@ frame_needed = 0, uses_anonymous_args = 0
 420              	.LVL41:
 421 0000 F8B5     		push	{r3, r4, r5, r6, r7, lr}
 422              	.LCFI6:
 423              		.cfi_def_cfa_offset 24
 424              		.cfi_offset 14, -4
 425              		.cfi_offset 7, -8
 426              		.cfi_offset 6, -12
 427              		.cfi_offset 5, -16
 428              		.cfi_offset 4, -20
 429              		.cfi_offset 3, -24
 430              		.loc 1 270 0
 431 0002 0446     		mov	r4, r0
 432 0004 0E46     		mov	r6, r1
 433              		.loc 1 280 0
 434 0006 FFF7FEFF 		bl	chMtxUnlockS
 435              	.LVL42:
 436              		.loc 1 281 0
 437 000a 40F20003 		movw	r3, #:lower16:rlist
 438 000e C0F20003 		movt	r3, #:upper16:rlist
 439              		.loc 1 280 0
 440 0012 0546     		mov	r5, r0
 441              	.LVL43:
 442              		.loc 1 281 0
 443 0014 9869     		ldr	r0, [r3, #24]
 444              	.LVL44:
ARM GAS  /tmp/cccp5Acz.s 			page 9


 445              		.loc 1 282 0
 446 0016 2746     		mov	r7, r4
 447              		.loc 2 43 0
 448 0018 2346     		mov	r3, r4
 449              	.LVL45:
 450              		.loc 1 281 0
 451 001a 4462     		str	r4, [r0, #36]
 452 001c 03E0     		b	.L22
 453              	.LVL46:
 454              	.L26:
 455              	.LBB32:
 456              	.LBB33:
 457              		.loc 2 46 0
 458 001e 9968     		ldr	r1, [r3, #8]
 459 0020 8268     		ldr	r2, [r0, #8]
 460 0022 9142     		cmp	r1, r2
 461 0024 13D3     		bcc	.L25
 462              	.L22:
 463              		.loc 2 45 0
 464 0026 1B68     		ldr	r3, [r3, #0]
 465              	.LVL47:
 466              		.loc 2 46 0
 467 0028 9C42     		cmp	r4, r3
 468 002a F8D1     		bne	.L26
 469              	.L21:
 470              		.loc 2 48 0
 471 002c 7C68     		ldr	r4, [r7, #4]
 472              	.LVL48:
 473              		.loc 2 47 0
 474 002e 0760     		str	r7, [r0, #0]
 475              		.loc 2 48 0
 476 0030 4460     		str	r4, [r0, #4]
 477              		.loc 2 49 0
 478 0032 2060     		str	r0, [r4, #0]
 479 0034 7860     		str	r0, [r7, #4]
 480              	.LBE33:
 481              	.LBE32:
 482              		.loc 1 283 0
 483 0036 3146     		mov	r1, r6
 484 0038 0520     		movs	r0, #5
 485 003a FFF7FEFF 		bl	chSchGoSleepTimeoutS
 486              	.LVL49:
 487 003e 0446     		mov	r4, r0
 488              	.LVL50:
 489              		.loc 1 284 0
 490 0040 0130     		adds	r0, r0, #1
 491              	.LVL51:
 492 0042 02D0     		beq	.L23
 493              		.loc 1 285 0
 494 0044 2846     		mov	r0, r5
 495 0046 FFF7FEFF 		bl	chMtxLockS
 496              	.L23:
 497              		.loc 1 287 0
 498 004a 2046     		mov	r0, r4
 499 004c F8BD     		pop	{r3, r4, r5, r6, r7, pc}
 500              	.LVL52:
 501              	.L25:
ARM GAS  /tmp/cccp5Acz.s 			page 10


 502              	.LBB35:
 503              	.LBB34:
 504              		.loc 2 45 0
 505 004e 1F46     		mov	r7, r3
 506 0050 ECE7     		b	.L21
 507              	.LBE34:
 508              	.LBE35:
 509              		.cfi_endproc
 510              	.LFE15:
 511              		.size	chCondWaitTimeoutS, .-chCondWaitTimeoutS
 512 0052 00BFAFF3 		.section	.text.chCondWaitTimeout,"ax",%progbits
 512      0080AFF3 
 512      0080AFF3 
 512      0080
 513              		.align	2
 514              		.p2align 4,,15
 515              		.global	chCondWaitTimeout
 516              		.thumb
 517              		.thumb_func
 518              		.type	chCondWaitTimeout, %function
 519              	chCondWaitTimeout:
 520              	.LFB14:
 521              		.loc 1 233 0
 522              		.cfi_startproc
 523              		@ args = 0, pretend = 0, frame = 0
 524              		@ frame_needed = 0, uses_anonymous_args = 0
 525              	.LVL53:
 526 0000 08B5     		push	{r3, lr}
 527              	.LCFI7:
 528              		.cfi_def_cfa_offset 8
 529              		.cfi_offset 14, -4
 530              		.cfi_offset 3, -8
 531              	.LBB36:
 532              		.loc 1 236 0
 533 0002 2023     		movs	r3, #32
 534              	.LVL54:
 535              	@ 236 "../../os/kernel/src/chcond.c" 1
 536 0004 83F31188 		msr     BASEPRI, r3
 537              	@ 0 "" 2
 538              	.LVL55:
 539              		.thumb
 540              	.LBE36:
 541              		.loc 1 237 0
 542 0008 FFF7FEFF 		bl	chCondWaitTimeoutS
 543              	.LVL56:
 544              	.LBB37:
 545              		.loc 1 238 0
 546 000c 0023     		movs	r3, #0
 547              	.LVL57:
 548              	@ 238 "../../os/kernel/src/chcond.c" 1
 549 000e 83F31188 		msr     BASEPRI, r3
 550              	@ 0 "" 2
 551              	.LVL58:
 552              		.thumb
 553              	.LBE37:
 554              		.loc 1 240 0
 555 0012 08BD     		pop	{r3, pc}
ARM GAS  /tmp/cccp5Acz.s 			page 11


 556              		.cfi_endproc
 557              	.LFE14:
 558              		.size	chCondWaitTimeout, .-chCondWaitTimeout
 559 0014 AFF30080 		.text
 559      AFF30080 
 559      AFF30080 
 560              	.Letext0:
 561              		.file 3 "/home/lithium/Documents/arm-2011q3/bin/../lib/gcc/arm-none-eabi/4.6.1/../../../../arm-non
 562              		.file 4 "../../os/ports/GCC/ARMCMx/chtypes.h"
 563              		.file 5 "../../os/kernel/include/chlists.h"
 564              		.file 6 "../../os/kernel/include/chthreads.h"
 565              		.file 7 "../../os/ports/GCC/ARMCMx/chcore_v7m.h"
 566              		.file 8 "../../os/kernel/include/chschd.h"
 567              		.file 9 "../../os/kernel/include/chmtx.h"
 568              		.file 10 "../../os/kernel/include/chcond.h"
 569              		.section	.debug_info,"",%progbits
 570              	.Ldebug_info0:
 571 0000 8C080000 		.4byte	0x88c
 572 0004 0200     		.2byte	0x2
 573 0006 00000000 		.4byte	.Ldebug_abbrev0
 574 000a 04       		.byte	0x4
 575 000b 01       		.uleb128 0x1
 576 000c 9B020000 		.4byte	.LASF75
 577 0010 01       		.byte	0x1
 578 0011 FB000000 		.4byte	.LASF76
 579 0015 A6000000 		.4byte	.LASF77
 580 0019 00000000 		.4byte	0
 581 001d 00000000 		.4byte	0
 582 0021 90000000 		.4byte	.Ldebug_ranges0+0x90
 583 0025 00000000 		.4byte	.Ldebug_line0
 584 0029 02       		.uleb128 0x2
 585 002a 04       		.byte	0x4
 586 002b 05       		.byte	0x5
 587 002c 696E7400 		.ascii	"int\000"
 588 0030 03       		.uleb128 0x3
 589 0031 04       		.byte	0x4
 590 0032 07       		.byte	0x7
 591 0033 25010000 		.4byte	.LASF0
 592 0037 03       		.uleb128 0x3
 593 0038 01       		.byte	0x1
 594 0039 06       		.byte	0x6
 595 003a 5E000000 		.4byte	.LASF1
 596 003e 04       		.uleb128 0x4
 597 003f 1B030000 		.4byte	.LASF5
 598 0043 03       		.byte	0x3
 599 0044 2A       		.byte	0x2a
 600 0045 49000000 		.4byte	0x49
 601 0049 03       		.uleb128 0x3
 602 004a 01       		.byte	0x1
 603 004b 08       		.byte	0x8
 604 004c 1F020000 		.4byte	.LASF2
 605 0050 03       		.uleb128 0x3
 606 0051 02       		.byte	0x2
 607 0052 05       		.byte	0x5
 608 0053 37020000 		.4byte	.LASF3
 609 0057 03       		.uleb128 0x3
 610 0058 02       		.byte	0x2
ARM GAS  /tmp/cccp5Acz.s 			page 12


 611 0059 07       		.byte	0x7
 612 005a 4C010000 		.4byte	.LASF4
 613 005e 04       		.uleb128 0x4
 614 005f 17020000 		.4byte	.LASF6
 615 0063 03       		.byte	0x3
 616 0064 4F       		.byte	0x4f
 617 0065 69000000 		.4byte	0x69
 618 0069 03       		.uleb128 0x3
 619 006a 04       		.byte	0x4
 620 006b 05       		.byte	0x5
 621 006c 8C000000 		.4byte	.LASF7
 622 0070 04       		.uleb128 0x4
 623 0071 8A020000 		.4byte	.LASF8
 624 0075 03       		.byte	0x3
 625 0076 50       		.byte	0x50
 626 0077 7B000000 		.4byte	0x7b
 627 007b 03       		.uleb128 0x3
 628 007c 04       		.byte	0x4
 629 007d 07       		.byte	0x7
 630 007e 32010000 		.4byte	.LASF9
 631 0082 03       		.uleb128 0x3
 632 0083 08       		.byte	0x8
 633 0084 05       		.byte	0x5
 634 0085 50000000 		.4byte	.LASF10
 635 0089 03       		.uleb128 0x3
 636 008a 08       		.byte	0x8
 637 008b 07       		.byte	0x7
 638 008c 18000000 		.4byte	.LASF11
 639 0090 03       		.uleb128 0x3
 640 0091 01       		.byte	0x1
 641 0092 02       		.byte	0x2
 642 0093 11020000 		.4byte	.LASF12
 643 0097 04       		.uleb128 0x4
 644 0098 71010000 		.4byte	.LASF13
 645 009c 04       		.byte	0x4
 646 009d 2C       		.byte	0x2c
 647 009e 3E000000 		.4byte	0x3e
 648 00a2 04       		.uleb128 0x4
 649 00a3 95000000 		.4byte	.LASF14
 650 00a7 04       		.byte	0x4
 651 00a8 2D       		.byte	0x2d
 652 00a9 3E000000 		.4byte	0x3e
 653 00ad 04       		.uleb128 0x4
 654 00ae EC010000 		.4byte	.LASF15
 655 00b2 04       		.byte	0x4
 656 00b3 2E       		.byte	0x2e
 657 00b4 3E000000 		.4byte	0x3e
 658 00b8 04       		.uleb128 0x4
 659 00b9 7A000000 		.4byte	.LASF16
 660 00bd 04       		.byte	0x4
 661 00be 2F       		.byte	0x2f
 662 00bf 3E000000 		.4byte	0x3e
 663 00c3 04       		.uleb128 0x4
 664 00c4 FB010000 		.4byte	.LASF17
 665 00c8 04       		.byte	0x4
 666 00c9 30       		.byte	0x30
 667 00ca 70000000 		.4byte	0x70
ARM GAS  /tmp/cccp5Acz.s 			page 13


 668 00ce 04       		.uleb128 0x4
 669 00cf 5F010000 		.4byte	.LASF18
 670 00d3 04       		.byte	0x4
 671 00d4 31       		.byte	0x31
 672 00d5 5E000000 		.4byte	0x5e
 673 00d9 04       		.uleb128 0x4
 674 00da 85010000 		.4byte	.LASF19
 675 00de 04       		.byte	0x4
 676 00df 33       		.byte	0x33
 677 00e0 70000000 		.4byte	0x70
 678 00e4 04       		.uleb128 0x4
 679 00e5 CB020000 		.4byte	.LASF20
 680 00e9 04       		.byte	0x4
 681 00ea 35       		.byte	0x35
 682 00eb 70000000 		.4byte	0x70
 683 00ef 04       		.uleb128 0x4
 684 00f0 70020000 		.4byte	.LASF21
 685 00f4 05       		.byte	0x5
 686 00f5 2A       		.byte	0x2a
 687 00f6 FA000000 		.4byte	0xfa
 688 00fa 05       		.uleb128 0x5
 689 00fb 70020000 		.4byte	.LASF21
 690 00ff 48       		.byte	0x48
 691 0100 06       		.byte	0x6
 692 0101 5E       		.byte	0x5e
 693 0102 1F020000 		.4byte	0x21f
 694 0106 06       		.uleb128 0x6
 695 0107 61020000 		.4byte	.LASF22
 696 010b 06       		.byte	0x6
 697 010c 5F       		.byte	0x5f
 698 010d 44020000 		.4byte	0x244
 699 0111 02       		.byte	0x2
 700 0112 23       		.byte	0x23
 701 0113 00       		.uleb128 0
 702 0114 06       		.uleb128 0x6
 703 0115 F4010000 		.4byte	.LASF23
 704 0119 06       		.byte	0x6
 705 011a 61       		.byte	0x61
 706 011b 44020000 		.4byte	0x244
 707 011f 02       		.byte	0x2
 708 0120 23       		.byte	0x23
 709 0121 04       		.uleb128 0x4
 710 0122 06       		.uleb128 0x6
 711 0123 49000000 		.4byte	.LASF24
 712 0127 06       		.byte	0x6
 713 0128 63       		.byte	0x63
 714 0129 C3000000 		.4byte	0xc3
 715 012d 02       		.byte	0x2
 716 012e 23       		.byte	0x23
 717 012f 08       		.uleb128 0x8
 718 0130 06       		.uleb128 0x6
 719 0131 4B030000 		.4byte	.LASF25
 720 0135 06       		.byte	0x6
 721 0136 64       		.byte	0x64
 722 0137 12030000 		.4byte	0x312
 723 013b 02       		.byte	0x2
 724 013c 23       		.byte	0x23
ARM GAS  /tmp/cccp5Acz.s 			page 14


 725 013d 0C       		.uleb128 0xc
 726 013e 06       		.uleb128 0x6
 727 013f 9E000000 		.4byte	.LASF26
 728 0143 06       		.byte	0x6
 729 0144 66       		.byte	0x66
 730 0145 44020000 		.4byte	0x244
 731 0149 02       		.byte	0x2
 732 014a 23       		.byte	0x23
 733 014b 10       		.uleb128 0x10
 734 014c 06       		.uleb128 0x6
 735 014d AA010000 		.4byte	.LASF27
 736 0151 06       		.byte	0x6
 737 0152 67       		.byte	0x67
 738 0153 44020000 		.4byte	0x244
 739 0157 02       		.byte	0x2
 740 0158 23       		.byte	0x23
 741 0159 14       		.uleb128 0x14
 742 015a 06       		.uleb128 0x6
 743 015b 2A030000 		.4byte	.LASF28
 744 015f 06       		.byte	0x6
 745 0160 6E       		.byte	0x6e
 746 0161 45040000 		.4byte	0x445
 747 0165 02       		.byte	0x2
 748 0166 23       		.byte	0x23
 749 0167 18       		.uleb128 0x18
 750 0168 06       		.uleb128 0x6
 751 0169 41020000 		.4byte	.LASF29
 752 016d 06       		.byte	0x6
 753 016e 79       		.byte	0x79
 754 016f A2000000 		.4byte	0xa2
 755 0173 02       		.byte	0x2
 756 0174 23       		.byte	0x23
 757 0175 1C       		.uleb128 0x1c
 758 0176 06       		.uleb128 0x6
 759 0177 68020000 		.4byte	.LASF30
 760 017b 06       		.byte	0x6
 761 017c 7D       		.byte	0x7d
 762 017d 97000000 		.4byte	0x97
 763 0181 02       		.byte	0x2
 764 0182 23       		.byte	0x23
 765 0183 1D       		.uleb128 0x1d
 766 0184 06       		.uleb128 0x6
 767 0185 04030000 		.4byte	.LASF31
 768 0189 06       		.byte	0x6
 769 018a 82       		.byte	0x82
 770 018b AD000000 		.4byte	0xad
 771 018f 02       		.byte	0x2
 772 0190 23       		.byte	0x23
 773 0191 1E       		.uleb128 0x1e
 774 0192 06       		.uleb128 0x6
 775 0193 49020000 		.4byte	.LASF32
 776 0197 06       		.byte	0x6
 777 0198 88       		.byte	0x88
 778 0199 B8000000 		.4byte	0xb8
 779 019d 02       		.byte	0x2
 780 019e 23       		.byte	0x23
 781 019f 1F       		.uleb128 0x1f
ARM GAS  /tmp/cccp5Acz.s 			page 15


 782 01a0 06       		.uleb128 0x6
 783 01a1 EB020000 		.4byte	.LASF33
 784 01a5 06       		.byte	0x6
 785 01a6 8F       		.byte	0x8f
 786 01a7 35030000 		.4byte	0x335
 787 01ab 02       		.byte	0x2
 788 01ac 23       		.byte	0x23
 789 01ad 20       		.uleb128 0x20
 790 01ae 07       		.uleb128 0x7
 791 01af 705F7500 		.ascii	"p_u\000"
 792 01b3 06       		.byte	0x6
 793 01b4 B4       		.byte	0xb4
 794 01b5 10040000 		.4byte	0x410
 795 01b9 02       		.byte	0x2
 796 01ba 23       		.byte	0x23
 797 01bb 24       		.uleb128 0x24
 798 01bc 06       		.uleb128 0x6
 799 01bd 51030000 		.4byte	.LASF34
 800 01c1 06       		.byte	0x6
 801 01c2 B9       		.byte	0xb9
 802 01c3 6C020000 		.4byte	0x26c
 803 01c7 02       		.byte	0x2
 804 01c8 23       		.byte	0x23
 805 01c9 28       		.uleb128 0x28
 806 01ca 06       		.uleb128 0x6
 807 01cb F9020000 		.4byte	.LASF35
 808 01cf 06       		.byte	0x6
 809 01d0 BF       		.byte	0xbf
 810 01d1 4A020000 		.4byte	0x24a
 811 01d5 02       		.byte	0x2
 812 01d6 23       		.byte	0x23
 813 01d7 2C       		.uleb128 0x2c
 814 01d8 06       		.uleb128 0x6
 815 01d9 00000000 		.4byte	.LASF36
 816 01dd 06       		.byte	0x6
 817 01de C3       		.byte	0xc3
 818 01df CE000000 		.4byte	0xce
 819 01e3 02       		.byte	0x2
 820 01e4 23       		.byte	0x23
 821 01e5 34       		.uleb128 0x34
 822 01e6 06       		.uleb128 0x6
 823 01e7 7F020000 		.4byte	.LASF37
 824 01eb 06       		.byte	0x6
 825 01ec C9       		.byte	0xc9
 826 01ed D9000000 		.4byte	0xd9
 827 01f1 02       		.byte	0x2
 828 01f2 23       		.byte	0x23
 829 01f3 38       		.uleb128 0x38
 830 01f4 06       		.uleb128 0x6
 831 01f5 2D020000 		.4byte	.LASF38
 832 01f9 06       		.byte	0x6
 833 01fa D0       		.byte	0xd0
 834 01fb 57040000 		.4byte	0x457
 835 01ff 02       		.byte	0x2
 836 0200 23       		.byte	0x23
 837 0201 3C       		.uleb128 0x3c
 838 0202 06       		.uleb128 0x6
ARM GAS  /tmp/cccp5Acz.s 			page 16


 839 0203 D5020000 		.4byte	.LASF39
 840 0207 06       		.byte	0x6
 841 0208 D4       		.byte	0xd4
 842 0209 C3000000 		.4byte	0xc3
 843 020d 02       		.byte	0x2
 844 020e 23       		.byte	0x23
 845 020f 40       		.uleb128 0x40
 846 0210 06       		.uleb128 0x6
 847 0211 6A000000 		.4byte	.LASF40
 848 0215 06       		.byte	0x6
 849 0216 DA       		.byte	0xda
 850 0217 82020000 		.4byte	0x282
 851 021b 02       		.byte	0x2
 852 021c 23       		.byte	0x23
 853 021d 44       		.uleb128 0x44
 854 021e 00       		.byte	0
 855 021f 08       		.uleb128 0x8
 856 0220 08       		.byte	0x8
 857 0221 05       		.byte	0x5
 858 0222 61       		.byte	0x61
 859 0223 44020000 		.4byte	0x244
 860 0227 06       		.uleb128 0x6
 861 0228 61020000 		.4byte	.LASF22
 862 022c 05       		.byte	0x5
 863 022d 62       		.byte	0x62
 864 022e 44020000 		.4byte	0x244
 865 0232 02       		.byte	0x2
 866 0233 23       		.byte	0x23
 867 0234 00       		.uleb128 0
 868 0235 06       		.uleb128 0x6
 869 0236 F4010000 		.4byte	.LASF23
 870 023a 05       		.byte	0x5
 871 023b 64       		.byte	0x64
 872 023c 44020000 		.4byte	0x244
 873 0240 02       		.byte	0x2
 874 0241 23       		.byte	0x23
 875 0242 04       		.uleb128 0x4
 876 0243 00       		.byte	0
 877 0244 09       		.uleb128 0x9
 878 0245 04       		.byte	0x4
 879 0246 EF000000 		.4byte	0xef
 880 024a 04       		.uleb128 0x4
 881 024b B8010000 		.4byte	.LASF41
 882 024f 05       		.byte	0x5
 883 0250 66       		.byte	0x66
 884 0251 1F020000 		.4byte	0x21f
 885 0255 08       		.uleb128 0x8
 886 0256 04       		.byte	0x4
 887 0257 05       		.byte	0x5
 888 0258 6B       		.byte	0x6b
 889 0259 6C020000 		.4byte	0x26c
 890 025d 06       		.uleb128 0x6
 891 025e 61020000 		.4byte	.LASF22
 892 0262 05       		.byte	0x5
 893 0263 6D       		.byte	0x6d
 894 0264 44020000 		.4byte	0x244
 895 0268 02       		.byte	0x2
ARM GAS  /tmp/cccp5Acz.s 			page 17


 896 0269 23       		.byte	0x23
 897 026a 00       		.uleb128 0
 898 026b 00       		.byte	0
 899 026c 04       		.uleb128 0x4
 900 026d 79010000 		.4byte	.LASF42
 901 0271 05       		.byte	0x5
 902 0272 70       		.byte	0x70
 903 0273 55020000 		.4byte	0x255
 904 0277 04       		.uleb128 0x4
 905 0278 F2000000 		.4byte	.LASF43
 906 027c 07       		.byte	0x7
 907 027d E5       		.byte	0xe5
 908 027e 82020000 		.4byte	0x282
 909 0282 0A       		.uleb128 0xa
 910 0283 04       		.byte	0x4
 911 0284 0B       		.uleb128 0xb
 912 0285 F2020000 		.4byte	.LASF44
 913 0289 24       		.byte	0x24
 914 028a 07       		.byte	0x7
 915 028b 0C01     		.2byte	0x10c
 916 028d 12030000 		.4byte	0x312
 917 0291 0C       		.uleb128 0xc
 918 0292 723400   		.ascii	"r4\000"
 919 0295 07       		.byte	0x7
 920 0296 1F01     		.2byte	0x11f
 921 0298 77020000 		.4byte	0x277
 922 029c 02       		.byte	0x2
 923 029d 23       		.byte	0x23
 924 029e 00       		.uleb128 0
 925 029f 0C       		.uleb128 0xc
 926 02a0 723500   		.ascii	"r5\000"
 927 02a3 07       		.byte	0x7
 928 02a4 2001     		.2byte	0x120
 929 02a6 77020000 		.4byte	0x277
 930 02aa 02       		.byte	0x2
 931 02ab 23       		.byte	0x23
 932 02ac 04       		.uleb128 0x4
 933 02ad 0C       		.uleb128 0xc
 934 02ae 723600   		.ascii	"r6\000"
 935 02b1 07       		.byte	0x7
 936 02b2 2101     		.2byte	0x121
 937 02b4 77020000 		.4byte	0x277
 938 02b8 02       		.byte	0x2
 939 02b9 23       		.byte	0x23
 940 02ba 08       		.uleb128 0x8
 941 02bb 0C       		.uleb128 0xc
 942 02bc 723700   		.ascii	"r7\000"
 943 02bf 07       		.byte	0x7
 944 02c0 2201     		.2byte	0x122
 945 02c2 77020000 		.4byte	0x277
 946 02c6 02       		.byte	0x2
 947 02c7 23       		.byte	0x23
 948 02c8 0C       		.uleb128 0xc
 949 02c9 0C       		.uleb128 0xc
 950 02ca 723800   		.ascii	"r8\000"
 951 02cd 07       		.byte	0x7
 952 02ce 2301     		.2byte	0x123
ARM GAS  /tmp/cccp5Acz.s 			page 18


 953 02d0 77020000 		.4byte	0x277
 954 02d4 02       		.byte	0x2
 955 02d5 23       		.byte	0x23
 956 02d6 10       		.uleb128 0x10
 957 02d7 0C       		.uleb128 0xc
 958 02d8 723900   		.ascii	"r9\000"
 959 02db 07       		.byte	0x7
 960 02dc 2401     		.2byte	0x124
 961 02de 77020000 		.4byte	0x277
 962 02e2 02       		.byte	0x2
 963 02e3 23       		.byte	0x23
 964 02e4 14       		.uleb128 0x14
 965 02e5 0C       		.uleb128 0xc
 966 02e6 72313000 		.ascii	"r10\000"
 967 02ea 07       		.byte	0x7
 968 02eb 2501     		.2byte	0x125
 969 02ed 77020000 		.4byte	0x277
 970 02f1 02       		.byte	0x2
 971 02f2 23       		.byte	0x23
 972 02f3 18       		.uleb128 0x18
 973 02f4 0C       		.uleb128 0xc
 974 02f5 72313100 		.ascii	"r11\000"
 975 02f9 07       		.byte	0x7
 976 02fa 2601     		.2byte	0x126
 977 02fc 77020000 		.4byte	0x277
 978 0300 02       		.byte	0x2
 979 0301 23       		.byte	0x23
 980 0302 1C       		.uleb128 0x1c
 981 0303 0C       		.uleb128 0xc
 982 0304 6C7200   		.ascii	"lr\000"
 983 0307 07       		.byte	0x7
 984 0308 2701     		.2byte	0x127
 985 030a 77020000 		.4byte	0x277
 986 030e 02       		.byte	0x2
 987 030f 23       		.byte	0x23
 988 0310 20       		.uleb128 0x20
 989 0311 00       		.byte	0
 990 0312 0B       		.uleb128 0xb
 991 0313 44010000 		.4byte	.LASF45
 992 0317 04       		.byte	0x4
 993 0318 07       		.byte	0x7
 994 0319 3101     		.2byte	0x131
 995 031b 2F030000 		.4byte	0x32f
 996 031f 0C       		.uleb128 0xc
 997 0320 72313300 		.ascii	"r13\000"
 998 0324 07       		.byte	0x7
 999 0325 3201     		.2byte	0x132
 1000 0327 2F030000 		.4byte	0x32f
 1001 032b 02       		.byte	0x2
 1002 032c 23       		.byte	0x23
 1003 032d 00       		.uleb128 0
 1004 032e 00       		.byte	0
 1005 032f 09       		.uleb128 0x9
 1006 0330 04       		.byte	0x4
 1007 0331 84020000 		.4byte	0x284
 1008 0335 0D       		.uleb128 0xd
 1009 0336 E4000000 		.4byte	0xe4
ARM GAS  /tmp/cccp5Acz.s 			page 19


 1010 033a 08       		.uleb128 0x8
 1011 033b 1C       		.byte	0x1c
 1012 033c 08       		.byte	0x8
 1013 033d 5E       		.byte	0x5e
 1014 033e 97030000 		.4byte	0x397
 1015 0342 06       		.uleb128 0x6
 1016 0343 93020000 		.4byte	.LASF46
 1017 0347 08       		.byte	0x8
 1018 0348 5F       		.byte	0x5f
 1019 0349 4A020000 		.4byte	0x24a
 1020 034d 02       		.byte	0x2
 1021 034e 23       		.byte	0x23
 1022 034f 00       		.uleb128 0
 1023 0350 06       		.uleb128 0x6
 1024 0351 53020000 		.4byte	.LASF47
 1025 0355 08       		.byte	0x8
 1026 0356 60       		.byte	0x60
 1027 0357 C3000000 		.4byte	0xc3
 1028 035b 02       		.byte	0x2
 1029 035c 23       		.byte	0x23
 1030 035d 08       		.uleb128 0x8
 1031 035e 06       		.uleb128 0x6
 1032 035f B2010000 		.4byte	.LASF48
 1033 0363 08       		.byte	0x8
 1034 0364 62       		.byte	0x62
 1035 0365 12030000 		.4byte	0x312
 1036 0369 02       		.byte	0x2
 1037 036a 23       		.byte	0x23
 1038 036b 0C       		.uleb128 0xc
 1039 036c 06       		.uleb128 0x6
 1040 036d EA000000 		.4byte	.LASF49
 1041 0371 08       		.byte	0x8
 1042 0372 65       		.byte	0x65
 1043 0373 44020000 		.4byte	0x244
 1044 0377 02       		.byte	0x2
 1045 0378 23       		.byte	0x23
 1046 0379 10       		.uleb128 0x10
 1047 037a 06       		.uleb128 0x6
 1048 037b D4010000 		.4byte	.LASF50
 1049 037f 08       		.byte	0x8
 1050 0380 66       		.byte	0x66
 1051 0381 44020000 		.4byte	0x244
 1052 0385 02       		.byte	0x2
 1053 0386 23       		.byte	0x23
 1054 0387 14       		.uleb128 0x14
 1055 0388 06       		.uleb128 0x6
 1056 0389 CA010000 		.4byte	.LASF51
 1057 038d 08       		.byte	0x8
 1058 038e 69       		.byte	0x69
 1059 038f 44020000 		.4byte	0x244
 1060 0393 02       		.byte	0x2
 1061 0394 23       		.byte	0x23
 1062 0395 18       		.uleb128 0x18
 1063 0396 00       		.byte	0
 1064 0397 04       		.uleb128 0x4
 1065 0398 0B030000 		.4byte	.LASF52
 1066 039c 08       		.byte	0x8
ARM GAS  /tmp/cccp5Acz.s 			page 20


 1067 039d 6B       		.byte	0x6b
 1068 039e 3A030000 		.4byte	0x33a
 1069 03a2 05       		.uleb128 0x5
 1070 03a3 91010000 		.4byte	.LASF53
 1071 03a7 10       		.byte	0x10
 1072 03a8 09       		.byte	0x9
 1073 03a9 2C       		.byte	0x2c
 1074 03aa D9030000 		.4byte	0x3d9
 1075 03ae 06       		.uleb128 0x6
 1076 03af 72000000 		.4byte	.LASF54
 1077 03b3 09       		.byte	0x9
 1078 03b4 2D       		.byte	0x2d
 1079 03b5 4A020000 		.4byte	0x24a
 1080 03b9 02       		.byte	0x2
 1081 03ba 23       		.byte	0x23
 1082 03bb 00       		.uleb128 0
 1083 03bc 06       		.uleb128 0x6
 1084 03bd 43030000 		.4byte	.LASF55
 1085 03c1 09       		.byte	0x9
 1086 03c2 2F       		.byte	0x2f
 1087 03c3 44020000 		.4byte	0x244
 1088 03c7 02       		.byte	0x2
 1089 03c8 23       		.byte	0x23
 1090 03c9 08       		.uleb128 0x8
 1091 03ca 06       		.uleb128 0x6
 1092 03cb C4020000 		.4byte	.LASF56
 1093 03cf 09       		.byte	0x9
 1094 03d0 31       		.byte	0x31
 1095 03d1 D9030000 		.4byte	0x3d9
 1096 03d5 02       		.byte	0x2
 1097 03d6 23       		.byte	0x23
 1098 03d7 0C       		.uleb128 0xc
 1099 03d8 00       		.byte	0
 1100 03d9 09       		.uleb128 0x9
 1101 03da 04       		.byte	0x4
 1102 03db A2030000 		.4byte	0x3a2
 1103 03df 04       		.uleb128 0x4
 1104 03e0 91010000 		.4byte	.LASF53
 1105 03e4 09       		.byte	0x9
 1106 03e5 33       		.byte	0x33
 1107 03e6 A2030000 		.4byte	0x3a2
 1108 03ea 05       		.uleb128 0x5
 1109 03eb 84000000 		.4byte	.LASF57
 1110 03ef 08       		.byte	0x8
 1111 03f0 0A       		.byte	0xa
 1112 03f1 36       		.byte	0x36
 1113 03f2 05040000 		.4byte	0x405
 1114 03f6 06       		.uleb128 0x6
 1115 03f7 77020000 		.4byte	.LASF58
 1116 03fb 0A       		.byte	0xa
 1117 03fc 37       		.byte	0x37
 1118 03fd 4A020000 		.4byte	0x24a
 1119 0401 02       		.byte	0x2
 1120 0402 23       		.byte	0x23
 1121 0403 00       		.uleb128 0
 1122 0404 00       		.byte	0
 1123 0405 04       		.uleb128 0x4
ARM GAS  /tmp/cccp5Acz.s 			page 21


 1124 0406 84000000 		.4byte	.LASF57
 1125 040a 0A       		.byte	0xa
 1126 040b 38       		.byte	0x38
 1127 040c EA030000 		.4byte	0x3ea
 1128 0410 0E       		.uleb128 0xe
 1129 0411 04       		.byte	0x4
 1130 0412 06       		.byte	0x6
 1131 0413 96       		.byte	0x96
 1132 0414 45040000 		.4byte	0x445
 1133 0418 0F       		.uleb128 0xf
 1134 0419 11000000 		.4byte	.LASF59
 1135 041d 06       		.byte	0x6
 1136 041e 9D       		.byte	0x9d
 1137 041f CE000000 		.4byte	0xce
 1138 0423 0F       		.uleb128 0xf
 1139 0424 2F000000 		.4byte	.LASF60
 1140 0428 06       		.byte	0x6
 1141 0429 A4       		.byte	0xa4
 1142 042a CE000000 		.4byte	0xce
 1143 042e 0F       		.uleb128 0xf
 1144 042f 23030000 		.4byte	.LASF61
 1145 0433 06       		.byte	0x6
 1146 0434 AB       		.byte	0xab
 1147 0435 82020000 		.4byte	0x282
 1148 0439 0F       		.uleb128 0xf
 1149 043a 5A020000 		.4byte	.LASF62
 1150 043e 06       		.byte	0x6
 1151 043f B2       		.byte	0xb2
 1152 0440 D9000000 		.4byte	0xd9
 1153 0444 00       		.byte	0
 1154 0445 09       		.uleb128 0x9
 1155 0446 04       		.byte	0x4
 1156 0447 4B040000 		.4byte	0x44b
 1157 044b 10       		.uleb128 0x10
 1158 044c 50040000 		.4byte	0x450
 1159 0450 03       		.uleb128 0x3
 1160 0451 01       		.byte	0x1
 1161 0452 08       		.byte	0x8
 1162 0453 A7020000 		.4byte	.LASF63
 1163 0457 09       		.uleb128 0x9
 1164 0458 04       		.byte	0x4
 1165 0459 DF030000 		.4byte	0x3df
 1166 045d 11       		.uleb128 0x11
 1167 045e AC020000 		.4byte	.LASF78
 1168 0462 02       		.byte	0x2
 1169 0463 3B       		.byte	0x3b
 1170 0464 01       		.byte	0x1
 1171 0465 44020000 		.4byte	0x244
 1172 0469 03       		.byte	0x3
 1173 046a 84040000 		.4byte	0x484
 1174 046e 12       		.uleb128 0x12
 1175 046f 74717000 		.ascii	"tqp\000"
 1176 0473 02       		.byte	0x2
 1177 0474 3B       		.byte	0x3b
 1178 0475 84040000 		.4byte	0x484
 1179 0479 13       		.uleb128 0x13
 1180 047a 747000   		.ascii	"tp\000"
ARM GAS  /tmp/cccp5Acz.s 			page 22


 1181 047d 02       		.byte	0x2
 1182 047e 3C       		.byte	0x3c
 1183 047f 44020000 		.4byte	0x244
 1184 0483 00       		.byte	0
 1185 0484 09       		.uleb128 0x9
 1186 0485 04       		.byte	0x4
 1187 0486 4A020000 		.4byte	0x24a
 1188 048a 14       		.uleb128 0x14
 1189 048b 65010000 		.4byte	.LASF79
 1190 048f 02       		.byte	0x2
 1191 0490 29       		.byte	0x29
 1192 0491 01       		.byte	0x1
 1193 0492 03       		.byte	0x3
 1194 0493 B7040000 		.4byte	0x4b7
 1195 0497 12       		.uleb128 0x12
 1196 0498 747000   		.ascii	"tp\000"
 1197 049b 02       		.byte	0x2
 1198 049c 29       		.byte	0x29
 1199 049d 44020000 		.4byte	0x244
 1200 04a1 12       		.uleb128 0x12
 1201 04a2 74717000 		.ascii	"tqp\000"
 1202 04a6 02       		.byte	0x2
 1203 04a7 29       		.byte	0x29
 1204 04a8 84040000 		.4byte	0x484
 1205 04ac 13       		.uleb128 0x13
 1206 04ad 637000   		.ascii	"cp\000"
 1207 04b0 02       		.byte	0x2
 1208 04b1 2B       		.byte	0x2b
 1209 04b2 44020000 		.4byte	0x244
 1210 04b6 00       		.byte	0
 1211 04b7 15       		.uleb128 0x15
 1212 04b8 01       		.byte	0x1
 1213 04b9 06000000 		.4byte	.LASF64
 1214 04bd 01       		.byte	0x1
 1215 04be 3B       		.byte	0x3b
 1216 04bf 01       		.byte	0x1
 1217 04c0 00000000 		.4byte	.LFB7
 1218 04c4 06000000 		.4byte	.LFE7
 1219 04c8 02       		.byte	0x2
 1220 04c9 7D       		.byte	0x7d
 1221 04ca 00       		.sleb128 0
 1222 04cb DC040000 		.4byte	0x4dc
 1223 04cf 16       		.uleb128 0x16
 1224 04d0 637000   		.ascii	"cp\000"
 1225 04d3 01       		.byte	0x1
 1226 04d4 3B       		.byte	0x3b
 1227 04d5 DC040000 		.4byte	0x4dc
 1228 04d9 01       		.byte	0x1
 1229 04da 50       		.byte	0x50
 1230 04db 00       		.byte	0
 1231 04dc 09       		.uleb128 0x9
 1232 04dd 04       		.byte	0x4
 1233 04de 05040000 		.4byte	0x405
 1234 04e2 17       		.uleb128 0x17
 1235 04e3 01       		.byte	0x1
 1236 04e4 18010000 		.4byte	.LASF65
 1237 04e8 01       		.byte	0x1
ARM GAS  /tmp/cccp5Acz.s 			page 23


 1238 04e9 49       		.byte	0x49
 1239 04ea 01       		.byte	0x1
 1240 04eb 00000000 		.4byte	.LFB8
 1241 04ef 24000000 		.4byte	.LFE8
 1242 04f3 00000000 		.4byte	.LLST0
 1243 04f7 6C050000 		.4byte	0x56c
 1244 04fb 18       		.uleb128 0x18
 1245 04fc 637000   		.ascii	"cp\000"
 1246 04ff 01       		.byte	0x1
 1247 0500 49       		.byte	0x49
 1248 0501 DC040000 		.4byte	0x4dc
 1249 0505 20000000 		.4byte	.LLST1
 1250 0509 19       		.uleb128 0x19
 1251 050a 04000000 		.4byte	.LBB14
 1252 050e 0A000000 		.4byte	.LBE14
 1253 0512 26050000 		.4byte	0x526
 1254 0516 1A       		.uleb128 0x1a
 1255 0517 746D7000 		.ascii	"tmp\000"
 1256 051b 01       		.byte	0x1
 1257 051c 4D       		.byte	0x4d
 1258 051d 70000000 		.4byte	0x70
 1259 0521 3E000000 		.4byte	.LLST2
 1260 0525 00       		.byte	0
 1261 0526 1B       		.uleb128 0x1b
 1262 0527 5D040000 		.4byte	0x45d
 1263 052b 10000000 		.4byte	.LBB15
 1264 052f 00000000 		.4byte	.Ldebug_ranges0+0
 1265 0533 01       		.byte	0x1
 1266 0534 4F       		.byte	0x4f
 1267 0535 52050000 		.4byte	0x552
 1268 0539 1C       		.uleb128 0x1c
 1269 053a 6E040000 		.4byte	0x46e
 1270 053e 5C000000 		.4byte	.LLST3
 1271 0542 1D       		.uleb128 0x1d
 1272 0543 18000000 		.4byte	.Ldebug_ranges0+0x18
 1273 0547 1E       		.uleb128 0x1e
 1274 0548 79040000 		.4byte	0x479
 1275 054c 6F000000 		.4byte	.LLST4
 1276 0550 00       		.byte	0
 1277 0551 00       		.byte	0
 1278 0552 1F       		.uleb128 0x1f
 1279 0553 1C000000 		.4byte	.LBB19
 1280 0557 22000000 		.4byte	.LBE19
 1281 055b 1A       		.uleb128 0x1a
 1282 055c 746D7000 		.ascii	"tmp\000"
 1283 0560 01       		.byte	0x1
 1284 0561 50       		.byte	0x50
 1285 0562 70000000 		.4byte	0x70
 1286 0566 83000000 		.4byte	.LLST5
 1287 056a 00       		.byte	0
 1288 056b 00       		.byte	0
 1289 056c 17       		.uleb128 0x17
 1290 056d 01       		.byte	0x1
 1291 056e 03020000 		.4byte	.LASF66
 1292 0572 01       		.byte	0x1
 1293 0573 5E       		.byte	0x5e
 1294 0574 01       		.byte	0x1
ARM GAS  /tmp/cccp5Acz.s 			page 24


 1295 0575 00000000 		.4byte	.LFB9
 1296 0579 1A000000 		.4byte	.LFE9
 1297 057d 96000000 		.4byte	.LLST6
 1298 0581 C0050000 		.4byte	0x5c0
 1299 0585 18       		.uleb128 0x18
 1300 0586 637000   		.ascii	"cp\000"
 1301 0589 01       		.byte	0x1
 1302 058a 5E       		.byte	0x5e
 1303 058b DC040000 		.4byte	0x4dc
 1304 058f B6000000 		.4byte	.LLST7
 1305 0593 20       		.uleb128 0x20
 1306 0594 5D040000 		.4byte	0x45d
 1307 0598 0A000000 		.4byte	.LBB20
 1308 059c 10000000 		.4byte	.LBE20
 1309 05a0 01       		.byte	0x1
 1310 05a1 64       		.byte	0x64
 1311 05a2 1C       		.uleb128 0x1c
 1312 05a3 6E040000 		.4byte	0x46e
 1313 05a7 D4000000 		.4byte	.LLST8
 1314 05ab 1F       		.uleb128 0x1f
 1315 05ac 0A000000 		.4byte	.LBB21
 1316 05b0 10000000 		.4byte	.LBE21
 1317 05b4 1E       		.uleb128 0x1e
 1318 05b5 79040000 		.4byte	0x479
 1319 05b9 E7000000 		.4byte	.LLST9
 1320 05bd 00       		.byte	0
 1321 05be 00       		.byte	0
 1322 05bf 00       		.byte	0
 1323 05c0 17       		.uleb128 0x17
 1324 05c1 01       		.byte	0x1
 1325 05c2 38000000 		.4byte	.LASF67
 1326 05c6 01       		.byte	0x1
 1327 05c7 81       		.byte	0x81
 1328 05c8 01       		.byte	0x1
 1329 05c9 00000000 		.4byte	.LFB11
 1330 05cd 22000000 		.4byte	.LFE11
 1331 05d1 FB000000 		.4byte	.LLST10
 1332 05d5 14060000 		.4byte	0x614
 1333 05d9 18       		.uleb128 0x18
 1334 05da 637000   		.ascii	"cp\000"
 1335 05dd 01       		.byte	0x1
 1336 05de 81       		.byte	0x81
 1337 05df DC040000 		.4byte	0x4dc
 1338 05e3 1B010000 		.4byte	.LLST11
 1339 05e7 20       		.uleb128 0x20
 1340 05e8 5D040000 		.4byte	0x45d
 1341 05ec 0E000000 		.4byte	.LBB22
 1342 05f0 14000000 		.4byte	.LBE22
 1343 05f4 01       		.byte	0x1
 1344 05f5 8A       		.byte	0x8a
 1345 05f6 1C       		.uleb128 0x1c
 1346 05f7 6E040000 		.4byte	0x46e
 1347 05fb 39010000 		.4byte	.LLST12
 1348 05ff 1F       		.uleb128 0x1f
 1349 0600 0E000000 		.4byte	.LBB23
 1350 0604 14000000 		.4byte	.LBE23
 1351 0608 1E       		.uleb128 0x1e
ARM GAS  /tmp/cccp5Acz.s 			page 25


 1352 0609 79040000 		.4byte	0x479
 1353 060d 4C010000 		.4byte	.LLST13
 1354 0611 00       		.byte	0
 1355 0612 00       		.byte	0
 1356 0613 00       		.byte	0
 1357 0614 17       		.uleb128 0x17
 1358 0615 01       		.byte	0x1
 1359 0616 DC010000 		.4byte	.LASF68
 1360 061a 01       		.byte	0x1
 1361 061b 6E       		.byte	0x6e
 1362 061c 01       		.byte	0x1
 1363 061d 00000000 		.4byte	.LFB10
 1364 0621 18000000 		.4byte	.LFE10
 1365 0625 5F010000 		.4byte	.LLST14
 1366 0629 72060000 		.4byte	0x672
 1367 062d 18       		.uleb128 0x18
 1368 062e 637000   		.ascii	"cp\000"
 1369 0631 01       		.byte	0x1
 1370 0632 6E       		.byte	0x6e
 1371 0633 DC040000 		.4byte	0x4dc
 1372 0637 7F010000 		.4byte	.LLST15
 1373 063b 19       		.uleb128 0x19
 1374 063c 02000000 		.4byte	.LBB24
 1375 0640 08000000 		.4byte	.LBE24
 1376 0644 58060000 		.4byte	0x658
 1377 0648 1A       		.uleb128 0x1a
 1378 0649 746D7000 		.ascii	"tmp\000"
 1379 064d 01       		.byte	0x1
 1380 064e 70       		.byte	0x70
 1381 064f 70000000 		.4byte	0x70
 1382 0653 92010000 		.4byte	.LLST16
 1383 0657 00       		.byte	0
 1384 0658 1F       		.uleb128 0x1f
 1385 0659 10000000 		.4byte	.LBB25
 1386 065d 16000000 		.4byte	.LBE25
 1387 0661 1A       		.uleb128 0x1a
 1388 0662 746D7000 		.ascii	"tmp\000"
 1389 0666 01       		.byte	0x1
 1390 0667 73       		.byte	0x73
 1391 0668 70000000 		.4byte	0x70
 1392 066c A5010000 		.4byte	.LLST17
 1393 0670 00       		.byte	0
 1394 0671 00       		.byte	0
 1395 0672 21       		.uleb128 0x21
 1396 0673 01       		.byte	0x1
 1397 0674 B8020000 		.4byte	.LASF69
 1398 0678 01       		.byte	0x1
 1399 0679 B8       		.byte	0xb8
 1400 067a 01       		.byte	0x1
 1401 067b CE000000 		.4byte	0xce
 1402 067f 00000000 		.4byte	.LFB13
 1403 0683 4A000000 		.4byte	.LFE13
 1404 0687 B8010000 		.4byte	.LLST18
 1405 068b F9060000 		.4byte	0x6f9
 1406 068f 18       		.uleb128 0x18
 1407 0690 637000   		.ascii	"cp\000"
 1408 0693 01       		.byte	0x1
ARM GAS  /tmp/cccp5Acz.s 			page 26


 1409 0694 B8       		.byte	0xb8
 1410 0695 DC040000 		.4byte	0x4dc
 1411 0699 D8010000 		.4byte	.LLST19
 1412 069d 1A       		.uleb128 0x1a
 1413 069e 63747000 		.ascii	"ctp\000"
 1414 06a2 01       		.byte	0x1
 1415 06a3 B9       		.byte	0xb9
 1416 06a4 44020000 		.4byte	0x244
 1417 06a8 F6010000 		.4byte	.LLST20
 1418 06ac 1A       		.uleb128 0x1a
 1419 06ad 6D7000   		.ascii	"mp\000"
 1420 06b0 01       		.byte	0x1
 1421 06b1 BA       		.byte	0xba
 1422 06b2 57040000 		.4byte	0x457
 1423 06b6 20020000 		.4byte	.LLST21
 1424 06ba 1A       		.uleb128 0x1a
 1425 06bb 6D736700 		.ascii	"msg\000"
 1426 06bf 01       		.byte	0x1
 1427 06c0 BB       		.byte	0xbb
 1428 06c1 CE000000 		.4byte	0xce
 1429 06c5 3E020000 		.4byte	.LLST22
 1430 06c9 22       		.uleb128 0x22
 1431 06ca 8A040000 		.4byte	0x48a
 1432 06ce 1C000000 		.4byte	.LBB26
 1433 06d2 30000000 		.4byte	.Ldebug_ranges0+0x30
 1434 06d6 01       		.byte	0x1
 1435 06d7 C5       		.byte	0xc5
 1436 06d8 23       		.uleb128 0x23
 1437 06d9 A1040000 		.4byte	0x4a1
 1438 06dd 01       		.byte	0x1
 1439 06de 55       		.byte	0x55
 1440 06df 1C       		.uleb128 0x1c
 1441 06e0 97040000 		.4byte	0x497
 1442 06e4 51020000 		.4byte	.LLST23
 1443 06e8 1D       		.uleb128 0x1d
 1444 06e9 48000000 		.4byte	.Ldebug_ranges0+0x48
 1445 06ed 1E       		.uleb128 0x1e
 1446 06ee AC040000 		.4byte	0x4ac
 1447 06f2 6F020000 		.4byte	.LLST24
 1448 06f6 00       		.byte	0
 1449 06f7 00       		.byte	0
 1450 06f8 00       		.byte	0
 1451 06f9 21       		.uleb128 0x21
 1452 06fa 01       		.byte	0x1
 1453 06fb E0020000 		.4byte	.LASF70
 1454 06ff 01       		.byte	0x1
 1455 0700 9E       		.byte	0x9e
 1456 0701 01       		.byte	0x1
 1457 0702 CE000000 		.4byte	0xce
 1458 0706 00000000 		.4byte	.LFB12
 1459 070a 14000000 		.4byte	.LFE12
 1460 070e 98020000 		.4byte	.LLST25
 1461 0712 68070000 		.4byte	0x768
 1462 0716 18       		.uleb128 0x18
 1463 0717 637000   		.ascii	"cp\000"
 1464 071a 01       		.byte	0x1
 1465 071b 9E       		.byte	0x9e
ARM GAS  /tmp/cccp5Acz.s 			page 27


 1466 071c DC040000 		.4byte	0x4dc
 1467 0720 B8020000 		.4byte	.LLST26
 1468 0724 24       		.uleb128 0x24
 1469 0725 6D736700 		.ascii	"msg\000"
 1470 0729 01       		.byte	0x1
 1471 072a 9F       		.byte	0x9f
 1472 072b CE000000 		.4byte	0xce
 1473 072f 01       		.byte	0x1
 1474 0730 50       		.byte	0x50
 1475 0731 19       		.uleb128 0x19
 1476 0732 02000000 		.4byte	.LBB30
 1477 0736 08000000 		.4byte	.LBE30
 1478 073a 4E070000 		.4byte	0x74e
 1479 073e 1A       		.uleb128 0x1a
 1480 073f 746D7000 		.ascii	"tmp\000"
 1481 0743 01       		.byte	0x1
 1482 0744 A1       		.byte	0xa1
 1483 0745 70000000 		.4byte	0x70
 1484 0749 CB020000 		.4byte	.LLST27
 1485 074d 00       		.byte	0
 1486 074e 1F       		.uleb128 0x1f
 1487 074f 0C000000 		.4byte	.LBB31
 1488 0753 12000000 		.4byte	.LBE31
 1489 0757 1A       		.uleb128 0x1a
 1490 0758 746D7000 		.ascii	"tmp\000"
 1491 075c 01       		.byte	0x1
 1492 075d A3       		.byte	0xa3
 1493 075e 70000000 		.4byte	0x70
 1494 0762 DE020000 		.4byte	.LLST28
 1495 0766 00       		.byte	0
 1496 0767 00       		.byte	0
 1497 0768 25       		.uleb128 0x25
 1498 0769 01       		.byte	0x1
 1499 076a 97010000 		.4byte	.LASF71
 1500 076e 01       		.byte	0x1
 1501 076f 0E01     		.2byte	0x10e
 1502 0771 01       		.byte	0x1
 1503 0772 CE000000 		.4byte	0xce
 1504 0776 00000000 		.4byte	.LFB15
 1505 077a 52000000 		.4byte	.LFE15
 1506 077e F1020000 		.4byte	.LLST29
 1507 0782 F7070000 		.4byte	0x7f7
 1508 0786 26       		.uleb128 0x26
 1509 0787 637000   		.ascii	"cp\000"
 1510 078a 01       		.byte	0x1
 1511 078b 0E01     		.2byte	0x10e
 1512 078d DC040000 		.4byte	0x4dc
 1513 0791 11030000 		.4byte	.LLST30
 1514 0795 27       		.uleb128 0x27
 1515 0796 C5010000 		.4byte	.LASF72
 1516 079a 01       		.byte	0x1
 1517 079b 0E01     		.2byte	0x10e
 1518 079d E4000000 		.4byte	0xe4
 1519 07a1 3A030000 		.4byte	.LLST31
 1520 07a5 28       		.uleb128 0x28
 1521 07a6 6D7000   		.ascii	"mp\000"
 1522 07a9 01       		.byte	0x1
ARM GAS  /tmp/cccp5Acz.s 			page 28


 1523 07aa 0F01     		.2byte	0x10f
 1524 07ac 57040000 		.4byte	0x457
 1525 07b0 58030000 		.4byte	.LLST32
 1526 07b4 28       		.uleb128 0x28
 1527 07b5 6D736700 		.ascii	"msg\000"
 1528 07b9 01       		.byte	0x1
 1529 07ba 1001     		.2byte	0x110
 1530 07bc CE000000 		.4byte	0xce
 1531 07c0 76030000 		.4byte	.LLST33
 1532 07c4 29       		.uleb128 0x29
 1533 07c5 8A040000 		.4byte	0x48a
 1534 07c9 1E000000 		.4byte	.LBB32
 1535 07cd 60000000 		.4byte	.Ldebug_ranges0+0x60
 1536 07d1 01       		.byte	0x1
 1537 07d2 1A01     		.2byte	0x11a
 1538 07d4 1C       		.uleb128 0x1c
 1539 07d5 A1040000 		.4byte	0x4a1
 1540 07d9 94030000 		.4byte	.LLST34
 1541 07dd 1C       		.uleb128 0x1c
 1542 07de 97040000 		.4byte	0x497
 1543 07e2 B2030000 		.4byte	.LLST35
 1544 07e6 1D       		.uleb128 0x1d
 1545 07e7 78000000 		.4byte	.Ldebug_ranges0+0x78
 1546 07eb 1E       		.uleb128 0x1e
 1547 07ec AC040000 		.4byte	0x4ac
 1548 07f0 D1030000 		.4byte	.LLST36
 1549 07f4 00       		.byte	0
 1550 07f5 00       		.byte	0
 1551 07f6 00       		.byte	0
 1552 07f7 21       		.uleb128 0x21
 1553 07f8 01       		.byte	0x1
 1554 07f9 31030000 		.4byte	.LASF73
 1555 07fd 01       		.byte	0x1
 1556 07fe E9       		.byte	0xe9
 1557 07ff 01       		.byte	0x1
 1558 0800 CE000000 		.4byte	0xce
 1559 0804 00000000 		.4byte	.LFB14
 1560 0808 14000000 		.4byte	.LFE14
 1561 080c FA030000 		.4byte	.LLST37
 1562 0810 75080000 		.4byte	0x875
 1563 0814 18       		.uleb128 0x18
 1564 0815 637000   		.ascii	"cp\000"
 1565 0818 01       		.byte	0x1
 1566 0819 E9       		.byte	0xe9
 1567 081a DC040000 		.4byte	0x4dc
 1568 081e 1A040000 		.4byte	.LLST38
 1569 0822 2A       		.uleb128 0x2a
 1570 0823 C5010000 		.4byte	.LASF72
 1571 0827 01       		.byte	0x1
 1572 0828 E9       		.byte	0xe9
 1573 0829 E4000000 		.4byte	0xe4
 1574 082d 2D040000 		.4byte	.LLST39
 1575 0831 24       		.uleb128 0x24
 1576 0832 6D736700 		.ascii	"msg\000"
 1577 0836 01       		.byte	0x1
 1578 0837 EA       		.byte	0xea
 1579 0838 CE000000 		.4byte	0xce
ARM GAS  /tmp/cccp5Acz.s 			page 29


 1580 083c 01       		.byte	0x1
 1581 083d 50       		.byte	0x50
 1582 083e 19       		.uleb128 0x19
 1583 083f 02000000 		.4byte	.LBB36
 1584 0843 08000000 		.4byte	.LBE36
 1585 0847 5B080000 		.4byte	0x85b
 1586 084b 1A       		.uleb128 0x1a
 1587 084c 746D7000 		.ascii	"tmp\000"
 1588 0850 01       		.byte	0x1
 1589 0851 EC       		.byte	0xec
 1590 0852 70000000 		.4byte	0x70
 1591 0856 40040000 		.4byte	.LLST40
 1592 085a 00       		.byte	0
 1593 085b 1F       		.uleb128 0x1f
 1594 085c 0C000000 		.4byte	.LBB37
 1595 0860 12000000 		.4byte	.LBE37
 1596 0864 1A       		.uleb128 0x1a
 1597 0865 746D7000 		.ascii	"tmp\000"
 1598 0869 01       		.byte	0x1
 1599 086a EE       		.byte	0xee
 1600 086b 70000000 		.4byte	0x70
 1601 086f 53040000 		.4byte	.LLST41
 1602 0873 00       		.byte	0
 1603 0874 00       		.byte	0
 1604 0875 2B       		.uleb128 0x2b
 1605 0876 15030000 		.4byte	.LASF74
 1606 087a 08       		.byte	0x8
 1607 087b 6F       		.byte	0x6f
 1608 087c 97030000 		.4byte	0x397
 1609 0880 01       		.byte	0x1
 1610 0881 01       		.byte	0x1
 1611 0882 2B       		.uleb128 0x2b
 1612 0883 15030000 		.4byte	.LASF74
 1613 0887 08       		.byte	0x8
 1614 0888 6F       		.byte	0x6f
 1615 0889 97030000 		.4byte	0x397
 1616 088d 01       		.byte	0x1
 1617 088e 01       		.byte	0x1
 1618 088f 00       		.byte	0
 1619              		.section	.debug_abbrev,"",%progbits
 1620              	.Ldebug_abbrev0:
 1621 0000 01       		.uleb128 0x1
 1622 0001 11       		.uleb128 0x11
 1623 0002 01       		.byte	0x1
 1624 0003 25       		.uleb128 0x25
 1625 0004 0E       		.uleb128 0xe
 1626 0005 13       		.uleb128 0x13
 1627 0006 0B       		.uleb128 0xb
 1628 0007 03       		.uleb128 0x3
 1629 0008 0E       		.uleb128 0xe
 1630 0009 1B       		.uleb128 0x1b
 1631 000a 0E       		.uleb128 0xe
 1632 000b 11       		.uleb128 0x11
 1633 000c 01       		.uleb128 0x1
 1634 000d 52       		.uleb128 0x52
 1635 000e 01       		.uleb128 0x1
 1636 000f 55       		.uleb128 0x55
ARM GAS  /tmp/cccp5Acz.s 			page 30


 1637 0010 06       		.uleb128 0x6
 1638 0011 10       		.uleb128 0x10
 1639 0012 06       		.uleb128 0x6
 1640 0013 00       		.byte	0
 1641 0014 00       		.byte	0
 1642 0015 02       		.uleb128 0x2
 1643 0016 24       		.uleb128 0x24
 1644 0017 00       		.byte	0
 1645 0018 0B       		.uleb128 0xb
 1646 0019 0B       		.uleb128 0xb
 1647 001a 3E       		.uleb128 0x3e
 1648 001b 0B       		.uleb128 0xb
 1649 001c 03       		.uleb128 0x3
 1650 001d 08       		.uleb128 0x8
 1651 001e 00       		.byte	0
 1652 001f 00       		.byte	0
 1653 0020 03       		.uleb128 0x3
 1654 0021 24       		.uleb128 0x24
 1655 0022 00       		.byte	0
 1656 0023 0B       		.uleb128 0xb
 1657 0024 0B       		.uleb128 0xb
 1658 0025 3E       		.uleb128 0x3e
 1659 0026 0B       		.uleb128 0xb
 1660 0027 03       		.uleb128 0x3
 1661 0028 0E       		.uleb128 0xe
 1662 0029 00       		.byte	0
 1663 002a 00       		.byte	0
 1664 002b 04       		.uleb128 0x4
 1665 002c 16       		.uleb128 0x16
 1666 002d 00       		.byte	0
 1667 002e 03       		.uleb128 0x3
 1668 002f 0E       		.uleb128 0xe
 1669 0030 3A       		.uleb128 0x3a
 1670 0031 0B       		.uleb128 0xb
 1671 0032 3B       		.uleb128 0x3b
 1672 0033 0B       		.uleb128 0xb
 1673 0034 49       		.uleb128 0x49
 1674 0035 13       		.uleb128 0x13
 1675 0036 00       		.byte	0
 1676 0037 00       		.byte	0
 1677 0038 05       		.uleb128 0x5
 1678 0039 13       		.uleb128 0x13
 1679 003a 01       		.byte	0x1
 1680 003b 03       		.uleb128 0x3
 1681 003c 0E       		.uleb128 0xe
 1682 003d 0B       		.uleb128 0xb
 1683 003e 0B       		.uleb128 0xb
 1684 003f 3A       		.uleb128 0x3a
 1685 0040 0B       		.uleb128 0xb
 1686 0041 3B       		.uleb128 0x3b
 1687 0042 0B       		.uleb128 0xb
 1688 0043 01       		.uleb128 0x1
 1689 0044 13       		.uleb128 0x13
 1690 0045 00       		.byte	0
 1691 0046 00       		.byte	0
 1692 0047 06       		.uleb128 0x6
 1693 0048 0D       		.uleb128 0xd
ARM GAS  /tmp/cccp5Acz.s 			page 31


 1694 0049 00       		.byte	0
 1695 004a 03       		.uleb128 0x3
 1696 004b 0E       		.uleb128 0xe
 1697 004c 3A       		.uleb128 0x3a
 1698 004d 0B       		.uleb128 0xb
 1699 004e 3B       		.uleb128 0x3b
 1700 004f 0B       		.uleb128 0xb
 1701 0050 49       		.uleb128 0x49
 1702 0051 13       		.uleb128 0x13
 1703 0052 38       		.uleb128 0x38
 1704 0053 0A       		.uleb128 0xa
 1705 0054 00       		.byte	0
 1706 0055 00       		.byte	0
 1707 0056 07       		.uleb128 0x7
 1708 0057 0D       		.uleb128 0xd
 1709 0058 00       		.byte	0
 1710 0059 03       		.uleb128 0x3
 1711 005a 08       		.uleb128 0x8
 1712 005b 3A       		.uleb128 0x3a
 1713 005c 0B       		.uleb128 0xb
 1714 005d 3B       		.uleb128 0x3b
 1715 005e 0B       		.uleb128 0xb
 1716 005f 49       		.uleb128 0x49
 1717 0060 13       		.uleb128 0x13
 1718 0061 38       		.uleb128 0x38
 1719 0062 0A       		.uleb128 0xa
 1720 0063 00       		.byte	0
 1721 0064 00       		.byte	0
 1722 0065 08       		.uleb128 0x8
 1723 0066 13       		.uleb128 0x13
 1724 0067 01       		.byte	0x1
 1725 0068 0B       		.uleb128 0xb
 1726 0069 0B       		.uleb128 0xb
 1727 006a 3A       		.uleb128 0x3a
 1728 006b 0B       		.uleb128 0xb
 1729 006c 3B       		.uleb128 0x3b
 1730 006d 0B       		.uleb128 0xb
 1731 006e 01       		.uleb128 0x1
 1732 006f 13       		.uleb128 0x13
 1733 0070 00       		.byte	0
 1734 0071 00       		.byte	0
 1735 0072 09       		.uleb128 0x9
 1736 0073 0F       		.uleb128 0xf
 1737 0074 00       		.byte	0
 1738 0075 0B       		.uleb128 0xb
 1739 0076 0B       		.uleb128 0xb
 1740 0077 49       		.uleb128 0x49
 1741 0078 13       		.uleb128 0x13
 1742 0079 00       		.byte	0
 1743 007a 00       		.byte	0
 1744 007b 0A       		.uleb128 0xa
 1745 007c 0F       		.uleb128 0xf
 1746 007d 00       		.byte	0
 1747 007e 0B       		.uleb128 0xb
 1748 007f 0B       		.uleb128 0xb
 1749 0080 00       		.byte	0
 1750 0081 00       		.byte	0
ARM GAS  /tmp/cccp5Acz.s 			page 32


 1751 0082 0B       		.uleb128 0xb
 1752 0083 13       		.uleb128 0x13
 1753 0084 01       		.byte	0x1
 1754 0085 03       		.uleb128 0x3
 1755 0086 0E       		.uleb128 0xe
 1756 0087 0B       		.uleb128 0xb
 1757 0088 0B       		.uleb128 0xb
 1758 0089 3A       		.uleb128 0x3a
 1759 008a 0B       		.uleb128 0xb
 1760 008b 3B       		.uleb128 0x3b
 1761 008c 05       		.uleb128 0x5
 1762 008d 01       		.uleb128 0x1
 1763 008e 13       		.uleb128 0x13
 1764 008f 00       		.byte	0
 1765 0090 00       		.byte	0
 1766 0091 0C       		.uleb128 0xc
 1767 0092 0D       		.uleb128 0xd
 1768 0093 00       		.byte	0
 1769 0094 03       		.uleb128 0x3
 1770 0095 08       		.uleb128 0x8
 1771 0096 3A       		.uleb128 0x3a
 1772 0097 0B       		.uleb128 0xb
 1773 0098 3B       		.uleb128 0x3b
 1774 0099 05       		.uleb128 0x5
 1775 009a 49       		.uleb128 0x49
 1776 009b 13       		.uleb128 0x13
 1777 009c 38       		.uleb128 0x38
 1778 009d 0A       		.uleb128 0xa
 1779 009e 00       		.byte	0
 1780 009f 00       		.byte	0
 1781 00a0 0D       		.uleb128 0xd
 1782 00a1 35       		.uleb128 0x35
 1783 00a2 00       		.byte	0
 1784 00a3 49       		.uleb128 0x49
 1785 00a4 13       		.uleb128 0x13
 1786 00a5 00       		.byte	0
 1787 00a6 00       		.byte	0
 1788 00a7 0E       		.uleb128 0xe
 1789 00a8 17       		.uleb128 0x17
 1790 00a9 01       		.byte	0x1
 1791 00aa 0B       		.uleb128 0xb
 1792 00ab 0B       		.uleb128 0xb
 1793 00ac 3A       		.uleb128 0x3a
 1794 00ad 0B       		.uleb128 0xb
 1795 00ae 3B       		.uleb128 0x3b
 1796 00af 0B       		.uleb128 0xb
 1797 00b0 01       		.uleb128 0x1
 1798 00b1 13       		.uleb128 0x13
 1799 00b2 00       		.byte	0
 1800 00b3 00       		.byte	0
 1801 00b4 0F       		.uleb128 0xf
 1802 00b5 0D       		.uleb128 0xd
 1803 00b6 00       		.byte	0
 1804 00b7 03       		.uleb128 0x3
 1805 00b8 0E       		.uleb128 0xe
 1806 00b9 3A       		.uleb128 0x3a
 1807 00ba 0B       		.uleb128 0xb
ARM GAS  /tmp/cccp5Acz.s 			page 33


 1808 00bb 3B       		.uleb128 0x3b
 1809 00bc 0B       		.uleb128 0xb
 1810 00bd 49       		.uleb128 0x49
 1811 00be 13       		.uleb128 0x13
 1812 00bf 00       		.byte	0
 1813 00c0 00       		.byte	0
 1814 00c1 10       		.uleb128 0x10
 1815 00c2 26       		.uleb128 0x26
 1816 00c3 00       		.byte	0
 1817 00c4 49       		.uleb128 0x49
 1818 00c5 13       		.uleb128 0x13
 1819 00c6 00       		.byte	0
 1820 00c7 00       		.byte	0
 1821 00c8 11       		.uleb128 0x11
 1822 00c9 2E       		.uleb128 0x2e
 1823 00ca 01       		.byte	0x1
 1824 00cb 03       		.uleb128 0x3
 1825 00cc 0E       		.uleb128 0xe
 1826 00cd 3A       		.uleb128 0x3a
 1827 00ce 0B       		.uleb128 0xb
 1828 00cf 3B       		.uleb128 0x3b
 1829 00d0 0B       		.uleb128 0xb
 1830 00d1 27       		.uleb128 0x27
 1831 00d2 0C       		.uleb128 0xc
 1832 00d3 49       		.uleb128 0x49
 1833 00d4 13       		.uleb128 0x13
 1834 00d5 20       		.uleb128 0x20
 1835 00d6 0B       		.uleb128 0xb
 1836 00d7 01       		.uleb128 0x1
 1837 00d8 13       		.uleb128 0x13
 1838 00d9 00       		.byte	0
 1839 00da 00       		.byte	0
 1840 00db 12       		.uleb128 0x12
 1841 00dc 05       		.uleb128 0x5
 1842 00dd 00       		.byte	0
 1843 00de 03       		.uleb128 0x3
 1844 00df 08       		.uleb128 0x8
 1845 00e0 3A       		.uleb128 0x3a
 1846 00e1 0B       		.uleb128 0xb
 1847 00e2 3B       		.uleb128 0x3b
 1848 00e3 0B       		.uleb128 0xb
 1849 00e4 49       		.uleb128 0x49
 1850 00e5 13       		.uleb128 0x13
 1851 00e6 00       		.byte	0
 1852 00e7 00       		.byte	0
 1853 00e8 13       		.uleb128 0x13
 1854 00e9 34       		.uleb128 0x34
 1855 00ea 00       		.byte	0
 1856 00eb 03       		.uleb128 0x3
 1857 00ec 08       		.uleb128 0x8
 1858 00ed 3A       		.uleb128 0x3a
 1859 00ee 0B       		.uleb128 0xb
 1860 00ef 3B       		.uleb128 0x3b
 1861 00f0 0B       		.uleb128 0xb
 1862 00f1 49       		.uleb128 0x49
 1863 00f2 13       		.uleb128 0x13
 1864 00f3 00       		.byte	0
ARM GAS  /tmp/cccp5Acz.s 			page 34


 1865 00f4 00       		.byte	0
 1866 00f5 14       		.uleb128 0x14
 1867 00f6 2E       		.uleb128 0x2e
 1868 00f7 01       		.byte	0x1
 1869 00f8 03       		.uleb128 0x3
 1870 00f9 0E       		.uleb128 0xe
 1871 00fa 3A       		.uleb128 0x3a
 1872 00fb 0B       		.uleb128 0xb
 1873 00fc 3B       		.uleb128 0x3b
 1874 00fd 0B       		.uleb128 0xb
 1875 00fe 27       		.uleb128 0x27
 1876 00ff 0C       		.uleb128 0xc
 1877 0100 20       		.uleb128 0x20
 1878 0101 0B       		.uleb128 0xb
 1879 0102 01       		.uleb128 0x1
 1880 0103 13       		.uleb128 0x13
 1881 0104 00       		.byte	0
 1882 0105 00       		.byte	0
 1883 0106 15       		.uleb128 0x15
 1884 0107 2E       		.uleb128 0x2e
 1885 0108 01       		.byte	0x1
 1886 0109 3F       		.uleb128 0x3f
 1887 010a 0C       		.uleb128 0xc
 1888 010b 03       		.uleb128 0x3
 1889 010c 0E       		.uleb128 0xe
 1890 010d 3A       		.uleb128 0x3a
 1891 010e 0B       		.uleb128 0xb
 1892 010f 3B       		.uleb128 0x3b
 1893 0110 0B       		.uleb128 0xb
 1894 0111 27       		.uleb128 0x27
 1895 0112 0C       		.uleb128 0xc
 1896 0113 11       		.uleb128 0x11
 1897 0114 01       		.uleb128 0x1
 1898 0115 12       		.uleb128 0x12
 1899 0116 01       		.uleb128 0x1
 1900 0117 40       		.uleb128 0x40
 1901 0118 0A       		.uleb128 0xa
 1902 0119 01       		.uleb128 0x1
 1903 011a 13       		.uleb128 0x13
 1904 011b 00       		.byte	0
 1905 011c 00       		.byte	0
 1906 011d 16       		.uleb128 0x16
 1907 011e 05       		.uleb128 0x5
 1908 011f 00       		.byte	0
 1909 0120 03       		.uleb128 0x3
 1910 0121 08       		.uleb128 0x8
 1911 0122 3A       		.uleb128 0x3a
 1912 0123 0B       		.uleb128 0xb
 1913 0124 3B       		.uleb128 0x3b
 1914 0125 0B       		.uleb128 0xb
 1915 0126 49       		.uleb128 0x49
 1916 0127 13       		.uleb128 0x13
 1917 0128 02       		.uleb128 0x2
 1918 0129 0A       		.uleb128 0xa
 1919 012a 00       		.byte	0
 1920 012b 00       		.byte	0
 1921 012c 17       		.uleb128 0x17
ARM GAS  /tmp/cccp5Acz.s 			page 35


 1922 012d 2E       		.uleb128 0x2e
 1923 012e 01       		.byte	0x1
 1924 012f 3F       		.uleb128 0x3f
 1925 0130 0C       		.uleb128 0xc
 1926 0131 03       		.uleb128 0x3
 1927 0132 0E       		.uleb128 0xe
 1928 0133 3A       		.uleb128 0x3a
 1929 0134 0B       		.uleb128 0xb
 1930 0135 3B       		.uleb128 0x3b
 1931 0136 0B       		.uleb128 0xb
 1932 0137 27       		.uleb128 0x27
 1933 0138 0C       		.uleb128 0xc
 1934 0139 11       		.uleb128 0x11
 1935 013a 01       		.uleb128 0x1
 1936 013b 12       		.uleb128 0x12
 1937 013c 01       		.uleb128 0x1
 1938 013d 40       		.uleb128 0x40
 1939 013e 06       		.uleb128 0x6
 1940 013f 01       		.uleb128 0x1
 1941 0140 13       		.uleb128 0x13
 1942 0141 00       		.byte	0
 1943 0142 00       		.byte	0
 1944 0143 18       		.uleb128 0x18
 1945 0144 05       		.uleb128 0x5
 1946 0145 00       		.byte	0
 1947 0146 03       		.uleb128 0x3
 1948 0147 08       		.uleb128 0x8
 1949 0148 3A       		.uleb128 0x3a
 1950 0149 0B       		.uleb128 0xb
 1951 014a 3B       		.uleb128 0x3b
 1952 014b 0B       		.uleb128 0xb
 1953 014c 49       		.uleb128 0x49
 1954 014d 13       		.uleb128 0x13
 1955 014e 02       		.uleb128 0x2
 1956 014f 06       		.uleb128 0x6
 1957 0150 00       		.byte	0
 1958 0151 00       		.byte	0
 1959 0152 19       		.uleb128 0x19
 1960 0153 0B       		.uleb128 0xb
 1961 0154 01       		.byte	0x1
 1962 0155 11       		.uleb128 0x11
 1963 0156 01       		.uleb128 0x1
 1964 0157 12       		.uleb128 0x12
 1965 0158 01       		.uleb128 0x1
 1966 0159 01       		.uleb128 0x1
 1967 015a 13       		.uleb128 0x13
 1968 015b 00       		.byte	0
 1969 015c 00       		.byte	0
 1970 015d 1A       		.uleb128 0x1a
 1971 015e 34       		.uleb128 0x34
 1972 015f 00       		.byte	0
 1973 0160 03       		.uleb128 0x3
 1974 0161 08       		.uleb128 0x8
 1975 0162 3A       		.uleb128 0x3a
 1976 0163 0B       		.uleb128 0xb
 1977 0164 3B       		.uleb128 0x3b
 1978 0165 0B       		.uleb128 0xb
ARM GAS  /tmp/cccp5Acz.s 			page 36


 1979 0166 49       		.uleb128 0x49
 1980 0167 13       		.uleb128 0x13
 1981 0168 02       		.uleb128 0x2
 1982 0169 06       		.uleb128 0x6
 1983 016a 00       		.byte	0
 1984 016b 00       		.byte	0
 1985 016c 1B       		.uleb128 0x1b
 1986 016d 1D       		.uleb128 0x1d
 1987 016e 01       		.byte	0x1
 1988 016f 31       		.uleb128 0x31
 1989 0170 13       		.uleb128 0x13
 1990 0171 52       		.uleb128 0x52
 1991 0172 01       		.uleb128 0x1
 1992 0173 55       		.uleb128 0x55
 1993 0174 06       		.uleb128 0x6
 1994 0175 58       		.uleb128 0x58
 1995 0176 0B       		.uleb128 0xb
 1996 0177 59       		.uleb128 0x59
 1997 0178 0B       		.uleb128 0xb
 1998 0179 01       		.uleb128 0x1
 1999 017a 13       		.uleb128 0x13
 2000 017b 00       		.byte	0
 2001 017c 00       		.byte	0
 2002 017d 1C       		.uleb128 0x1c
 2003 017e 05       		.uleb128 0x5
 2004 017f 00       		.byte	0
 2005 0180 31       		.uleb128 0x31
 2006 0181 13       		.uleb128 0x13
 2007 0182 02       		.uleb128 0x2
 2008 0183 06       		.uleb128 0x6
 2009 0184 00       		.byte	0
 2010 0185 00       		.byte	0
 2011 0186 1D       		.uleb128 0x1d
 2012 0187 0B       		.uleb128 0xb
 2013 0188 01       		.byte	0x1
 2014 0189 55       		.uleb128 0x55
 2015 018a 06       		.uleb128 0x6
 2016 018b 00       		.byte	0
 2017 018c 00       		.byte	0
 2018 018d 1E       		.uleb128 0x1e
 2019 018e 34       		.uleb128 0x34
 2020 018f 00       		.byte	0
 2021 0190 31       		.uleb128 0x31
 2022 0191 13       		.uleb128 0x13
 2023 0192 02       		.uleb128 0x2
 2024 0193 06       		.uleb128 0x6
 2025 0194 00       		.byte	0
 2026 0195 00       		.byte	0
 2027 0196 1F       		.uleb128 0x1f
 2028 0197 0B       		.uleb128 0xb
 2029 0198 01       		.byte	0x1
 2030 0199 11       		.uleb128 0x11
 2031 019a 01       		.uleb128 0x1
 2032 019b 12       		.uleb128 0x12
 2033 019c 01       		.uleb128 0x1
 2034 019d 00       		.byte	0
 2035 019e 00       		.byte	0
ARM GAS  /tmp/cccp5Acz.s 			page 37


 2036 019f 20       		.uleb128 0x20
 2037 01a0 1D       		.uleb128 0x1d
 2038 01a1 01       		.byte	0x1
 2039 01a2 31       		.uleb128 0x31
 2040 01a3 13       		.uleb128 0x13
 2041 01a4 11       		.uleb128 0x11
 2042 01a5 01       		.uleb128 0x1
 2043 01a6 12       		.uleb128 0x12
 2044 01a7 01       		.uleb128 0x1
 2045 01a8 58       		.uleb128 0x58
 2046 01a9 0B       		.uleb128 0xb
 2047 01aa 59       		.uleb128 0x59
 2048 01ab 0B       		.uleb128 0xb
 2049 01ac 00       		.byte	0
 2050 01ad 00       		.byte	0
 2051 01ae 21       		.uleb128 0x21
 2052 01af 2E       		.uleb128 0x2e
 2053 01b0 01       		.byte	0x1
 2054 01b1 3F       		.uleb128 0x3f
 2055 01b2 0C       		.uleb128 0xc
 2056 01b3 03       		.uleb128 0x3
 2057 01b4 0E       		.uleb128 0xe
 2058 01b5 3A       		.uleb128 0x3a
 2059 01b6 0B       		.uleb128 0xb
 2060 01b7 3B       		.uleb128 0x3b
 2061 01b8 0B       		.uleb128 0xb
 2062 01b9 27       		.uleb128 0x27
 2063 01ba 0C       		.uleb128 0xc
 2064 01bb 49       		.uleb128 0x49
 2065 01bc 13       		.uleb128 0x13
 2066 01bd 11       		.uleb128 0x11
 2067 01be 01       		.uleb128 0x1
 2068 01bf 12       		.uleb128 0x12
 2069 01c0 01       		.uleb128 0x1
 2070 01c1 40       		.uleb128 0x40
 2071 01c2 06       		.uleb128 0x6
 2072 01c3 01       		.uleb128 0x1
 2073 01c4 13       		.uleb128 0x13
 2074 01c5 00       		.byte	0
 2075 01c6 00       		.byte	0
 2076 01c7 22       		.uleb128 0x22
 2077 01c8 1D       		.uleb128 0x1d
 2078 01c9 01       		.byte	0x1
 2079 01ca 31       		.uleb128 0x31
 2080 01cb 13       		.uleb128 0x13
 2081 01cc 52       		.uleb128 0x52
 2082 01cd 01       		.uleb128 0x1
 2083 01ce 55       		.uleb128 0x55
 2084 01cf 06       		.uleb128 0x6
 2085 01d0 58       		.uleb128 0x58
 2086 01d1 0B       		.uleb128 0xb
 2087 01d2 59       		.uleb128 0x59
 2088 01d3 0B       		.uleb128 0xb
 2089 01d4 00       		.byte	0
 2090 01d5 00       		.byte	0
 2091 01d6 23       		.uleb128 0x23
 2092 01d7 05       		.uleb128 0x5
ARM GAS  /tmp/cccp5Acz.s 			page 38


 2093 01d8 00       		.byte	0
 2094 01d9 31       		.uleb128 0x31
 2095 01da 13       		.uleb128 0x13
 2096 01db 02       		.uleb128 0x2
 2097 01dc 0A       		.uleb128 0xa
 2098 01dd 00       		.byte	0
 2099 01de 00       		.byte	0
 2100 01df 24       		.uleb128 0x24
 2101 01e0 34       		.uleb128 0x34
 2102 01e1 00       		.byte	0
 2103 01e2 03       		.uleb128 0x3
 2104 01e3 08       		.uleb128 0x8
 2105 01e4 3A       		.uleb128 0x3a
 2106 01e5 0B       		.uleb128 0xb
 2107 01e6 3B       		.uleb128 0x3b
 2108 01e7 0B       		.uleb128 0xb
 2109 01e8 49       		.uleb128 0x49
 2110 01e9 13       		.uleb128 0x13
 2111 01ea 02       		.uleb128 0x2
 2112 01eb 0A       		.uleb128 0xa
 2113 01ec 00       		.byte	0
 2114 01ed 00       		.byte	0
 2115 01ee 25       		.uleb128 0x25
 2116 01ef 2E       		.uleb128 0x2e
 2117 01f0 01       		.byte	0x1
 2118 01f1 3F       		.uleb128 0x3f
 2119 01f2 0C       		.uleb128 0xc
 2120 01f3 03       		.uleb128 0x3
 2121 01f4 0E       		.uleb128 0xe
 2122 01f5 3A       		.uleb128 0x3a
 2123 01f6 0B       		.uleb128 0xb
 2124 01f7 3B       		.uleb128 0x3b
 2125 01f8 05       		.uleb128 0x5
 2126 01f9 27       		.uleb128 0x27
 2127 01fa 0C       		.uleb128 0xc
 2128 01fb 49       		.uleb128 0x49
 2129 01fc 13       		.uleb128 0x13
 2130 01fd 11       		.uleb128 0x11
 2131 01fe 01       		.uleb128 0x1
 2132 01ff 12       		.uleb128 0x12
 2133 0200 01       		.uleb128 0x1
 2134 0201 40       		.uleb128 0x40
 2135 0202 06       		.uleb128 0x6
 2136 0203 01       		.uleb128 0x1
 2137 0204 13       		.uleb128 0x13
 2138 0205 00       		.byte	0
 2139 0206 00       		.byte	0
 2140 0207 26       		.uleb128 0x26
 2141 0208 05       		.uleb128 0x5
 2142 0209 00       		.byte	0
 2143 020a 03       		.uleb128 0x3
 2144 020b 08       		.uleb128 0x8
 2145 020c 3A       		.uleb128 0x3a
 2146 020d 0B       		.uleb128 0xb
 2147 020e 3B       		.uleb128 0x3b
 2148 020f 05       		.uleb128 0x5
 2149 0210 49       		.uleb128 0x49
ARM GAS  /tmp/cccp5Acz.s 			page 39


 2150 0211 13       		.uleb128 0x13
 2151 0212 02       		.uleb128 0x2
 2152 0213 06       		.uleb128 0x6
 2153 0214 00       		.byte	0
 2154 0215 00       		.byte	0
 2155 0216 27       		.uleb128 0x27
 2156 0217 05       		.uleb128 0x5
 2157 0218 00       		.byte	0
 2158 0219 03       		.uleb128 0x3
 2159 021a 0E       		.uleb128 0xe
 2160 021b 3A       		.uleb128 0x3a
 2161 021c 0B       		.uleb128 0xb
 2162 021d 3B       		.uleb128 0x3b
 2163 021e 05       		.uleb128 0x5
 2164 021f 49       		.uleb128 0x49
 2165 0220 13       		.uleb128 0x13
 2166 0221 02       		.uleb128 0x2
 2167 0222 06       		.uleb128 0x6
 2168 0223 00       		.byte	0
 2169 0224 00       		.byte	0
 2170 0225 28       		.uleb128 0x28
 2171 0226 34       		.uleb128 0x34
 2172 0227 00       		.byte	0
 2173 0228 03       		.uleb128 0x3
 2174 0229 08       		.uleb128 0x8
 2175 022a 3A       		.uleb128 0x3a
 2176 022b 0B       		.uleb128 0xb
 2177 022c 3B       		.uleb128 0x3b
 2178 022d 05       		.uleb128 0x5
 2179 022e 49       		.uleb128 0x49
 2180 022f 13       		.uleb128 0x13
 2181 0230 02       		.uleb128 0x2
 2182 0231 06       		.uleb128 0x6
 2183 0232 00       		.byte	0
 2184 0233 00       		.byte	0
 2185 0234 29       		.uleb128 0x29
 2186 0235 1D       		.uleb128 0x1d
 2187 0236 01       		.byte	0x1
 2188 0237 31       		.uleb128 0x31
 2189 0238 13       		.uleb128 0x13
 2190 0239 52       		.uleb128 0x52
 2191 023a 01       		.uleb128 0x1
 2192 023b 55       		.uleb128 0x55
 2193 023c 06       		.uleb128 0x6
 2194 023d 58       		.uleb128 0x58
 2195 023e 0B       		.uleb128 0xb
 2196 023f 59       		.uleb128 0x59
 2197 0240 05       		.uleb128 0x5
 2198 0241 00       		.byte	0
 2199 0242 00       		.byte	0
 2200 0243 2A       		.uleb128 0x2a
 2201 0244 05       		.uleb128 0x5
 2202 0245 00       		.byte	0
 2203 0246 03       		.uleb128 0x3
 2204 0247 0E       		.uleb128 0xe
 2205 0248 3A       		.uleb128 0x3a
 2206 0249 0B       		.uleb128 0xb
ARM GAS  /tmp/cccp5Acz.s 			page 40


 2207 024a 3B       		.uleb128 0x3b
 2208 024b 0B       		.uleb128 0xb
 2209 024c 49       		.uleb128 0x49
 2210 024d 13       		.uleb128 0x13
 2211 024e 02       		.uleb128 0x2
 2212 024f 06       		.uleb128 0x6
 2213 0250 00       		.byte	0
 2214 0251 00       		.byte	0
 2215 0252 2B       		.uleb128 0x2b
 2216 0253 34       		.uleb128 0x34
 2217 0254 00       		.byte	0
 2218 0255 03       		.uleb128 0x3
 2219 0256 0E       		.uleb128 0xe
 2220 0257 3A       		.uleb128 0x3a
 2221 0258 0B       		.uleb128 0xb
 2222 0259 3B       		.uleb128 0x3b
 2223 025a 0B       		.uleb128 0xb
 2224 025b 49       		.uleb128 0x49
 2225 025c 13       		.uleb128 0x13
 2226 025d 3F       		.uleb128 0x3f
 2227 025e 0C       		.uleb128 0xc
 2228 025f 3C       		.uleb128 0x3c
 2229 0260 0C       		.uleb128 0xc
 2230 0261 00       		.byte	0
 2231 0262 00       		.byte	0
 2232 0263 00       		.byte	0
 2233              		.section	.debug_loc,"",%progbits
 2234              	.Ldebug_loc0:
 2235              	.LLST0:
 2236 0000 00000000 		.4byte	.LFB8
 2237 0004 02000000 		.4byte	.LCFI0
 2238 0008 0200     		.2byte	0x2
 2239 000a 7D       		.byte	0x7d
 2240 000b 00       		.sleb128 0
 2241 000c 02000000 		.4byte	.LCFI0
 2242 0010 24000000 		.4byte	.LFE8
 2243 0014 0200     		.2byte	0x2
 2244 0016 7D       		.byte	0x7d
 2245 0017 08       		.sleb128 8
 2246 0018 00000000 		.4byte	0
 2247 001c 00000000 		.4byte	0
 2248              	.LLST1:
 2249 0020 00000000 		.4byte	.LVL1
 2250 0024 0C000000 		.4byte	.LVL4
 2251 0028 0100     		.2byte	0x1
 2252 002a 50       		.byte	0x50
 2253 002b 0C000000 		.4byte	.LVL4
 2254 002f 1B000000 		.4byte	.LVL7-1
 2255 0033 0100     		.2byte	0x1
 2256 0035 52       		.byte	0x52
 2257 0036 00000000 		.4byte	0
 2258 003a 00000000 		.4byte	0
 2259              	.LLST2:
 2260 003e 0A000000 		.4byte	.LVL3
 2261 0042 12000000 		.4byte	.LVL6
 2262 0046 0100     		.2byte	0x1
 2263 0048 53       		.byte	0x53
ARM GAS  /tmp/cccp5Acz.s 			page 41


 2264 0049 1C000000 		.4byte	.LVL7
 2265 004d 1E000000 		.4byte	.LVL8
 2266 0051 0100     		.2byte	0x1
 2267 0053 53       		.byte	0x53
 2268 0054 00000000 		.4byte	0
 2269 0058 00000000 		.4byte	0
 2270              	.LLST3:
 2271 005c 10000000 		.4byte	.LVL5
 2272 0060 1B000000 		.4byte	.LVL7-1
 2273 0064 0100     		.2byte	0x1
 2274 0066 52       		.byte	0x52
 2275 0067 00000000 		.4byte	0
 2276 006b 00000000 		.4byte	0
 2277              	.LLST4:
 2278 006f 10000000 		.4byte	.LVL5
 2279 0073 1B000000 		.4byte	.LVL7-1
 2280 0077 0200     		.2byte	0x2
 2281 0079 72       		.byte	0x72
 2282 007a 00       		.sleb128 0
 2283 007b 00000000 		.4byte	0
 2284 007f 00000000 		.4byte	0
 2285              	.LLST5:
 2286 0083 22000000 		.4byte	.LVL9
 2287 0087 24000000 		.4byte	.LFE8
 2288 008b 0100     		.2byte	0x1
 2289 008d 53       		.byte	0x53
 2290 008e 00000000 		.4byte	0
 2291 0092 00000000 		.4byte	0
 2292              	.LLST6:
 2293 0096 00000000 		.4byte	.LFB9
 2294 009a 02000000 		.4byte	.LCFI1
 2295 009e 0200     		.2byte	0x2
 2296 00a0 7D       		.byte	0x7d
 2297 00a1 00       		.sleb128 0
 2298 00a2 02000000 		.4byte	.LCFI1
 2299 00a6 1A000000 		.4byte	.LFE9
 2300 00aa 0200     		.2byte	0x2
 2301 00ac 7D       		.byte	0x7d
 2302 00ad 08       		.sleb128 8
 2303 00ae 00000000 		.4byte	0
 2304 00b2 00000000 		.4byte	0
 2305              	.LLST7:
 2306 00b6 00000000 		.4byte	.LVL10
 2307 00ba 06000000 		.4byte	.LVL11
 2308 00be 0100     		.2byte	0x1
 2309 00c0 50       		.byte	0x50
 2310 00c1 06000000 		.4byte	.LVL11
 2311 00c5 13000000 		.4byte	.LVL13-1
 2312 00c9 0100     		.2byte	0x1
 2313 00cb 53       		.byte	0x53
 2314 00cc 00000000 		.4byte	0
 2315 00d0 00000000 		.4byte	0
 2316              	.LLST8:
 2317 00d4 0A000000 		.4byte	.LVL12
 2318 00d8 13000000 		.4byte	.LVL13-1
 2319 00dc 0100     		.2byte	0x1
 2320 00de 53       		.byte	0x53
ARM GAS  /tmp/cccp5Acz.s 			page 42


 2321 00df 00000000 		.4byte	0
 2322 00e3 00000000 		.4byte	0
 2323              	.LLST9:
 2324 00e7 0A000000 		.4byte	.LVL12
 2325 00eb 13000000 		.4byte	.LVL13-1
 2326 00ef 0200     		.2byte	0x2
 2327 00f1 73       		.byte	0x73
 2328 00f2 00       		.sleb128 0
 2329 00f3 00000000 		.4byte	0
 2330 00f7 00000000 		.4byte	0
 2331              	.LLST10:
 2332 00fb 00000000 		.4byte	.LFB11
 2333 00ff 02000000 		.4byte	.LCFI2
 2334 0103 0200     		.2byte	0x2
 2335 0105 7D       		.byte	0x7d
 2336 0106 00       		.sleb128 0
 2337 0107 02000000 		.4byte	.LCFI2
 2338 010b 22000000 		.4byte	.LFE11
 2339 010f 0200     		.2byte	0x2
 2340 0111 7D       		.byte	0x7d
 2341 0112 10       		.sleb128 16
 2342 0113 00000000 		.4byte	0
 2343 0117 00000000 		.4byte	0
 2344              	.LLST11:
 2345 011b 00000000 		.4byte	.LVL14
 2346 011f 06000000 		.4byte	.LVL15
 2347 0123 0100     		.2byte	0x1
 2348 0125 50       		.byte	0x50
 2349 0126 06000000 		.4byte	.LVL15
 2350 012a 22000000 		.4byte	.LFE11
 2351 012e 0100     		.2byte	0x1
 2352 0130 54       		.byte	0x54
 2353 0131 00000000 		.4byte	0
 2354 0135 00000000 		.4byte	0
 2355              	.LLST12:
 2356 0139 0E000000 		.4byte	.LVL16
 2357 013d 20000000 		.4byte	.LVL18
 2358 0141 0100     		.2byte	0x1
 2359 0143 54       		.byte	0x54
 2360 0144 00000000 		.4byte	0
 2361 0148 00000000 		.4byte	0
 2362              	.LLST13:
 2363 014c 0E000000 		.4byte	.LVL16
 2364 0150 17000000 		.4byte	.LVL17-1
 2365 0154 0100     		.2byte	0x1
 2366 0156 50       		.byte	0x50
 2367 0157 00000000 		.4byte	0
 2368 015b 00000000 		.4byte	0
 2369              	.LLST14:
 2370 015f 00000000 		.4byte	.LFB10
 2371 0163 02000000 		.4byte	.LCFI3
 2372 0167 0200     		.2byte	0x2
 2373 0169 7D       		.byte	0x7d
 2374 016a 00       		.sleb128 0
 2375 016b 02000000 		.4byte	.LCFI3
 2376 016f 18000000 		.4byte	.LFE10
 2377 0173 0200     		.2byte	0x2
ARM GAS  /tmp/cccp5Acz.s 			page 43


 2378 0175 7D       		.byte	0x7d
 2379 0176 08       		.sleb128 8
 2380 0177 00000000 		.4byte	0
 2381 017b 00000000 		.4byte	0
 2382              	.LLST15:
 2383 017f 00000000 		.4byte	.LVL19
 2384 0183 0B000000 		.4byte	.LVL22-1
 2385 0187 0100     		.2byte	0x1
 2386 0189 50       		.byte	0x50
 2387 018a 00000000 		.4byte	0
 2388 018e 00000000 		.4byte	0
 2389              	.LLST16:
 2390 0192 08000000 		.4byte	.LVL21
 2391 0196 0B000000 		.4byte	.LVL22-1
 2392 019a 0100     		.2byte	0x1
 2393 019c 53       		.byte	0x53
 2394 019d 00000000 		.4byte	0
 2395 01a1 00000000 		.4byte	0
 2396              	.LLST17:
 2397 01a5 16000000 		.4byte	.LVL24
 2398 01a9 18000000 		.4byte	.LFE10
 2399 01ad 0100     		.2byte	0x1
 2400 01af 53       		.byte	0x53
 2401 01b0 00000000 		.4byte	0
 2402 01b4 00000000 		.4byte	0
 2403              	.LLST18:
 2404 01b8 00000000 		.4byte	.LFB13
 2405 01bc 0A000000 		.4byte	.LCFI4
 2406 01c0 0200     		.2byte	0x2
 2407 01c2 7D       		.byte	0x7d
 2408 01c3 00       		.sleb128 0
 2409 01c4 0A000000 		.4byte	.LCFI4
 2410 01c8 4A000000 		.4byte	.LFE13
 2411 01cc 0200     		.2byte	0x2
 2412 01ce 7D       		.byte	0x7d
 2413 01cf 10       		.sleb128 16
 2414 01d0 00000000 		.4byte	0
 2415 01d4 00000000 		.4byte	0
 2416              	.LLST19:
 2417 01d8 00000000 		.4byte	.LVL25
 2418 01dc 11000000 		.4byte	.LVL27-1
 2419 01e0 0100     		.2byte	0x1
 2420 01e2 50       		.byte	0x50
 2421 01e3 11000000 		.4byte	.LVL27-1
 2422 01e7 4A000000 		.4byte	.LFE13
 2423 01eb 0100     		.2byte	0x1
 2424 01ed 55       		.byte	0x55
 2425 01ee 00000000 		.4byte	0
 2426 01f2 00000000 		.4byte	0
 2427              	.LLST20:
 2428 01f6 0E000000 		.4byte	.LVL26
 2429 01fa 11000000 		.4byte	.LVL27-1
 2430 01fe 0200     		.2byte	0x2
 2431 0200 73       		.byte	0x73
 2432 0201 18       		.sleb128 24
 2433 0202 11000000 		.4byte	.LVL27-1
 2434 0206 3C000000 		.4byte	.LVL33
ARM GAS  /tmp/cccp5Acz.s 			page 44


 2435 020a 0100     		.2byte	0x1
 2436 020c 54       		.byte	0x54
 2437 020d 46000000 		.4byte	.LVL34
 2438 0211 4A000000 		.4byte	.LFE13
 2439 0215 0100     		.2byte	0x1
 2440 0217 54       		.byte	0x54
 2441 0218 00000000 		.4byte	0
 2442 021c 00000000 		.4byte	0
 2443              	.LLST21:
 2444 0220 16000000 		.4byte	.LVL28
 2445 0224 1C000000 		.4byte	.LVL30
 2446 0228 0100     		.2byte	0x1
 2447 022a 50       		.byte	0x50
 2448 022b 1C000000 		.4byte	.LVL30
 2449 022f 4A000000 		.4byte	.LFE13
 2450 0233 0100     		.2byte	0x1
 2451 0235 56       		.byte	0x56
 2452 0236 00000000 		.4byte	0
 2453 023a 00000000 		.4byte	0
 2454              	.LLST22:
 2455 023e 3C000000 		.4byte	.LVL33
 2456 0242 46000000 		.4byte	.LVL34
 2457 0246 0100     		.2byte	0x1
 2458 0248 54       		.byte	0x54
 2459 0249 00000000 		.4byte	0
 2460 024d 00000000 		.4byte	0
 2461              	.LLST23:
 2462 0251 18000000 		.4byte	.LVL29
 2463 0255 3C000000 		.4byte	.LVL33
 2464 0259 0100     		.2byte	0x1
 2465 025b 54       		.byte	0x54
 2466 025c 46000000 		.4byte	.LVL34
 2467 0260 4A000000 		.4byte	.LFE13
 2468 0264 0100     		.2byte	0x1
 2469 0266 54       		.byte	0x54
 2470 0267 00000000 		.4byte	0
 2471 026b 00000000 		.4byte	0
 2472              	.LLST24:
 2473 026f 18000000 		.4byte	.LVL29
 2474 0273 1C000000 		.4byte	.LVL30
 2475 0277 0100     		.2byte	0x1
 2476 0279 55       		.byte	0x55
 2477 027a 1C000000 		.4byte	.LVL30
 2478 027e 2C000000 		.4byte	.LVL32
 2479 0282 0100     		.2byte	0x1
 2480 0284 52       		.byte	0x52
 2481 0285 46000000 		.4byte	.LVL34
 2482 0289 4A000000 		.4byte	.LFE13
 2483 028d 0100     		.2byte	0x1
 2484 028f 52       		.byte	0x52
 2485 0290 00000000 		.4byte	0
 2486 0294 00000000 		.4byte	0
 2487              	.LLST25:
 2488 0298 00000000 		.4byte	.LFB12
 2489 029c 02000000 		.4byte	.LCFI5
 2490 02a0 0200     		.2byte	0x2
 2491 02a2 7D       		.byte	0x7d
ARM GAS  /tmp/cccp5Acz.s 			page 45


 2492 02a3 00       		.sleb128 0
 2493 02a4 02000000 		.4byte	.LCFI5
 2494 02a8 14000000 		.4byte	.LFE12
 2495 02ac 0200     		.2byte	0x2
 2496 02ae 7D       		.byte	0x7d
 2497 02af 08       		.sleb128 8
 2498 02b0 00000000 		.4byte	0
 2499 02b4 00000000 		.4byte	0
 2500              	.LLST26:
 2501 02b8 00000000 		.4byte	.LVL35
 2502 02bc 0B000000 		.4byte	.LVL38-1
 2503 02c0 0100     		.2byte	0x1
 2504 02c2 50       		.byte	0x50
 2505 02c3 00000000 		.4byte	0
 2506 02c7 00000000 		.4byte	0
 2507              	.LLST27:
 2508 02cb 08000000 		.4byte	.LVL37
 2509 02cf 0B000000 		.4byte	.LVL38-1
 2510 02d3 0100     		.2byte	0x1
 2511 02d5 53       		.byte	0x53
 2512 02d6 00000000 		.4byte	0
 2513 02da 00000000 		.4byte	0
 2514              	.LLST28:
 2515 02de 12000000 		.4byte	.LVL40
 2516 02e2 14000000 		.4byte	.LFE12
 2517 02e6 0100     		.2byte	0x1
 2518 02e8 53       		.byte	0x53
 2519 02e9 00000000 		.4byte	0
 2520 02ed 00000000 		.4byte	0
 2521              	.LLST29:
 2522 02f1 00000000 		.4byte	.LFB15
 2523 02f5 02000000 		.4byte	.LCFI6
 2524 02f9 0200     		.2byte	0x2
 2525 02fb 7D       		.byte	0x7d
 2526 02fc 00       		.sleb128 0
 2527 02fd 02000000 		.4byte	.LCFI6
 2528 0301 52000000 		.4byte	.LFE15
 2529 0305 0200     		.2byte	0x2
 2530 0307 7D       		.byte	0x7d
 2531 0308 18       		.sleb128 24
 2532 0309 00000000 		.4byte	0
 2533 030d 00000000 		.4byte	0
 2534              	.LLST30:
 2535 0311 00000000 		.4byte	.LVL41
 2536 0315 09000000 		.4byte	.LVL42-1
 2537 0319 0100     		.2byte	0x1
 2538 031b 50       		.byte	0x50
 2539 031c 09000000 		.4byte	.LVL42-1
 2540 0320 2E000000 		.4byte	.LVL48
 2541 0324 0100     		.2byte	0x1
 2542 0326 54       		.byte	0x54
 2543 0327 4E000000 		.4byte	.LVL52
 2544 032b 52000000 		.4byte	.LFE15
 2545 032f 0100     		.2byte	0x1
 2546 0331 54       		.byte	0x54
 2547 0332 00000000 		.4byte	0
 2548 0336 00000000 		.4byte	0
ARM GAS  /tmp/cccp5Acz.s 			page 46


 2549              	.LLST31:
 2550 033a 00000000 		.4byte	.LVL41
 2551 033e 09000000 		.4byte	.LVL42-1
 2552 0342 0100     		.2byte	0x1
 2553 0344 51       		.byte	0x51
 2554 0345 09000000 		.4byte	.LVL42-1
 2555 0349 52000000 		.4byte	.LFE15
 2556 034d 0100     		.2byte	0x1
 2557 034f 56       		.byte	0x56
 2558 0350 00000000 		.4byte	0
 2559 0354 00000000 		.4byte	0
 2560              	.LLST32:
 2561 0358 14000000 		.4byte	.LVL43
 2562 035c 16000000 		.4byte	.LVL44
 2563 0360 0100     		.2byte	0x1
 2564 0362 50       		.byte	0x50
 2565 0363 16000000 		.4byte	.LVL44
 2566 0367 52000000 		.4byte	.LFE15
 2567 036b 0100     		.2byte	0x1
 2568 036d 55       		.byte	0x55
 2569 036e 00000000 		.4byte	0
 2570 0372 00000000 		.4byte	0
 2571              	.LLST33:
 2572 0376 40000000 		.4byte	.LVL50
 2573 037a 42000000 		.4byte	.LVL51
 2574 037e 0100     		.2byte	0x1
 2575 0380 50       		.byte	0x50
 2576 0381 42000000 		.4byte	.LVL51
 2577 0385 4E000000 		.4byte	.LVL52
 2578 0389 0100     		.2byte	0x1
 2579 038b 54       		.byte	0x54
 2580 038c 00000000 		.4byte	0
 2581 0390 00000000 		.4byte	0
 2582              	.LLST34:
 2583 0394 16000000 		.4byte	.LVL44
 2584 0398 2E000000 		.4byte	.LVL48
 2585 039c 0100     		.2byte	0x1
 2586 039e 54       		.byte	0x54
 2587 039f 4E000000 		.4byte	.LVL52
 2588 03a3 52000000 		.4byte	.LFE15
 2589 03a7 0100     		.2byte	0x1
 2590 03a9 54       		.byte	0x54
 2591 03aa 00000000 		.4byte	0
 2592 03ae 00000000 		.4byte	0
 2593              	.LLST35:
 2594 03b2 16000000 		.4byte	.LVL44
 2595 03b6 1A000000 		.4byte	.LVL45
 2596 03ba 0200     		.2byte	0x2
 2597 03bc 73       		.byte	0x73
 2598 03bd 18       		.sleb128 24
 2599 03be 4E000000 		.4byte	.LVL52
 2600 03c2 52000000 		.4byte	.LFE15
 2601 03c6 0100     		.2byte	0x1
 2602 03c8 50       		.byte	0x50
 2603 03c9 00000000 		.4byte	0
 2604 03cd 00000000 		.4byte	0
 2605              	.LLST36:
ARM GAS  /tmp/cccp5Acz.s 			page 47


 2606 03d1 16000000 		.4byte	.LVL44
 2607 03d5 1E000000 		.4byte	.LVL46
 2608 03d9 0100     		.2byte	0x1
 2609 03db 54       		.byte	0x54
 2610 03dc 1E000000 		.4byte	.LVL46
 2611 03e0 3D000000 		.4byte	.LVL49-1
 2612 03e4 0100     		.2byte	0x1
 2613 03e6 53       		.byte	0x53
 2614 03e7 4E000000 		.4byte	.LVL52
 2615 03eb 52000000 		.4byte	.LFE15
 2616 03ef 0100     		.2byte	0x1
 2617 03f1 53       		.byte	0x53
 2618 03f2 00000000 		.4byte	0
 2619 03f6 00000000 		.4byte	0
 2620              	.LLST37:
 2621 03fa 00000000 		.4byte	.LFB14
 2622 03fe 02000000 		.4byte	.LCFI7
 2623 0402 0200     		.2byte	0x2
 2624 0404 7D       		.byte	0x7d
 2625 0405 00       		.sleb128 0
 2626 0406 02000000 		.4byte	.LCFI7
 2627 040a 14000000 		.4byte	.LFE14
 2628 040e 0200     		.2byte	0x2
 2629 0410 7D       		.byte	0x7d
 2630 0411 08       		.sleb128 8
 2631 0412 00000000 		.4byte	0
 2632 0416 00000000 		.4byte	0
 2633              	.LLST38:
 2634 041a 00000000 		.4byte	.LVL53
 2635 041e 0B000000 		.4byte	.LVL56-1
 2636 0422 0100     		.2byte	0x1
 2637 0424 50       		.byte	0x50
 2638 0425 00000000 		.4byte	0
 2639 0429 00000000 		.4byte	0
 2640              	.LLST39:
 2641 042d 00000000 		.4byte	.LVL53
 2642 0431 0B000000 		.4byte	.LVL56-1
 2643 0435 0100     		.2byte	0x1
 2644 0437 51       		.byte	0x51
 2645 0438 00000000 		.4byte	0
 2646 043c 00000000 		.4byte	0
 2647              	.LLST40:
 2648 0440 08000000 		.4byte	.LVL55
 2649 0444 0B000000 		.4byte	.LVL56-1
 2650 0448 0100     		.2byte	0x1
 2651 044a 53       		.byte	0x53
 2652 044b 00000000 		.4byte	0
 2653 044f 00000000 		.4byte	0
 2654              	.LLST41:
 2655 0453 12000000 		.4byte	.LVL58
 2656 0457 14000000 		.4byte	.LFE14
 2657 045b 0100     		.2byte	0x1
 2658 045d 53       		.byte	0x53
 2659 045e 00000000 		.4byte	0
 2660 0462 00000000 		.4byte	0
 2661              		.section	.debug_aranges,"",%progbits
 2662 0000 5C000000 		.4byte	0x5c
ARM GAS  /tmp/cccp5Acz.s 			page 48


 2663 0004 0200     		.2byte	0x2
 2664 0006 00000000 		.4byte	.Ldebug_info0
 2665 000a 04       		.byte	0x4
 2666 000b 00       		.byte	0
 2667 000c 0000     		.2byte	0
 2668 000e 0000     		.2byte	0
 2669 0010 00000000 		.4byte	.LFB7
 2670 0014 06000000 		.4byte	.LFE7-.LFB7
 2671 0018 00000000 		.4byte	.LFB8
 2672 001c 24000000 		.4byte	.LFE8-.LFB8
 2673 0020 00000000 		.4byte	.LFB9
 2674 0024 1A000000 		.4byte	.LFE9-.LFB9
 2675 0028 00000000 		.4byte	.LFB11
 2676 002c 22000000 		.4byte	.LFE11-.LFB11
 2677 0030 00000000 		.4byte	.LFB10
 2678 0034 18000000 		.4byte	.LFE10-.LFB10
 2679 0038 00000000 		.4byte	.LFB13
 2680 003c 4A000000 		.4byte	.LFE13-.LFB13
 2681 0040 00000000 		.4byte	.LFB12
 2682 0044 14000000 		.4byte	.LFE12-.LFB12
 2683 0048 00000000 		.4byte	.LFB15
 2684 004c 52000000 		.4byte	.LFE15-.LFB15
 2685 0050 00000000 		.4byte	.LFB14
 2686 0054 14000000 		.4byte	.LFE14-.LFB14
 2687 0058 00000000 		.4byte	0
 2688 005c 00000000 		.4byte	0
 2689              		.section	.debug_ranges,"",%progbits
 2690              	.Ldebug_ranges0:
 2691 0000 10000000 		.4byte	.LBB15
 2692 0004 12000000 		.4byte	.LBE15
 2693 0008 14000000 		.4byte	.LBB18
 2694 000c 18000000 		.4byte	.LBE18
 2695 0010 00000000 		.4byte	0
 2696 0014 00000000 		.4byte	0
 2697 0018 10000000 		.4byte	.LBB16
 2698 001c 12000000 		.4byte	.LBE16
 2699 0020 14000000 		.4byte	.LBB17
 2700 0024 18000000 		.4byte	.LBE17
 2701 0028 00000000 		.4byte	0
 2702 002c 00000000 		.4byte	0
 2703 0030 1C000000 		.4byte	.LBB26
 2704 0034 34000000 		.4byte	.LBE26
 2705 0038 46000000 		.4byte	.LBB29
 2706 003c 4A000000 		.4byte	.LBE29
 2707 0040 00000000 		.4byte	0
 2708 0044 00000000 		.4byte	0
 2709 0048 1C000000 		.4byte	.LBB27
 2710 004c 34000000 		.4byte	.LBE27
 2711 0050 46000000 		.4byte	.LBB28
 2712 0054 4A000000 		.4byte	.LBE28
 2713 0058 00000000 		.4byte	0
 2714 005c 00000000 		.4byte	0
 2715 0060 1E000000 		.4byte	.LBB32
 2716 0064 36000000 		.4byte	.LBE32
 2717 0068 4E000000 		.4byte	.LBB35
 2718 006c 52000000 		.4byte	.LBE35
 2719 0070 00000000 		.4byte	0
ARM GAS  /tmp/cccp5Acz.s 			page 49


 2720 0074 00000000 		.4byte	0
 2721 0078 1E000000 		.4byte	.LBB33
 2722 007c 36000000 		.4byte	.LBE33
 2723 0080 4E000000 		.4byte	.LBB34
 2724 0084 52000000 		.4byte	.LBE34
 2725 0088 00000000 		.4byte	0
 2726 008c 00000000 		.4byte	0
 2727 0090 00000000 		.4byte	.LFB7
 2728 0094 06000000 		.4byte	.LFE7
 2729 0098 00000000 		.4byte	.LFB8
 2730 009c 24000000 		.4byte	.LFE8
 2731 00a0 00000000 		.4byte	.LFB9
 2732 00a4 1A000000 		.4byte	.LFE9
 2733 00a8 00000000 		.4byte	.LFB11
 2734 00ac 22000000 		.4byte	.LFE11
 2735 00b0 00000000 		.4byte	.LFB10
 2736 00b4 18000000 		.4byte	.LFE10
 2737 00b8 00000000 		.4byte	.LFB13
 2738 00bc 4A000000 		.4byte	.LFE13
 2739 00c0 00000000 		.4byte	.LFB12
 2740 00c4 14000000 		.4byte	.LFE12
 2741 00c8 00000000 		.4byte	.LFB15
 2742 00cc 52000000 		.4byte	.LFE15
 2743 00d0 00000000 		.4byte	.LFB14
 2744 00d4 14000000 		.4byte	.LFE14
 2745 00d8 00000000 		.4byte	0
 2746 00dc 00000000 		.4byte	0
 2747              		.section	.debug_line,"",%progbits
 2748              	.Ldebug_line0:
 2749 0000 71020000 		.section	.debug_str,"MS",%progbits,1
 2749      02004301 
 2749      00000201 
 2749      FB0E0D00 
 2749      01010101 
 2750              	.LASF36:
 2751 0000 705F6D73 		.ascii	"p_msg\000"
 2751      6700
 2752              	.LASF64:
 2753 0006 6368436F 		.ascii	"chCondInit\000"
 2753      6E64496E 
 2753      697400
 2754              	.LASF59:
 2755 0011 7264796D 		.ascii	"rdymsg\000"
 2755      736700
 2756              	.LASF11:
 2757 0018 6C6F6E67 		.ascii	"long long unsigned int\000"
 2757      206C6F6E 
 2757      6720756E 
 2757      7369676E 
 2757      65642069 
 2758              	.LASF60:
 2759 002f 65786974 		.ascii	"exitcode\000"
 2759      636F6465 
 2759      00
 2760              	.LASF67:
 2761 0038 6368436F 		.ascii	"chCondBroadcastI\000"
 2761      6E644272 
ARM GAS  /tmp/cccp5Acz.s 			page 50


 2761      6F616463 
 2761      61737449 
 2761      00
 2762              	.LASF24:
 2763 0049 705F7072 		.ascii	"p_prio\000"
 2763      696F00
 2764              	.LASF10:
 2765 0050 6C6F6E67 		.ascii	"long long int\000"
 2765      206C6F6E 
 2765      6720696E 
 2765      7400
 2766              	.LASF1:
 2767 005e 7369676E 		.ascii	"signed char\000"
 2767      65642063 
 2767      68617200 
 2768              	.LASF40:
 2769 006a 705F6D70 		.ascii	"p_mpool\000"
 2769      6F6F6C00 
 2770              	.LASF54:
 2771 0072 6D5F7175 		.ascii	"m_queue\000"
 2771      65756500 
 2772              	.LASF16:
 2773 007a 74736C69 		.ascii	"tslices_t\000"
 2773      6365735F 
 2773      7400
 2774              	.LASF57:
 2775 0084 436F6E64 		.ascii	"CondVar\000"
 2775      56617200 
 2776              	.LASF7:
 2777 008c 6C6F6E67 		.ascii	"long int\000"
 2777      20696E74 
 2777      00
 2778              	.LASF14:
 2779 0095 74737461 		.ascii	"tstate_t\000"
 2779      74655F74 
 2779      00
 2780              	.LASF26:
 2781 009e 705F6E65 		.ascii	"p_newer\000"
 2781      77657200 
 2782              	.LASF77:
 2783 00a6 2F686F6D 		.ascii	"/home/lithium/Downloads/ChibiOS_2.6.8_PodioVirtual/"
 2783      652F6C69 
 2783      74686975 
 2783      6D2F446F 
 2783      776E6C6F 
 2784 00d9 506F6469 		.ascii	"PodioVirtual/src\000"
 2784      6F566972 
 2784      7475616C 
 2784      2F737263 
 2784      00
 2785              	.LASF49:
 2786 00ea 725F6E65 		.ascii	"r_newer\000"
 2786      77657200 
 2787              	.LASF43:
 2788 00f2 72656761 		.ascii	"regarm_t\000"
 2788      726D5F74 
 2788      00
ARM GAS  /tmp/cccp5Acz.s 			page 51


 2789              	.LASF76:
 2790 00fb 2E2E2F2E 		.ascii	"../../os/kernel/src/chcond.c\000"
 2790      2E2F6F73 
 2790      2F6B6572 
 2790      6E656C2F 
 2790      7372632F 
 2791              	.LASF65:
 2792 0118 6368436F 		.ascii	"chCondSignal\000"
 2792      6E645369 
 2792      676E616C 
 2792      00
 2793              	.LASF0:
 2794 0125 756E7369 		.ascii	"unsigned int\000"
 2794      676E6564 
 2794      20696E74 
 2794      00
 2795              	.LASF9:
 2796 0132 6C6F6E67 		.ascii	"long unsigned int\000"
 2796      20756E73 
 2796      69676E65 
 2796      6420696E 
 2796      7400
 2797              	.LASF45:
 2798 0144 636F6E74 		.ascii	"context\000"
 2798      65787400 
 2799              	.LASF4:
 2800 014c 73686F72 		.ascii	"short unsigned int\000"
 2800      7420756E 
 2800      7369676E 
 2800      65642069 
 2800      6E7400
 2801              	.LASF18:
 2802 015f 6D73675F 		.ascii	"msg_t\000"
 2802      7400
 2803              	.LASF79:
 2804 0165 7072696F 		.ascii	"prio_insert\000"
 2804      5F696E73 
 2804      65727400 
 2805              	.LASF13:
 2806 0171 746D6F64 		.ascii	"tmode_t\000"
 2806      655F7400 
 2807              	.LASF42:
 2808 0179 54687265 		.ascii	"ThreadsList\000"
 2808      6164734C 
 2808      69737400 
 2809              	.LASF19:
 2810 0185 6576656E 		.ascii	"eventmask_t\000"
 2810      746D6173 
 2810      6B5F7400 
 2811              	.LASF53:
 2812 0191 4D757465 		.ascii	"Mutex\000"
 2812      7800
 2813              	.LASF71:
 2814 0197 6368436F 		.ascii	"chCondWaitTimeoutS\000"
 2814      6E645761 
 2814      69745469 
 2814      6D656F75 
ARM GAS  /tmp/cccp5Acz.s 			page 52


 2814      745300
 2815              	.LASF27:
 2816 01aa 705F6F6C 		.ascii	"p_older\000"
 2816      64657200 
 2817              	.LASF48:
 2818 01b2 725F6374 		.ascii	"r_ctx\000"
 2818      7800
 2819              	.LASF41:
 2820 01b8 54687265 		.ascii	"ThreadsQueue\000"
 2820      61647351 
 2820      75657565 
 2820      00
 2821              	.LASF72:
 2822 01c5 74696D65 		.ascii	"time\000"
 2822      00
 2823              	.LASF51:
 2824 01ca 725F6375 		.ascii	"r_current\000"
 2824      7272656E 
 2824      7400
 2825              	.LASF50:
 2826 01d4 725F6F6C 		.ascii	"r_older\000"
 2826      64657200 
 2827              	.LASF68:
 2828 01dc 6368436F 		.ascii	"chCondBroadcast\000"
 2828      6E644272 
 2828      6F616463 
 2828      61737400 
 2829              	.LASF15:
 2830 01ec 74726566 		.ascii	"trefs_t\000"
 2830      735F7400 
 2831              	.LASF23:
 2832 01f4 705F7072 		.ascii	"p_prev\000"
 2832      657600
 2833              	.LASF17:
 2834 01fb 74707269 		.ascii	"tprio_t\000"
 2834      6F5F7400 
 2835              	.LASF66:
 2836 0203 6368436F 		.ascii	"chCondSignalI\000"
 2836      6E645369 
 2836      676E616C 
 2836      4900
 2837              	.LASF12:
 2838 0211 5F426F6F 		.ascii	"_Bool\000"
 2838      6C00
 2839              	.LASF6:
 2840 0217 696E7433 		.ascii	"int32_t\000"
 2840      325F7400 
 2841              	.LASF2:
 2842 021f 756E7369 		.ascii	"unsigned char\000"
 2842      676E6564 
 2842      20636861 
 2842      7200
 2843              	.LASF38:
 2844 022d 705F6D74 		.ascii	"p_mtxlist\000"
 2844      786C6973 
 2844      7400
 2845              	.LASF3:
ARM GAS  /tmp/cccp5Acz.s 			page 53


 2846 0237 73686F72 		.ascii	"short int\000"
 2846      7420696E 
 2846      7400
 2847              	.LASF29:
 2848 0241 705F7374 		.ascii	"p_state\000"
 2848      61746500 
 2849              	.LASF32:
 2850 0249 705F7072 		.ascii	"p_preempt\000"
 2850      65656D70 
 2850      7400
 2851              	.LASF47:
 2852 0253 725F7072 		.ascii	"r_prio\000"
 2852      696F00
 2853              	.LASF62:
 2854 025a 65776D61 		.ascii	"ewmask\000"
 2854      736B00
 2855              	.LASF22:
 2856 0261 705F6E65 		.ascii	"p_next\000"
 2856      787400
 2857              	.LASF30:
 2858 0268 705F666C 		.ascii	"p_flags\000"
 2858      61677300 
 2859              	.LASF21:
 2860 0270 54687265 		.ascii	"Thread\000"
 2860      616400
 2861              	.LASF58:
 2862 0277 635F7175 		.ascii	"c_queue\000"
 2862      65756500 
 2863              	.LASF37:
 2864 027f 705F6570 		.ascii	"p_epending\000"
 2864      656E6469 
 2864      6E6700
 2865              	.LASF8:
 2866 028a 75696E74 		.ascii	"uint32_t\000"
 2866      33325F74 
 2866      00
 2867              	.LASF46:
 2868 0293 725F7175 		.ascii	"r_queue\000"
 2868      65756500 
 2869              	.LASF75:
 2870 029b 474E5520 		.ascii	"GNU C 4.6.1\000"
 2870      4320342E 
 2870      362E3100 
 2871              	.LASF63:
 2872 02a7 63686172 		.ascii	"char\000"
 2872      00
 2873              	.LASF78:
 2874 02ac 6669666F 		.ascii	"fifo_remove\000"
 2874      5F72656D 
 2874      6F766500 
 2875              	.LASF69:
 2876 02b8 6368436F 		.ascii	"chCondWaitS\000"
 2876      6E645761 
 2876      69745300 
 2877              	.LASF56:
 2878 02c4 6D5F6E65 		.ascii	"m_next\000"
 2878      787400
ARM GAS  /tmp/cccp5Acz.s 			page 54


 2879              	.LASF20:
 2880 02cb 73797374 		.ascii	"systime_t\000"
 2880      696D655F 
 2880      7400
 2881              	.LASF39:
 2882 02d5 705F7265 		.ascii	"p_realprio\000"
 2882      616C7072 
 2882      696F00
 2883              	.LASF70:
 2884 02e0 6368436F 		.ascii	"chCondWait\000"
 2884      6E645761 
 2884      697400
 2885              	.LASF33:
 2886 02eb 705F7469 		.ascii	"p_time\000"
 2886      6D6500
 2887              	.LASF44:
 2888 02f2 696E7463 		.ascii	"intctx\000"
 2888      747800
 2889              	.LASF35:
 2890 02f9 705F6D73 		.ascii	"p_msgqueue\000"
 2890      67717565 
 2890      756500
 2891              	.LASF31:
 2892 0304 705F7265 		.ascii	"p_refs\000"
 2892      667300
 2893              	.LASF52:
 2894 030b 52656164 		.ascii	"ReadyList\000"
 2894      794C6973 
 2894      7400
 2895              	.LASF74:
 2896 0315 726C6973 		.ascii	"rlist\000"
 2896      7400
 2897              	.LASF5:
 2898 031b 75696E74 		.ascii	"uint8_t\000"
 2898      385F7400 
 2899              	.LASF61:
 2900 0323 77746F62 		.ascii	"wtobjp\000"
 2900      6A7000
 2901              	.LASF28:
 2902 032a 705F6E61 		.ascii	"p_name\000"
 2902      6D6500
 2903              	.LASF73:
 2904 0331 6368436F 		.ascii	"chCondWaitTimeout\000"
 2904      6E645761 
 2904      69745469 
 2904      6D656F75 
 2904      7400
 2905              	.LASF55:
 2906 0343 6D5F6F77 		.ascii	"m_owner\000"
 2906      6E657200 
 2907              	.LASF25:
 2908 034b 705F6374 		.ascii	"p_ctx\000"
 2908      7800
 2909              	.LASF34:
 2910 0351 705F7761 		.ascii	"p_waiting\000"
 2910      6974696E 
 2910      6700
ARM GAS  /tmp/cccp5Acz.s 			page 55


 2911              		.ident	"GCC: (Sourcery CodeBench Lite 2011.09-69) 4.6.1"
ARM GAS  /tmp/cccp5Acz.s 			page 56


DEFINED SYMBOLS
                            *ABS*:00000000 chcond.c
     /tmp/cccp5Acz.s:19     .text.chCondInit:00000000 $t
     /tmp/cccp5Acz.s:25     .text.chCondInit:00000000 chCondInit
     /tmp/cccp5Acz.s:43     .text.chCondSignal:00000000 $t
     /tmp/cccp5Acz.s:49     .text.chCondSignal:00000000 chCondSignal
     /tmp/cccp5Acz.s:116    .text.chCondSignalI:00000000 $t
     /tmp/cccp5Acz.s:122    .text.chCondSignalI:00000000 chCondSignalI
     /tmp/cccp5Acz.s:161    .text.chCondBroadcastI:00000000 $t
     /tmp/cccp5Acz.s:167    .text.chCondBroadcastI:00000000 chCondBroadcastI
     /tmp/cccp5Acz.s:215    .text.chCondBroadcast:00000000 $t
     /tmp/cccp5Acz.s:221    .text.chCondBroadcast:00000000 chCondBroadcast
     /tmp/cccp5Acz.s:264    .text.chCondWaitS:00000000 $t
     /tmp/cccp5Acz.s:270    .text.chCondWaitS:00000000 chCondWaitS
     /tmp/cccp5Acz.s:361    .text.chCondWait:00000000 $t
     /tmp/cccp5Acz.s:367    .text.chCondWait:00000000 chCondWait
     /tmp/cccp5Acz.s:408    .text.chCondWaitTimeoutS:00000000 $t
     /tmp/cccp5Acz.s:414    .text.chCondWaitTimeoutS:00000000 chCondWaitTimeoutS
     /tmp/cccp5Acz.s:513    .text.chCondWaitTimeout:00000000 $t
     /tmp/cccp5Acz.s:519    .text.chCondWaitTimeout:00000000 chCondWaitTimeout
                     .debug_frame:00000010 $d

UNDEFINED SYMBOLS
chSchWakeupS
chSchReadyI
chSchRescheduleS
rlist
chMtxUnlockS
chSchGoSleepS
chMtxLockS
chSchGoSleepTimeoutS
