ARM GAS  /tmp/cccp5Acz.s 			page 1


   1              		.syntax unified
   2              		.cpu cortex-m4
   3              		.fpu softvfp
   4              		.eabi_attribute 20, 1
   5              		.eabi_attribute 21, 1
   6              		.eabi_attribute 23, 3
   7              		.eabi_attribute 24, 1
   8              		.eabi_attribute 25, 1
   9              		.eabi_attribute 26, 1
  10              		.eabi_attribute 30, 2
  11              		.eabi_attribute 34, 1
  12              		.eabi_attribute 18, 4
  13              		.thumb
  14              		.file	"chcond.c"
  15              		.text
  16              	.Ltext0:
  17              		.cfi_sections	.debug_frame
  18              		.section	.text.chCondInit,"ax",%progbits
  19              		.align	2
  20              		.p2align 4,,15
  21              		.global	chCondInit
  22              		.thumb
  23              		.thumb_func
  24              		.type	chCondInit, %function
  25              	chCondInit:
  26              	.LFB7:
  27              		.file 1 "../../os/kernel/src/chcond.c"
  28              		.loc 1 59 0
  29              		.cfi_startproc
  30              		@ args = 0, pretend = 0, frame = 0
  31              		@ frame_needed = 0, uses_anonymous_args = 0
  32              		@ link register save eliminated.
  33              	.LVL0:
  34              		.loc 1 63 0
  35 0000 4060     		str	r0, [r0, #4]
  36 0002 0060     		str	r0, [r0, #0]
  37              		.loc 1 64 0
  38 0004 7047     		bx	lr
  39              		.cfi_endproc
  40              	.LFE7:
  41              		.size	chCondInit, .-chCondInit
  42 0006 00BFAFF3 		.section	.text.chCondSignal,"ax",%progbits
  42      0080AFF3 
  42      0080
  43              		.align	2
  44              		.p2align 4,,15
  45              		.global	chCondSignal
  46              		.thumb
  47              		.thumb_func
  48              		.type	chCondSignal, %function
  49              	chCondSignal:
  50              	.LFB8:
  51              		.loc 1 73 0
  52              		.cfi_startproc
  53              		@ args = 0, pretend = 0, frame = 0
  54              		@ frame_needed = 0, uses_anonymous_args = 0
  55              	.LVL1:
ARM GAS  /tmp/cccp5Acz.s 			page 2


  56 0000 08B5     		push	{r3, lr}
  57              	.LCFI0:
  58              		.cfi_def_cfa_offset 8
  59              		.cfi_offset 14, -4
  60              		.cfi_offset 3, -8
  61              		.loc 1 73 0
  62 0002 0246     		mov	r2, r0
  63              	.LBB14:
  64              		.loc 1 77 0
  65 0004 2023     		movs	r3, #32
  66              	.LVL2:
  67              	@ 77 "../../os/kernel/src/chcond.c" 1
  68 0006 83F31188 		msr     BASEPRI, r3
  69              	@ 0 "" 2
  70              	.LVL3:
  71              		.thumb
  72              	.LBE14:
  73              		.loc 1 78 0
  74 000a 0068     		ldr	r0, [r0, #0]
  75              	.LVL4:
  76 000c 9042     		cmp	r0, r2
  77 000e 05D0     		beq	.L3
  78              	.LVL5:
  79              	.LBB15:
  80              	.LBB16:
  81              		.file 2 "../../os/kernel/include/chinline.h"
  82              		.loc 2 62 0
  83 0010 0368     		ldr	r3, [r0, #0]
  84              	.LVL6:
  85              	.LBE16:
  86              	.LBE15:
  87              		.loc 1 79 0
  88 0012 0021     		movs	r1, #0
  89              	.LBB18:
  90              	.LBB17:
  91              		.loc 2 62 0
  92 0014 1360     		str	r3, [r2, #0]
  93 0016 5A60     		str	r2, [r3, #4]
  94              	.LBE17:
  95              	.LBE18:
  96              		.loc 1 79 0
  97 0018 FFF7FEFF 		bl	chSchWakeupS
  98              	.LVL7:
  99              	.L3:
 100              	.LBB19:
 101              		.loc 1 80 0
 102 001c 0023     		movs	r3, #0
 103              	.LVL8:
 104              	@ 80 "../../os/kernel/src/chcond.c" 1
 105 001e 83F31188 		msr     BASEPRI, r3
 106              	@ 0 "" 2
 107              	.LVL9:
 108              		.thumb
 109              	.LBE19:
 110              		.loc 1 81 0
 111 0022 08BD     		pop	{r3, pc}
 112              		.cfi_endproc
ARM GAS  /tmp/cccp5Acz.s 			page 3


 113              	.LFE8:
 114              		.size	chCondSignal, .-chCondSignal
 115 0024 AFF30080 		.section	.text.chCondSignalI,"ax",%progbits
 115      AFF30080 
 115      AFF30080 
 116              		.align	2
 117              		.p2align 4,,15
 118              		.global	chCondSignalI
 119              		.thumb
 120              		.thumb_func
 121              		.type	chCondSignalI, %function
 122              	chCondSignalI:
 123              	.LFB9:
 124              		.loc 1 94 0
 125              		.cfi_startproc
 126              		@ args = 0, pretend = 0, frame = 0
 127              		@ frame_needed = 0, uses_anonymous_args = 0
 128              	.LVL10:
 129 0000 08B5     		push	{r3, lr}
 130              	.LCFI1:
 131              		.cfi_def_cfa_offset 8
 132              		.cfi_offset 14, -4
 133              		.cfi_offset 3, -8
 134              		.loc 1 94 0
 135 0002 0346     		mov	r3, r0
 136              		.loc 1 99 0
 137 0004 0068     		ldr	r0, [r0, #0]
 138              	.LVL11:
 139 0006 9842     		cmp	r0, r3
 140 0008 06D0     		beq	.L5
 141              	.LVL12:
 142              	.LBB20:
 143              	.LBB21:
 144              		.loc 2 62 0
 145 000a 0268     		ldr	r2, [r0, #0]
 146 000c 1A60     		str	r2, [r3, #0]
 147 000e 5360     		str	r3, [r2, #4]
 148              	.LBE21:
 149              	.LBE20:
 150              		.loc 1 100 0
 151 0010 FFF7FEFF 		bl	chSchReadyI
 152              	.LVL13:
 153 0014 0023     		movs	r3, #0
 154 0016 4362     		str	r3, [r0, #36]
 155              	.L5:
 156 0018 08BD     		pop	{r3, pc}
 157              		.cfi_endproc
 158              	.LFE9:
 159              		.size	chCondSignalI, .-chCondSignalI
 160 001a 00BFAFF3 		.section	.text.chCondBroadcastI,"ax",%progbits
 160      0080
 161              		.align	2
 162              		.p2align 4,,15
 163              		.global	chCondBroadcastI
 164              		.thumb
 165              		.thumb_func
 166              		.type	chCondBroadcastI, %function
ARM GAS  /tmp/cccp5Acz.s 			page 4


 167              	chCondBroadcastI:
 168              	.LFB11:
 169              		.loc 1 129 0
 170              		.cfi_startproc
 171              		@ args = 0, pretend = 0, frame = 0
 172              		@ frame_needed = 0, uses_anonymous_args = 0
 173              	.LVL14:
 174 0000 38B5     		push	{r3, r4, r5, lr}
 175              	.LCFI2:
 176              		.cfi_def_cfa_offset 16
 177              		.cfi_offset 14, -4
 178              		.cfi_offset 5, -8
 179              		.cfi_offset 4, -12
 180              		.cfi_offset 3, -16
 181              		.loc 1 129 0
 182 0002 0446     		mov	r4, r0
 183              		.loc 1 137 0
 184 0004 0068     		ldr	r0, [r0, #0]
 185              	.LVL15:
 186 0006 A042     		cmp	r0, r4
 187 0008 0AD0     		beq	.L7
 188              		.loc 1 138 0
 189 000a 6FF00105 		mvn	r5, #1
 190              	.L10:
 191              	.LVL16:
 192              	.LBB22:
 193              	.LBB23:
 194              		.loc 2 62 0
 195 000e 0368     		ldr	r3, [r0, #0]
 196 0010 2360     		str	r3, [r4, #0]
 197 0012 5C60     		str	r4, [r3, #4]
 198              	.LBE23:
 199              	.LBE22:
 200              		.loc 1 138 0
 201 0014 FFF7FEFF 		bl	chSchReadyI
 202              	.LVL17:
 203 0018 4562     		str	r5, [r0, #36]
 204              		.loc 1 137 0
 205 001a 2068     		ldr	r0, [r4, #0]
 206 001c A042     		cmp	r0, r4
 207 001e F6D1     		bne	.L10
 208              	.LVL18:
 209              	.L7:
 210 0020 38BD     		pop	{r3, r4, r5, pc}
 211              		.cfi_endproc
 212              	.LFE11:
 213              		.size	chCondBroadcastI, .-chCondBroadcastI
 214 0022 00BFAFF3 		.section	.text.chCondBroadcast,"ax",%progbits
 214      0080AFF3 
 214      0080AFF3 
 214      0080
 215              		.align	2
 216              		.p2align 4,,15
 217              		.global	chCondBroadcast
 218              		.thumb
 219              		.thumb_func
 220              		.type	chCondBroadcast, %function
ARM GAS  /tmp/cccp5Acz.s 			page 5


 221              	chCondBroadcast:
 222              	.LFB10:
 223              		.loc 1 110 0
 224              		.cfi_startproc
 225              		@ args = 0, pretend = 0, frame = 0
 226              		@ frame_needed = 0, uses_anonymous_args = 0
 227              	.LVL19:
 228 0000 08B5     		push	{r3, lr}
 229              	.LCFI3:
 230              		.cfi_def_cfa_offset 8
 231              		.cfi_offset 14, -4
 232              		.cfi_offset 3, -8
 233              	.LBB24:
 234              		.loc 1 112 0
 235 0002 2023     		movs	r3, #32
 236              	.LVL20:
 237              	@ 112 "../../os/kernel/src/chcond.c" 1
 238 0004 83F31188 		msr     BASEPRI, r3
 239              	@ 0 "" 2
 240              	.LVL21:
 241              		.thumb
 242              	.LBE24:
 243              		.loc 1 113 0
 244 0008 FFF7FEFF 		bl	chCondBroadcastI
 245              	.LVL22:
 246              		.loc 1 114 0
 247 000c FFF7FEFF 		bl	chSchRescheduleS
 248              	.LBB25:
 249              		.loc 1 115 0
 250 0010 0023     		movs	r3, #0
 251              	.LVL23:
 252              	@ 115 "../../os/kernel/src/chcond.c" 1
 253 0012 83F31188 		msr     BASEPRI, r3
 254              	@ 0 "" 2
 255              	.LVL24:
 256              		.thumb
 257              	.LBE25:
 258              		.loc 1 116 0
 259 0016 08BD     		pop	{r3, pc}
 260              		.cfi_endproc
 261              	.LFE10:
 262              		.size	chCondBroadcast, .-chCondBroadcast
 263 0018 AFF30080 		.section	.text.chCondWaitS,"ax",%progbits
 263      AFF30080 
 264              		.align	2
 265              		.p2align 4,,15
 266              		.global	chCondWaitS
 267              		.thumb
 268              		.thumb_func
 269              		.type	chCondWaitS, %function
 270              	chCondWaitS:
 271              	.LFB13:
 272              		.loc 1 184 0
 273              		.cfi_startproc
 274              		@ args = 0, pretend = 0, frame = 0
 275              		@ frame_needed = 0, uses_anonymous_args = 0
 276              	.LVL25:
ARM GAS  /tmp/cccp5Acz.s 			page 6


 277              		.loc 1 185 0
 278 0000 40F20003 		movw	r3, #:lower16:rlist
 279 0004 C0F20003 		movt	r3, #:upper16:rlist
 280              		.loc 1 184 0
 281 0008 70B5     		push	{r4, r5, r6, lr}
 282              	.LCFI4:
 283              		.cfi_def_cfa_offset 16
 284              		.cfi_offset 14, -4
 285              		.cfi_offset 6, -8
 286              		.cfi_offset 5, -12
 287              		.cfi_offset 4, -16
 288              		.loc 1 184 0
 289 000a 0546     		mov	r5, r0
 290              		.loc 1 185 0
 291 000c 9C69     		ldr	r4, [r3, #24]
 292              	.LVL26:
 293              		.loc 1 195 0
 294 000e FFF7FEFF 		bl	chMtxUnlockS
 295              	.LVL27:
 296              		.loc 1 196 0
 297 0012 6562     		str	r5, [r4, #36]
 298              		.loc 1 195 0
 299 0014 0646     		mov	r6, r0
 300              	.LVL28:
 301              		.loc 1 197 0
 302 0016 2B46     		mov	r3, r5
 303              	.LVL29:
 304              		.loc 2 43 0
 305 0018 2A46     		mov	r2, r5
 306 001a 03E0     		b	.L15
 307              	.LVL30:
 308              	.L18:
 309              	.LBB26:
 310              	.LBB27:
 311              		.loc 2 46 0
 312 001c 9068     		ldr	r0, [r2, #8]
 313 001e A168     		ldr	r1, [r4, #8]
 314 0020 8842     		cmp	r0, r1
 315 0022 10D3     		bcc	.L17
 316              	.L15:
 317              		.loc 2 45 0
 318 0024 1268     		ldr	r2, [r2, #0]
 319              	.LVL31:
 320              		.loc 2 46 0
 321 0026 9542     		cmp	r5, r2
 322 0028 F8D1     		bne	.L18
 323              	.L14:
 324              		.loc 2 48 0
 325 002a 5A68     		ldr	r2, [r3, #4]
 326              	.LVL32:
 327              		.loc 2 47 0
 328 002c 2360     		str	r3, [r4, #0]
 329              		.loc 2 48 0
 330 002e 6260     		str	r2, [r4, #4]
 331              		.loc 2 49 0
 332 0030 1460     		str	r4, [r2, #0]
 333 0032 5C60     		str	r4, [r3, #4]
ARM GAS  /tmp/cccp5Acz.s 			page 7


 334              	.LBE27:
 335              	.LBE26:
 336              		.loc 1 198 0
 337 0034 0520     		movs	r0, #5
 338 0036 FFF7FEFF 		bl	chSchGoSleepS
 339              		.loc 1 199 0
 340 003a 646A     		ldr	r4, [r4, #36]
 341              	.LVL33:
 342              		.loc 1 200 0
 343 003c 3046     		mov	r0, r6
 344 003e FFF7FEFF 		bl	chMtxLockS
 345              		.loc 1 202 0
 346 0042 2046     		mov	r0, r4
 347 0044 70BD     		pop	{r4, r5, r6, pc}
 348              	.LVL34:
 349              	.L17:
 350              	.LBB29:
 351              	.LBB28:
 352              		.loc 2 45 0
 353 0046 1346     		mov	r3, r2
 354 0048 EFE7     		b	.L14
 355              	.LBE28:
 356              	.LBE29:
 357              		.cfi_endproc
 358              	.LFE13:
 359              		.size	chCondWaitS, .-chCondWaitS
 360 004a 00BFAFF3 		.section	.text.chCondWait,"ax",%progbits
 360      0080
 361              		.align	2
 362              		.p2align 4,,15
 363              		.global	chCondWait
 364              		.thumb
 365              		.thumb_func
 366              		.type	chCondWait, %function
 367              	chCondWait:
 368              	.LFB12:
 369              		.loc 1 158 0
 370              		.cfi_startproc
 371              		@ args = 0, pretend = 0, frame = 0
 372              		@ frame_needed = 0, uses_anonymous_args = 0
 373              	.LVL35:
 374 0000 08B5     		push	{r3, lr}
 375              	.LCFI5:
 376              		.cfi_def_cfa_offset 8
 377              		.cfi_offset 14, -4
 378              		.cfi_offset 3, -8
 379              	.LBB30:
 380              		.loc 1 161 0
 381 0002 2023     		movs	r3, #32
 382              	.LVL36:
 383              	@ 161 "../../os/kernel/src/chcond.c" 1
 384 0004 83F31188 		msr     BASEPRI, r3
 385              	@ 0 "" 2
 386              	.LVL37:
 387              		.thumb
 388              	.LBE30:
 389              		.loc 1 162 0
ARM GAS  /tmp/cccp5Acz.s 			page 8


 390 0008 FFF7FEFF 		bl	chCondWaitS
 391              	.LVL38:
 392              	.LBB31:
 393              		.loc 1 163 0
 394 000c 0023     		movs	r3, #0
 395              	.LVL39:
 396              	@ 163 "../../os/kernel/src/chcond.c" 1
 397 000e 83F31188 		msr     BASEPRI, r3
 398              	@ 0 "" 2
 399              	.LVL40:
 400              		.thumb
 401              	.LBE31:
 402              		.loc 1 165 0
 403 0012 08BD     		pop	{r3, pc}
 404              		.cfi_endproc
 405              	.LFE12:
 406              		.size	chCondWait, .-chCondWait
 407 0014 AFF30080 		.section	.text.chCondWaitTimeoutS,"ax",%progbits
 407      AFF30080 
 407      AFF30080 
 408              		.align	2
 409              		.p2align 4,,15
 410              		.global	chCondWaitTimeoutS
 411              		.thumb
 412              		.thumb_func
 413              		.type	chCondWaitTimeoutS, %function
 414              	chCondWaitTimeoutS:
 415              	.LFB15:
 416              		.loc 1 270 0
 417              		.cfi_startproc
 418              		@ args = 0, pretend = 0, frame = 0
 419              		@ frame_needed = 0, uses_anonymous_args = 0
 420              	.LVL41:
 421 0000 F8B5     		push	{r3, r4, r5, r6, r7, lr}
 422              	.LCFI6:
 423              		.cfi_def_cfa_offset 24
 424              		.cfi_offset 14, -4
 425              		.cfi_offset 7, -8
 426              		.cfi_offset 6, -12
 427              		.cfi_offset 5, -16
 428              		.cfi_offset 4, -20
 429              		.cfi_offset 3, -24
 430              		.loc 1 270 0
 431 0002 0446     		mov	r4, r0
 432 0004 0E46     		mov	r6, r1
 433              		.loc 1 280 0
 434 0006 FFF7FEFF 		bl	chMtxUnlockS
 435              	.LVL42:
 436              		.loc 1 281 0
 437 000a 40F20003 		movw	r3, #:lower16:rlist
 438 000e C0F20003 		movt	r3, #:upper16:rlist
 439              		.loc 1 280 0
 440 0012 0546     		mov	r5, r0
 441              	.LVL43:
 442              		.loc 1 281 0
 443 0014 9869     		ldr	r0, [r3, #24]
 444              	.LVL44:
ARM GAS  /tmp/cccp5Acz.s 			page 9


 445              		.loc 1 282 0
 446 0016 2746     		mov	r7, r4
 447              		.loc 2 43 0
 448 0018 2346     		mov	r3, r4
 449              	.LVL45:
 450              		.loc 1 281 0
 451 001a 4462     		str	r4, [r0, #36]
 452 001c 03E0     		b	.L22
 453              	.LVL46:
 454              	.L26:
 455              	.LBB32:
 456              	.LBB33:
 457              		.loc 2 46 0
 458 001e 9968     		ldr	r1, [r3, #8]
 459 0020 8268     		ldr	r2, [r0, #8]
 460 0022 9142     		cmp	r1, r2
 461 0024 13D3     		bcc	.L25
 462              	.L22:
 463              		.loc 2 45 0
 464 0026 1B68     		ldr	r3, [r3, #0]
 465              	.LVL47:
 466              		.loc 2 46 0
 467 0028 9C42     		cmp	r4, r3
 468 002a F8D1     		bne	.L26
 469              	.L21:
 470              		.loc 2 48 0
 471 002c 7C68     		ldr	r4, [r7, #4]
 472              	.LVL48:
 473              		.loc 2 47 0
 474 002e 0760     		str	r7, [r0, #0]
 475              		.loc 2 48 0
 476 0030 4460     		str	r4, [r0, #4]
 477              		.loc 2 49 0
 478 0032 2060     		str	r0, [r4, #0]
 479 0034 7860     		str	r0, [r7, #4]
 480              	.LBE33:
 481              	.LBE32:
 482              		.loc 1 283 0
 483 0036 3146     		mov	r1, r6
 484 0038 0520     		movs	r0, #5
 485 003a FFF7FEFF 		bl	chSchGoSleepTimeoutS
 486              	.LVL49:
 487 003e 0446     		mov	r4, r0
 488              	.LVL50:
 489              		.loc 1 284 0
 490 0040 0130     		adds	r0, r0, #1
 491              	.LVL51:
 492 0042 02D0     		beq	.L23
 493              		.loc 1 285 0
 494 0044 2846     		mov	r0, r5
 495 0046 FFF7FEFF 		bl	chMtxLockS
 496              	.L23:
 497              		.loc 1 287 0
 498 004a 2046     		mov	r0, r4
 499 004c F8BD     		pop	{r3, r4, r5, r6, r7, pc}
 500              	.LVL52:
 501              	.L25:
ARM GAS  /tmp/cccp5Acz.s 			page 10


 502              	.LBB35:
 503              	.LBB34:
 504              		.loc 2 45 0
 505 004e 1F46     		mov	r7, r3
 506 0050 ECE7     		b	.L21
 507              	.LBE34:
 508              	.LBE35:
 509              		.cfi_endproc
 510              	.LFE15:
 511              		.size	chCondWaitTimeoutS, .-chCondWaitTimeoutS
 512 0052 00BFAFF3 		.section	.text.chCondWaitTimeout,"ax",%progbits
 512      0080AFF3 
 512      0080AFF3 
 512      0080
 513              		.align	2
 514              		.p2align 4,,15
 515              		.global	chCondWaitTimeout
 516              		.thumb
 517              		.thumb_func
 518              		.type	chCondWaitTimeout, %function
 519              	chCondWaitTimeout:
 520              	.LFB14:
 521              		.loc 1 233 0
 522              		.cfi_startproc
 523              		@ args = 0, pretend = 0, frame = 0
 524              		@ frame_needed = 0, uses_anonymous_args = 0
 525              	.LVL53:
 526 0000 08B5     		push	{r3, lr}
 527              	.LCFI7:
 528              		.cfi_def_cfa_offset 8
 529              		.cfi_offset 14, -4
 530              		.cfi_offset 3, -8
 531              	.LBB36:
 532              		.loc 1 236 0
 533 0002 2023     		movs	r3, #32
 534              	.LVL54:
 535              	@ 236 "../../os/kernel/src/chcond.c" 1
 536 0004 83F31188 		msr     BASEPRI, r3
 537              	@ 0 "" 2
 538              	.LVL55:
 539              		.thumb
 540              	.LBE36:
 541              		.loc 1 237 0
 542 0008 FFF7FEFF 		bl	chCondWaitTimeoutS
 543              	.LVL56:
 544              	.LBB37:
 545              		.loc 1 238 0
 546 000c 0023     		movs	r3, #0
 547              	.LVL57:
 548              	@ 238 "../../os/kernel/src/chcond.c" 1
 549 000e 83F31188 		msr     BASEPRI, r3
 550              	@ 0 "" 2
 551              	.LVL58:
 552              		.thumb
 553              	.LBE37:
 554              		.loc 1 240 0
 555 0012 08BD     		pop	{r3, pc}
ARM GAS  /tmp/cccp5Acz.s 			page 11


 556              		.cfi_endproc
 557              	.LFE14:
 558              		.size	chCondWaitTimeout, .-chCondWaitTimeout
 559 0014 AFF30080 		.text
 559      AFF30080 
 559      AFF30080 
 560              	.Letext0:
 561              		.file 3 "/home/lithium/Documents/arm-2011q3/bin/../lib/gcc/arm-none-eabi/4.6.1/../../../../arm-non
 562              		.file 4 "../../os/ports/GCC/ARMCMx/chtypes.h"
 563              		.file 5 "../../os/kernel/include/chlists.h"
 564              		.file 6 "../../os/kernel/include/chthreads.h"
 565              		.file 7 "../../os/ports/GCC/ARMCMx/chcore_v7m.h"
 566              		.file 8 "../../os/kernel/include/chschd.h"
 567              		.file 9 "../../os/kernel/include/chmtx.h"
 568              		.file 10 "../../os/kernel/include/chcond.h"