ARM GAS  /tmp/ccYRHtwS.s 			page 1


   1              		.syntax unified
   2              		.cpu cortex-m4
   3              		.fpu softvfp
   4              		.eabi_attribute 20, 1
   5              		.eabi_attribute 21, 1
   6              		.eabi_attribute 23, 3
   7              		.eabi_attribute 24, 1
   8              		.eabi_attribute 25, 1
   9              		.eabi_attribute 26, 1
  10              		.eabi_attribute 30, 2
  11              		.eabi_attribute 34, 1
  12              		.eabi_attribute 18, 4
  13              		.thumb
  14              		.file	"chcore_v7m.c"
  15              		.text
  16              	.Ltext0:
  17              		.cfi_sections	.debug_frame
  18              		.section	.text._port_switch_from_isr,"ax",%progbits
  19              		.align	2
  20              		.p2align 4,,15
  21              		.global	_port_switch_from_isr
  22              		.thumb
  23              		.thumb_func
  24              		.type	_port_switch_from_isr, %function
  25              	_port_switch_from_isr:
  26              	.LFB11:
  27              		.file 1 "../../os/ports/GCC/ARMCMx/chcore_v7m.c"
  28              		.loc 1 200 0
  29              		.cfi_startproc
  30              		@ Naked Function: prologue and epilogue provided by programmer.
  31              		@ args = 0, pretend = 0, frame = 0
  32              		@ frame_needed = 0, uses_anonymous_args = 0
  33              		.loc 1 203 0
  34 0000 FFF7FEFF 		bl	chSchDoReschedule
  35              		.loc 1 205 0
  36              	@ 205 "../../os/ports/GCC/ARMCMx/chcore_v7m.c" 1
  37              		_port_exit_from_isr:
  38              	@ 0 "" 2
  39              		.loc 1 207 0
  40              	@ 207 "../../os/ports/GCC/ARMCMx/chcore_v7m.c" 1
  41 0004 00DF     		svc     #0
  42              	@ 0 "" 2
  43              		.loc 1 214 0
  44              		.thumb
  45              		.cfi_endproc
  46              	.LFE11:
  47              		.size	_port_switch_from_isr, .-_port_switch_from_isr
  48 0006 00BFAFF3 		.section	.text.SVCallVector,"ax",%progbits
  48      0080AFF3 
  48      0080
  49              		.align	2
  50              		.p2align 4,,15
  51              		.global	SVCallVector
  52              		.thumb
  53              		.thumb_func
  54              		.type	SVCallVector, %function
  55              	SVCallVector:
ARM GAS  /tmp/ccYRHtwS.s 			page 2


  56              	.LFB8:
  57              		.loc 1 65 0
  58              		.cfi_startproc
  59              		@ args = 0, pretend = 0, frame = 0
  60              		@ frame_needed = 0, uses_anonymous_args = 0
  61              		@ link register save eliminated.
  62              		.loc 1 74 0
  63              	@ 74 "../../os/ports/GCC/ARMCMx/chcore_v7m.c" 1
  64 0000 EFF30983 		mrs     r3, PSP
  65              	@ 0 "" 2
  66              	.LVL0:
  67              		.loc 1 78 0
  68              		.thumb
  69 0004 2033     		adds	r3, r3, #32
  70              	.LVL1:
  71              		.loc 1 81 0
  72              	@ 81 "../../os/ports/GCC/ARMCMx/chcore_v7m.c" 1
  73 0006 83F30988 		msr     PSP, r3
  74              	@ 0 "" 2
  75              		.thumb
  76              	.LBB2:
  77              		.loc 1 82 0
  78 000a 0023     		movs	r3, #0
  79              	.LVL2:
  80              	@ 82 "../../os/ports/GCC/ARMCMx/chcore_v7m.c" 1
  81 000c 83F31188 		msr     BASEPRI, r3
  82              	@ 0 "" 2
  83              	.LVL3:
  84              		.thumb
  85              	.LBE2:
  86              		.loc 1 83 0
  87 0010 7047     		bx	lr
  88              		.cfi_endproc
  89              	.LFE8:
  90              		.size	SVCallVector, .-SVCallVector
  91 0012 00BFAFF3 		.section	.text._port_init,"ax",%progbits
  91      0080AFF3 
  91      0080AFF3 
  91      0080
  92              		.align	2
  93              		.p2align 4,,15
  94              		.global	_port_init
  95              		.thumb
  96              		.thumb_func
  97              		.type	_port_init, %function
  98              	_port_init:
  99              	.LFB9:
 100              		.loc 1 120 0
 101              		.cfi_startproc
 102              		@ args = 0, pretend = 0, frame = 0
 103              		@ frame_needed = 0, uses_anonymous_args = 0
 104 0000 08B5     		push	{r3, lr}
 105              	.LCFI0:
 106              		.cfi_def_cfa_offset 8
 107              		.cfi_offset 14, -4
 108              		.cfi_offset 3, -8
 109              		.loc 1 123 0
ARM GAS  /tmp/ccYRHtwS.s 			page 3


 110 0002 4FF46D43 		mov	r3, #60672
 111 0006 CEF20003 		movt	r3, 57344
 112              		.loc 1 124 0
 113 000a 4FF44072 		mov	r2, #768
 114 000e C0F2FA52 		movt	r2, 1530
 115              		.loc 1 123 0
 116 0012 0021     		movs	r1, #0
 117 0014 9960     		str	r1, [r3, #8]
 118              		.loc 1 127 0
 119 0016 0720     		movs	r0, #7
 120 0018 1021     		movs	r1, #16
 121              		.loc 1 124 0
 122 001a DA60     		str	r2, [r3, #12]
 123              		.loc 1 127 0
 124 001c FFF7FEFF 		bl	nvicSetSystemHandlerPriority
 125              		.loc 1 129 0
 126 0020 0A20     		movs	r0, #10
 127 0022 2021     		movs	r1, #32
 128 0024 FFF7FEFF 		bl	nvicSetSystemHandlerPriority
 129              		.loc 1 131 0
 130 0028 0B20     		movs	r0, #11
 131 002a 8021     		movs	r1, #128
 132              		.loc 1 133 0
 133 002c BDE80840 		pop	{r3, lr}
 134              		.loc 1 131 0
 135 0030 FFF7FEBF 		b	nvicSetSystemHandlerPriority
 136              		.cfi_endproc
 137              	.LFE9:
 138              		.size	_port_init, .-_port_init
 139 0034 AFF30080 		.section	.text._port_irq_epilogue,"ax",%progbits
 139      AFF30080 
 139      AFF30080 
 140              		.align	2
 141              		.p2align 4,,15
 142              		.global	_port_irq_epilogue
 143              		.thumb
 144              		.thumb_func
 145              		.type	_port_irq_epilogue, %function
 146              	_port_irq_epilogue:
 147              	.LFB10:
 148              		.loc 1 150 0
 149              		.cfi_startproc
 150              		@ args = 0, pretend = 0, frame = 0
 151              		@ frame_needed = 0, uses_anonymous_args = 0
 152              		@ link register save eliminated.
 153              	.LBB3:
 154              		.loc 1 152 0
 155 0000 2023     		movs	r3, #32
 156              	.LVL4:
 157              	@ 152 "../../os/ports/GCC/ARMCMx/chcore_v7m.c" 1
 158 0002 83F31188 		msr     BASEPRI, r3
 159              	@ 0 "" 2
 160              	.LVL5:
 161              		.thumb
 162              	.LBE3:
 163              		.loc 1 153 0
 164 0006 4FF46D40 		mov	r0, #60672
ARM GAS  /tmp/ccYRHtwS.s 			page 4


 165 000a CEF20000 		movt	r0, 57344
 166 000e 4368     		ldr	r3, [r0, #4]
 167              	.LVL6:
 168 0010 13F40063 		ands	r3, r3, #2048
 169 0014 1FD0     		beq	.L5
 170              	.LBB4:
 171              		.loc 1 163 0
 172              	@ 163 "../../os/ports/GCC/ARMCMx/chcore_v7m.c" 1
 173 0016 EFF30982 		mrs     r2, PSP
 174              	@ 0 "" 2
 175              	.LVL7:
 176              		.loc 1 168 0
 177              		.thumb
 178 001a 4FF08073 		mov	r3, #16777216
 179 001e 42F8043C 		str	r3, [r2, #-4]
 180              		.loc 1 167 0
 181 0022 A2F12001 		sub	r1, r2, #32
 182              		.loc 1 172 0
 183              	@ 172 "../../os/ports/GCC/ARMCMx/chcore_v7m.c" 1
 184 0026 81F30988 		msr     PSP, r1
 185              	@ 0 "" 2
 186              		.loc 1 176 0
 187              		.thumb
 188 002a 40F20003 		movw	r3, #:lower16:rlist
 189 002e C0F20003 		movt	r3, #:upper16:rlist
 190 0032 9969     		ldr	r1, [r3, #24]
 191 0034 C87F     		ldrb	r0, [r1, #31]	@ zero_extendqisi2
 192 0036 88B1     		cbz	r0, .L6
 193              		.loc 1 176 0 is_stmt 0 discriminator 1
 194 0038 1868     		ldr	r0, [r3, #0]
 195 003a 8B68     		ldr	r3, [r1, #8]
 196 003c 8068     		ldr	r0, [r0, #8]
 197 003e 9842     		cmp	r0, r3
 198 0040 94BF     		ite	ls
 199 0042 0023     		movls	r3, #0
 200 0044 0123     		movhi	r3, #1
 201 0046 93B1     		cbz	r3, .L8
 202              	.L11:
 203              		.loc 1 178 0 is_stmt 1
 204 0048 40F20003 		movw	r3, #:lower16:_port_switch_from_isr
 205 004c C0F20003 		movt	r3, #:upper16:_port_switch_from_isr
 206 0050 42F8083C 		str	r3, [r2, #-8]
 207 0054 7047     		bx	lr
 208              	.LVL8:
 209              	.L5:
 210              	.LBE4:
 211              	.LBB5:
 212              		.loc 1 190 0
 213              	@ 190 "../../os/ports/GCC/ARMCMx/chcore_v7m.c" 1
 214 0056 83F31188 		msr     BASEPRI, r3
 215              	@ 0 "" 2
 216              	.LVL9:
 217              		.thumb
 218 005a 7047     		bx	lr
 219              	.LVL10:
 220              	.L6:
 221              	.LBE5:
ARM GAS  /tmp/ccYRHtwS.s 			page 5


 222              	.LBB6:
 223              		.loc 1 176 0 discriminator 2
 224 005c 1868     		ldr	r0, [r3, #0]
 225 005e 8B68     		ldr	r3, [r1, #8]
 226 0060 8168     		ldr	r1, [r0, #8]
 227 0062 9942     		cmp	r1, r3
 228 0064 34BF     		ite	cc
 229 0066 0023     		movcc	r3, #0
 230 0068 0123     		movcs	r3, #1
 231 006a 002B     		cmp	r3, #0
 232 006c ECD1     		bne	.L11
 233              	.L8:
 234              		.loc 1 183 0
 235 006e 40F20001 		movw	r1, #:lower16:_port_exit_from_isr
 236 0072 C0F20001 		movt	r1, #:upper16:_port_exit_from_isr
 237 0076 42F8081C 		str	r1, [r2, #-8]
 238 007a 7047     		bx	lr
 239              	.LBE6:
 240              		.cfi_endproc
 241              	.LFE10:
 242              		.size	_port_irq_epilogue, .-_port_irq_epilogue
 243 007c AFF30080 		.section	.text.SysTickVector,"ax",%progbits
 244              		.align	2
 245              		.p2align 4,,15
 246              		.global	SysTickVector
 247              		.thumb
 248              		.thumb_func
 249              		.type	SysTickVector, %function
 250              	SysTickVector:
 251              	.LFB7:
 252              		.loc 1 47 0
 253              		.cfi_startproc
 254              		@ args = 0, pretend = 0, frame = 0
 255              		@ frame_needed = 0, uses_anonymous_args = 0
 256 0000 08B5     		push	{r3, lr}
 257              	.LCFI1:
 258              		.cfi_def_cfa_offset 8
 259              		.cfi_offset 14, -4
 260              		.cfi_offset 3, -8
 261              	.LBB7:
 262              		.loc 1 51 0
 263 0002 2023     		movs	r3, #32
 264              	.LVL11:
 265              	@ 51 "../../os/ports/GCC/ARMCMx/chcore_v7m.c" 1
 266 0004 83F31188 		msr     BASEPRI, r3
 267              	@ 0 "" 2
 268              	.LVL12:
 269              		.thumb
 270              	.LBE7:
 271              		.loc 1 52 0
 272 0008 FFF7FEFF 		bl	chSysTimerHandlerI
 273              	.LVL13:
 274              	.LBB8:
 275              		.loc 1 53 0
 276 000c 0023     		movs	r3, #0
 277              	.LVL14:
 278              	@ 53 "../../os/ports/GCC/ARMCMx/chcore_v7m.c" 1
ARM GAS  /tmp/ccYRHtwS.s 			page 6


 279 000e 83F31188 		msr     BASEPRI, r3
 280              	@ 0 "" 2
 281              	.LVL15:
 282              		.thumb
 283              	.LBE8:
 284              		.loc 1 56 0
 285 0012 BDE80840 		pop	{r3, lr}
 286              		.loc 1 55 0
 287 0016 FFF7FEBF 		b	_port_irq_epilogue
 288              	.LVL16:
 289              		.cfi_endproc
 290              	.LFE7:
 291              		.size	SysTickVector, .-SysTickVector
 292              		.section	.text._port_switch,"ax",%progbits
 293              		.align	2
 294              		.p2align 4,,15
 295              		.global	_port_switch
 296              		.thumb
 297              		.thumb_func
 298              		.type	_port_switch, %function
 299              	_port_switch:
 300              	.LFB12:
 301              		.loc 1 229 0
 302              		.cfi_startproc
 303              		@ Naked Function: prologue and epilogue provided by programmer.
 304              		@ args = 0, pretend = 0, frame = 0
 305              		@ frame_needed = 0, uses_anonymous_args = 0
 306              	.LVL17:
 307              		.loc 1 231 0
 308              	@ 231 "../../os/ports/GCC/ARMCMx/chcore_v7m.c" 1
 309 0000 2DE9F04F 		push    {r4, r5, r6, r7, r8, r9, r10, r11, lr}
 310              	@ 0 "" 2
 311              		.loc 1 237 0
 312              	@ 237 "../../os/ports/GCC/ARMCMx/chcore_v7m.c" 1
 313 0004 C1F80CD0 		str     sp, [r1, #12]                          
 314 0008 D0F80CD0 		ldr     sp, [r0, #12]
 315              	@ 0 "" 2
 316              		.loc 1 243 0
 317              	@ 243 "../../os/ports/GCC/ARMCMx/chcore_v7m.c" 1
 318 000c BDE8F08F 		pop     {r4, r5, r6, r7, r8, r9, r10, r11, pc}
 319              	@ 0 "" 2
 320              		.loc 1 245 0
 321              		.thumb
 322              		.cfi_endproc
 323              	.LFE12:
 324              		.size	_port_switch, .-_port_switch
 325              		.section	.text._port_thread_start,"ax",%progbits
 326              		.align	2
 327              		.p2align 4,,15
 328              		.global	_port_thread_start
 329              		.thumb
 330              		.thumb_func
 331              		.type	_port_thread_start, %function
 332              	_port_thread_start:
 333              	.LFB13:
 334              		.loc 1 252 0
 335              		.cfi_startproc
ARM GAS  /tmp/ccYRHtwS.s 			page 7


 336              		@ args = 0, pretend = 0, frame = 0
 337              		@ frame_needed = 0, uses_anonymous_args = 0
 338              		@ link register save eliminated.
 339              	.LBB9:
 340              		.loc 1 254 0
 341 0000 0023     		movs	r3, #0
 342              	.LVL18:
 343              	@ 254 "../../os/ports/GCC/ARMCMx/chcore_v7m.c" 1
 344 0002 83F31188 		msr     BASEPRI, r3
 345              	@ 0 "" 2
 346              	.LVL19:
 347              		.thumb
 348              	.LBE9:
 349              		.loc 1 255 0
 350              	@ 255 "../../os/ports/GCC/ARMCMx/chcore_v7m.c" 1
 351 0006 2846     		mov     r0, r5                                 
 352 0008 A047     		blx     r4                                     
 353 000a FFF7FEFF 		bl      chThdExit
 354              	@ 0 "" 2
 355              		.loc 1 258 0
 356              		.thumb
 357 000e 7047     		bx	lr
 358              		.cfi_endproc
 359              	.LFE13:
 360              		.size	_port_thread_start, .-_port_thread_start
 361              		.text
 362              	.Letext0:
 363              		.file 2 "/home/lithium/Documents/arm-2011q3/bin/../lib/gcc/arm-none-eabi/4.6.1/../../../../arm-non
 364              		.file 3 "../../os/ports/GCC/ARMCMx/chtypes.h"
 365              		.file 4 "../../os/kernel/include/chlists.h"
 366              		.file 5 "../../os/kernel/include/chthreads.h"
 367              		.file 6 "../../os/ports/GCC/ARMCMx/chcore_v7m.h"
 368              		.file 7 "../../os/ports/common/ARMCMx/nvic.h"
 369              		.file 8 "../../os/kernel/include/chschd.h"
 370              		.file 9 "../../os/kernel/include/chmtx.h"