ARM GAS  /tmp/ccMVx2Qr.s 			page 1


   1              		.syntax unified
   2              		.cpu cortex-m4
   3              		.fpu softvfp
   4              		.eabi_attribute 20, 1
   5              		.eabi_attribute 21, 1
   6              		.eabi_attribute 23, 3
   7              		.eabi_attribute 24, 1
   8              		.eabi_attribute 25, 1
   9              		.eabi_attribute 26, 1
  10              		.eabi_attribute 30, 2
  11              		.eabi_attribute 34, 1
  12              		.eabi_attribute 18, 4
  13              		.thumb
  14              		.file	"chmtx.c"
  15              		.text
  16              	.Ltext0:
  17              		.cfi_sections	.debug_frame
  18              		.section	.text.chMtxInit,"ax",%progbits
  19              		.align	2
  20              		.p2align 4,,15
  21              		.global	chMtxInit
  22              		.thumb
  23              		.thumb_func
  24              		.type	chMtxInit, %function
  25              	chMtxInit:
  26              	.LFB7:
  27              		.file 1 "../../os/kernel/src/chmtx.c"
  28              		.loc 1 86 0
  29              		.cfi_startproc
  30              		@ args = 0, pretend = 0, frame = 0
  31              		@ frame_needed = 0, uses_anonymous_args = 0
  32              		@ link register save eliminated.
  33              	.LVL0:
  34              		.loc 1 91 0
  35 0000 0023     		movs	r3, #0
  36              		.loc 1 90 0
  37 0002 4060     		str	r0, [r0, #4]
  38 0004 0060     		str	r0, [r0, #0]
  39              		.loc 1 91 0
  40 0006 8360     		str	r3, [r0, #8]
  41              		.loc 1 92 0
  42 0008 7047     		bx	lr
  43              		.cfi_endproc
  44              	.LFE7:
  45              		.size	chMtxInit, .-chMtxInit
  46 000a 00BFAFF3 		.section	.text.chMtxLockS,"ax",%progbits
  46      0080
  47              		.align	2
  48              		.p2align 4,,15
  49              		.global	chMtxLockS
  50              		.thumb
  51              		.thumb_func
  52              		.type	chMtxLockS, %function
  53              	chMtxLockS:
  54              	.LFB9:
  55              		.loc 1 121 0
  56              		.cfi_startproc
ARM GAS  /tmp/ccMVx2Qr.s 			page 2


  57              		@ args = 0, pretend = 0, frame = 0
  58              		@ frame_needed = 0, uses_anonymous_args = 0
  59              	.LVL1:
  60 0000 F8B5     		push	{r3, r4, r5, r6, r7, lr}
  61              	.LCFI0:
  62              		.cfi_def_cfa_offset 24
  63              		.cfi_offset 14, -4
  64              		.cfi_offset 7, -8
  65              		.cfi_offset 6, -12
  66              		.cfi_offset 5, -16
  67              		.cfi_offset 4, -20
  68              		.cfi_offset 3, -24
  69              		.loc 1 122 0
  70 0002 40F20003 		movw	r3, #:lower16:rlist
  71              		.loc 1 121 0
  72 0006 0546     		mov	r5, r0
  73              		.loc 1 122 0
  74 0008 C0F20003 		movt	r3, #:upper16:rlist
  75              		.loc 1 128 0
  76 000c 8068     		ldr	r0, [r0, #8]
  77              	.LVL2:
  78              		.loc 1 122 0
  79 000e 9C69     		ldr	r4, [r3, #24]
  80              	.LVL3:
  81              		.loc 1 128 0
  82 0010 0028     		cmp	r0, #0
  83 0012 50D0     		beq	.L3
  84              	.LVL4:
  85              	.LBB33:
  86              		.loc 1 135 0 discriminator 1
  87 0014 A268     		ldr	r2, [r4, #8]
  88 0016 8168     		ldr	r1, [r0, #8]
  89 0018 8A42     		cmp	r2, r1
  90 001a 06D9     		bls	.L4
  91              	.LVL5:
  92              	.L18:
  93              		.loc 1 139 0
  94 001c 037F     		ldrb	r3, [r0, #28]	@ zero_extendqisi2
  95              		.loc 1 137 0
  96 001e 8260     		str	r2, [r0, #8]
  97              		.loc 1 139 0
  98 0020 042B     		cmp	r3, #4
  99 0022 30D0     		beq	.L6
 100 0024 052B     		cmp	r3, #5
 101 0026 1BD0     		beq	.L7
 102 0028 93B1     		cbz	r3, .L5
 103              	.LVL6:
 104              	.L4:
 105              		.file 2 "../../os/kernel/include/chinline.h"
 106              		.loc 2 43 0
 107 002a 2B46     		mov	r3, r5
 108              	.LVL7:
 109              	.L14:
 110              	.LBB34:
 111              	.LBB35:
 112              		.loc 2 45 0
 113 002c 1B68     		ldr	r3, [r3, #0]
ARM GAS  /tmp/ccMVx2Qr.s 			page 3


 114              	.LVL8:
 115              		.loc 2 46 0
 116 002e 9D42     		cmp	r5, r3
 117 0030 03D0     		beq	.L13
 118 0032 9868     		ldr	r0, [r3, #8]
 119 0034 A268     		ldr	r2, [r4, #8]
 120 0036 9042     		cmp	r0, r2
 121 0038 F8D2     		bcs	.L14
 122              	.L13:
 123              		.loc 2 48 0
 124 003a 5968     		ldr	r1, [r3, #4]
 125              		.loc 2 47 0
 126 003c 2360     		str	r3, [r4, #0]
 127              	.LBE35:
 128              	.LBE34:
 129              		.loc 1 175 0
 130 003e 0420     		movs	r0, #4
 131              	.LBB37:
 132              	.LBB36:
 133              		.loc 2 48 0
 134 0040 6160     		str	r1, [r4, #4]
 135              		.loc 2 49 0
 136 0042 0C60     		str	r4, [r1, #0]
 137 0044 5C60     		str	r4, [r3, #4]
 138              	.LBE36:
 139              	.LBE37:
 140              		.loc 1 174 0
 141 0046 6562     		str	r5, [r4, #36]
 142              	.LBE33:
 143              		.loc 1 187 0
 144 0048 BDE8F840 		pop	{r3, r4, r5, r6, r7, lr}
 145              	.LBB58:
 146              		.loc 1 175 0
 147 004c FFF7FEBF 		b	chSchGoSleepS
 148              	.LVL9:
 149              	.L5:
 150              	.LBB38:
 151              	.LBB39:
 152              		.loc 2 75 0
 153 0050 90E80C00 		ldmia	r0, {r2, r3}
 154 0054 1A60     		str	r2, [r3, #0]
 155              		.loc 2 76 0
 156 0056 0168     		ldr	r1, [r0, #0]
 157 0058 4B60     		str	r3, [r1, #4]
 158              	.LBE39:
 159              	.LBE38:
 160              		.loc 1 167 0
 161 005a FFF7FEFF 		bl	chSchReadyI
 162              	.LVL10:
 163              		.loc 1 168 0
 164 005e E4E7     		b	.L4
 165              	.LVL11:
 166              	.L7:
 167              	.LBB40:
 168              	.LBB41:
 169              		.loc 2 75 0
 170 0060 4168     		ldr	r1, [r0, #4]
ARM GAS  /tmp/ccMVx2Qr.s 			page 4


 171 0062 0768     		ldr	r7, [r0, #0]
 172              	.LBE41:
 173              	.LBE40:
 174              		.loc 1 158 0
 175 0064 466A     		ldr	r6, [r0, #36]
 176              	.LVL12:
 177              	.LBB44:
 178              	.LBB42:
 179              		.loc 2 75 0
 180 0066 0F60     		str	r7, [r1, #0]
 181              		.loc 2 76 0
 182 0068 0768     		ldr	r7, [r0, #0]
 183              	.LBE42:
 184              	.LBE44:
 185              		.loc 2 43 0
 186 006a 3346     		mov	r3, r6
 187              	.LBB45:
 188              	.LBB43:
 189              		.loc 2 76 0
 190 006c 7960     		str	r1, [r7, #4]
 191              	.LVL13:
 192              	.L12:
 193              	.LBE43:
 194              	.LBE45:
 195              	.LBB46:
 196              	.LBB47:
 197              		.loc 2 45 0
 198 006e 1B68     		ldr	r3, [r3, #0]
 199              	.LVL14:
 200              		.loc 2 46 0
 201 0070 9E42     		cmp	r6, r3
 202 0072 02D0     		beq	.L11
 203 0074 9968     		ldr	r1, [r3, #8]
 204 0076 9142     		cmp	r1, r2
 205 0078 F9D2     		bcs	.L12
 206              	.L11:
 207              		.loc 2 48 0
 208 007a 5A68     		ldr	r2, [r3, #4]
 209              		.loc 2 47 0
 210 007c 0360     		str	r3, [r0, #0]
 211              		.loc 2 48 0
 212 007e 4260     		str	r2, [r0, #4]
 213              		.loc 2 49 0
 214 0080 1060     		str	r0, [r2, #0]
 215 0082 5860     		str	r0, [r3, #4]
 216 0084 D1E7     		b	.L4
 217              	.LVL15:
 218              	.L6:
 219              	.LBE47:
 220              	.LBE46:
 221              	.LBB48:
 222              	.LBB49:
 223              		.loc 2 75 0
 224 0086 4168     		ldr	r1, [r0, #4]
 225 0088 0768     		ldr	r7, [r0, #0]
 226              	.LBE49:
 227              	.LBE48:
ARM GAS  /tmp/ccMVx2Qr.s 			page 5


 228              		.loc 1 142 0
 229 008a 466A     		ldr	r6, [r0, #36]
 230              	.LVL16:
 231              	.LBB52:
 232              	.LBB50:
 233              		.loc 2 75 0
 234 008c 0F60     		str	r7, [r1, #0]
 235              		.loc 2 76 0
 236 008e 0768     		ldr	r7, [r0, #0]
 237              	.LBE50:
 238              	.LBE52:
 239              		.loc 1 142 0
 240 0090 3346     		mov	r3, r6
 241              	.LBB53:
 242              	.LBB51:
 243              		.loc 2 76 0
 244 0092 7960     		str	r1, [r7, #4]
 245              	.LVL17:
 246              	.L9:
 247              	.LBE51:
 248              	.LBE53:
 249              	.LBB54:
 250              	.LBB55:
 251              		.loc 2 45 0
 252 0094 1B68     		ldr	r3, [r3, #0]
 253              	.LVL18:
 254              		.loc 2 46 0
 255 0096 9E42     		cmp	r6, r3
 256 0098 12D0     		beq	.L15
 257 009a 9968     		ldr	r1, [r3, #8]
 258 009c 9142     		cmp	r1, r2
 259 009e F9D2     		bcs	.L9
 260              	.LVL19:
 261              	.L8:
 262              		.loc 2 48 0
 263 00a0 5A68     		ldr	r2, [r3, #4]
 264              		.loc 2 47 0
 265 00a2 0360     		str	r3, [r0, #0]
 266              		.loc 2 48 0
 267 00a4 4260     		str	r2, [r0, #4]
 268              		.loc 2 49 0
 269 00a6 1060     		str	r0, [r2, #0]
 270 00a8 5860     		str	r0, [r3, #4]
 271              	.LBE55:
 272              	.LBE54:
 273              		.loc 1 143 0
 274 00aa B068     		ldr	r0, [r6, #8]
 275              	.LVL20:
 276              		.loc 1 135 0
 277 00ac A268     		ldr	r2, [r4, #8]
 278 00ae 8368     		ldr	r3, [r0, #8]
 279              	.LVL21:
 280 00b0 9342     		cmp	r3, r2
 281 00b2 B3D3     		bcc	.L18
 282 00b4 B9E7     		b	.L4
 283              	.LVL22:
 284              	.L3:
ARM GAS  /tmp/ccMVx2Qr.s 			page 6


 285              	.LBE58:
 286              		.loc 1 184 0
 287 00b6 E36B     		ldr	r3, [r4, #60]
 288              		.loc 1 183 0
 289 00b8 AC60     		str	r4, [r5, #8]
 290              		.loc 1 184 0
 291 00ba EB60     		str	r3, [r5, #12]
 292              		.loc 1 185 0
 293 00bc E563     		str	r5, [r4, #60]
 294              		.loc 1 187 0
 295 00be F8BD     		pop	{r3, r4, r5, r6, r7, pc}
 296              	.LVL23:
 297              	.L15:
 298              	.LBB59:
 299              	.LBB57:
 300              	.LBB56:
 301              		.loc 2 45 0
 302 00c0 3346     		mov	r3, r6
 303              	.LVL24:
 304 00c2 EDE7     		b	.L8
 305              	.LBE56:
 306              	.LBE57:
 307              	.LBE59:
 308              		.cfi_endproc
 309              	.LFE9:
 310              		.size	chMtxLockS, .-chMtxLockS
 311 00c4 AFF30080 		.section	.text.chMtxLock,"ax",%progbits
 311      AFF30080 
 311      AFF30080 
 312              		.align	2
 313              		.p2align 4,,15
 314              		.global	chMtxLock
 315              		.thumb
 316              		.thumb_func
 317              		.type	chMtxLock, %function
 318              	chMtxLock:
 319              	.LFB8:
 320              		.loc 1 103 0
 321              		.cfi_startproc
 322              		@ args = 0, pretend = 0, frame = 0
 323              		@ frame_needed = 0, uses_anonymous_args = 0
 324              	.LVL25:
 325 0000 08B5     		push	{r3, lr}
 326              	.LCFI1:
 327              		.cfi_def_cfa_offset 8
 328              		.cfi_offset 14, -4
 329              		.cfi_offset 3, -8
 330              	.LBB60:
 331              		.loc 1 105 0
 332 0002 2023     		movs	r3, #32
 333              	.LVL26:
 334              	@ 105 "../../os/kernel/src/chmtx.c" 1
 335 0004 83F31188 		msr     BASEPRI, r3
 336              	@ 0 "" 2
 337              	.LVL27:
 338              		.thumb
 339              	.LBE60:
ARM GAS  /tmp/ccMVx2Qr.s 			page 7


 340              		.loc 1 107 0
 341 0008 FFF7FEFF 		bl	chMtxLockS
 342              	.LVL28:
 343              	.LBB61:
 344              		.loc 1 109 0
 345 000c 0023     		movs	r3, #0
 346              	.LVL29:
 347              	@ 109 "../../os/kernel/src/chmtx.c" 1
 348 000e 83F31188 		msr     BASEPRI, r3
 349              	@ 0 "" 2
 350              	.LVL30:
 351              		.thumb
 352              	.LBE61:
 353              		.loc 1 110 0
 354 0012 08BD     		pop	{r3, pc}
 355              		.cfi_endproc
 356              	.LFE8:
 357              		.size	chMtxLock, .-chMtxLock
 358 0014 AFF30080 		.section	.text.chMtxTryLock,"ax",%progbits
 358      AFF30080 
 358      AFF30080 
 359              		.align	2
 360              		.p2align 4,,15
 361              		.global	chMtxTryLock
 362              		.thumb
 363              		.thumb_func
 364              		.type	chMtxTryLock, %function
 365              	chMtxTryLock:
 366              	.LFB10:
 367              		.loc 1 206 0
 368              		.cfi_startproc
 369              		@ args = 0, pretend = 0, frame = 0
 370              		@ frame_needed = 0, uses_anonymous_args = 0
 371              		@ link register save eliminated.
 372              	.LVL31:
 373              		.loc 1 206 0
 374 0000 0246     		mov	r2, r0
 375              	.LBB62:
 376              		.loc 1 209 0
 377 0002 2023     		movs	r3, #32
 378              	.LVL32:
 379              	@ 209 "../../os/kernel/src/chmtx.c" 1
 380 0004 83F31188 		msr     BASEPRI, r3
 381              	@ 0 "" 2
 382              	.LVL33:
 383              		.thumb
 384              	.LBE62:
 385              	.LBB63:
 386              	.LBB64:
 387              		.loc 1 239 0
 388 0008 8368     		ldr	r3, [r0, #8]
 389              	.LVL34:
 390              		.loc 1 240 0
 391 000a 0020     		movs	r0, #0
 392              	.LVL35:
 393              		.loc 1 239 0
 394 000c 1BB1     		cbz	r3, .L28
ARM GAS  /tmp/ccMVx2Qr.s 			page 8


 395              	.LBE64:
 396              	.LBE63:
 397              	.LBB66:
 398              		.loc 1 213 0
 399 000e 0023     		movs	r3, #0
 400              	.LVL36:
 401              	@ 213 "../../os/kernel/src/chmtx.c" 1
 402 0010 83F31188 		msr     BASEPRI, r3
 403              	@ 0 "" 2
 404              	.LVL37:
 405              		.thumb
 406              	.LBE66:
 407              		.loc 1 215 0
 408 0014 7047     		bx	lr
 409              	.LVL38:
 410              	.L28:
 411              	.LBB67:
 412              	.LBB65:
 413              		.loc 1 241 0
 414 0016 40F2000C 		movw	ip, #:lower16:rlist
 415 001a C0F2000C 		movt	ip, #:upper16:rlist
 416              		.loc 1 244 0
 417 001e 0120     		movs	r0, #1
 418              		.loc 1 241 0
 419 0020 DCF81830 		ldr	r3, [ip, #24]
 420              		.loc 1 242 0
 421 0024 D96B     		ldr	r1, [r3, #60]
 422              		.loc 1 241 0
 423 0026 9360     		str	r3, [r2, #8]
 424              		.loc 1 242 0
 425 0028 D160     		str	r1, [r2, #12]
 426              		.loc 1 243 0
 427 002a DA63     		str	r2, [r3, #60]
 428              	.LBE65:
 429              	.LBE67:
 430              	.LBB68:
 431              		.loc 1 213 0
 432 002c 0023     		movs	r3, #0
 433              	@ 213 "../../os/kernel/src/chmtx.c" 1
 434 002e 83F31188 		msr     BASEPRI, r3
 435              	@ 0 "" 2
 436              	.LVL39:
 437              		.thumb
 438              	.LBE68:
 439              		.loc 1 215 0
 440 0032 7047     		bx	lr
 441              		.cfi_endproc
 442              	.LFE10:
 443              		.size	chMtxTryLock, .-chMtxTryLock
 444 0034 AFF30080 		.section	.text.chMtxTryLockS,"ax",%progbits
 444      AFF30080 
 444      AFF30080 
 445              		.align	2
 446              		.p2align 4,,15
 447              		.global	chMtxTryLockS
 448              		.thumb
 449              		.thumb_func
ARM GAS  /tmp/ccMVx2Qr.s 			page 9


 450              		.type	chMtxTryLockS, %function
 451              	chMtxTryLockS:
 452              	.LFB11:
 453              		.loc 1 234 0
 454              		.cfi_startproc
 455              		@ args = 0, pretend = 0, frame = 0
 456              		@ frame_needed = 0, uses_anonymous_args = 0
 457              		@ link register save eliminated.
 458              	.LVL40:
 459              		.loc 1 239 0
 460 0000 8268     		ldr	r2, [r0, #8]
 461              		.loc 1 234 0
 462 0002 0346     		mov	r3, r0
 463              		.loc 1 239 0
 464 0004 0AB1     		cbz	r2, .L32
 465              		.loc 1 240 0
 466 0006 0020     		movs	r0, #0
 467              	.LVL41:
 468              		.loc 1 245 0
 469 0008 7047     		bx	lr
 470              	.L32:
 471              		.loc 1 241 0
 472 000a 40F2000C 		movw	ip, #:lower16:rlist
 473 000e C0F2000C 		movt	ip, #:upper16:rlist
 474              		.loc 1 244 0
 475 0012 0120     		movs	r0, #1
 476              		.loc 1 241 0
 477 0014 DCF81820 		ldr	r2, [ip, #24]
 478              		.loc 1 242 0
 479 0018 D16B     		ldr	r1, [r2, #60]
 480              		.loc 1 241 0
 481 001a 9A60     		str	r2, [r3, #8]
 482              		.loc 1 242 0
 483 001c D960     		str	r1, [r3, #12]
 484              		.loc 1 243 0
 485 001e D363     		str	r3, [r2, #60]
 486              		.loc 1 244 0
 487 0020 7047     		bx	lr
 488              		.cfi_endproc
 489              	.LFE11:
 490              		.size	chMtxTryLockS, .-chMtxTryLockS
 491 0022 00BFAFF3 		.section	.text.chMtxUnlock,"ax",%progbits
 491      0080AFF3 
 491      0080AFF3 
 491      0080
 492              		.align	2
 493              		.p2align 4,,15
 494              		.global	chMtxUnlock
 495              		.thumb
 496              		.thumb_func
 497              		.type	chMtxUnlock, %function
 498              	chMtxUnlock:
 499              	.LFB12:
 500              		.loc 1 257 0
 501              		.cfi_startproc
 502              		@ args = 0, pretend = 0, frame = 0
 503              		@ frame_needed = 0, uses_anonymous_args = 0
ARM GAS  /tmp/ccMVx2Qr.s 			page 10


 504              		.loc 1 258 0
 505 0000 40F20002 		movw	r2, #:lower16:rlist
 506 0004 C0F20002 		movt	r2, #:upper16:rlist
 507              		.loc 1 257 0
 508 0008 F8B5     		push	{r3, r4, r5, r6, r7, lr}
 509              	.LCFI2:
 510              		.cfi_def_cfa_offset 24
 511              		.cfi_offset 14, -4
 512              		.cfi_offset 7, -8
 513              		.cfi_offset 6, -12
 514              		.cfi_offset 5, -16
 515              		.cfi_offset 4, -20
 516              		.cfi_offset 3, -24
 517              		.loc 1 258 0
 518 000a 9269     		ldr	r2, [r2, #24]
 519              	.LVL42:
 520              	.LBB69:
 521              		.loc 1 261 0
 522 000c 2023     		movs	r3, #32
 523              	.LVL43:
 524              	@ 261 "../../os/kernel/src/chmtx.c" 1
 525 000e 83F31188 		msr     BASEPRI, r3
 526              	@ 0 "" 2
 527              	.LVL44:
 528              		.thumb
 529              	.LBE69:
 530              		.loc 1 270 0
 531 0012 D46B     		ldr	r4, [r2, #60]
 532              	.LVL45:
 533              		.loc 1 273 0
 534 0014 2368     		ldr	r3, [r4, #0]
 535              	.LVL46:
 536              		.loc 1 271 0
 537 0016 E168     		ldr	r1, [r4, #12]
 538              		.loc 1 273 0
 539 0018 A342     		cmp	r3, r4
 540              		.loc 1 271 0
 541 001a D163     		str	r1, [r2, #60]
 542              		.loc 1 273 0
 543 001c 1CD0     		beq	.L34
 544              	.LBB70:
 545              		.loc 1 278 0
 546 001e 176C     		ldr	r7, [r2, #64]
 547              	.LVL47:
 548              		.loc 1 280 0
 549 0020 49B1     		cbz	r1, .L35
 550              	.LVL48:
 551              	.L39:
 552              		.loc 1 284 0
 553 0022 0868     		ldr	r0, [r1, #0]
 554 0024 8842     		cmp	r0, r1
 555 0026 03D0     		beq	.L36
 556              		.loc 1 284 0 is_stmt 0 discriminator 1
 557 0028 8068     		ldr	r0, [r0, #8]
 558 002a 8742     		cmp	r7, r0
 559 002c 38BF     		it	cc
 560 002e 0746     		movcc	r7, r0
ARM GAS  /tmp/ccMVx2Qr.s 			page 11


 561              	.LVL49:
 562              	.L36:
 563              		.loc 1 286 0 is_stmt 1
 564 0030 C968     		ldr	r1, [r1, #12]
 565              	.LVL50:
 566              		.loc 1 280 0
 567 0032 0029     		cmp	r1, #0
 568 0034 F5D1     		bne	.L39
 569              	.L35:
 570              	.LBB71:
 571              	.LBB72:
 572              		.loc 2 62 0
 573 0036 1D68     		ldr	r5, [r3, #0]
 574              	.LBE72:
 575              	.LBE71:
 576              		.loc 1 295 0
 577 0038 DE6B     		ldr	r6, [r3, #60]
 578              		.loc 1 290 0
 579 003a 9760     		str	r7, [r2, #8]
 580              	.LVL51:
 581              		.loc 1 297 0
 582 003c 1846     		mov	r0, r3
 583              	.LBB75:
 584              	.LBB73:
 585              		.loc 2 62 0
 586 003e 2560     		str	r5, [r4, #0]
 587              	.LBE73:
 588              	.LBE75:
 589              		.loc 1 297 0
 590 0040 0021     		movs	r1, #0
 591              	.LVL52:
 592              	.LBB76:
 593              	.LBB74:
 594              		.loc 2 62 0
 595 0042 6C60     		str	r4, [r5, #4]
 596              	.LBE74:
 597              	.LBE76:
 598              		.loc 1 294 0
 599 0044 A360     		str	r3, [r4, #8]
 600              		.loc 1 295 0
 601 0046 E660     		str	r6, [r4, #12]
 602              		.loc 1 296 0
 603 0048 DC63     		str	r4, [r3, #60]
 604              		.loc 1 297 0
 605 004a FFF7FEFF 		bl	chSchWakeupS
 606              	.LVL53:
 607              	.LBE70:
 608              	.LBB77:
 609              		.loc 1 301 0
 610 004e 0023     		movs	r3, #0
 611              	.LVL54:
 612              	@ 301 "../../os/kernel/src/chmtx.c" 1
 613 0050 83F31188 		msr     BASEPRI, r3
 614              	@ 0 "" 2
 615              	.LVL55:
 616              		.thumb
 617              	.LBE77:
ARM GAS  /tmp/ccMVx2Qr.s 			page 12


 618              		.loc 1 303 0
 619 0054 2046     		mov	r0, r4
 620 0056 F8BD     		pop	{r3, r4, r5, r6, r7, pc}
 621              	.LVL56:
 622              	.L34:
 623              		.loc 1 300 0
 624 0058 0023     		movs	r3, #0
 625 005a A360     		str	r3, [r4, #8]
 626              	.LBB78:
 627              		.loc 1 301 0
 628 005c 0023     		movs	r3, #0
 629              	@ 301 "../../os/kernel/src/chmtx.c" 1
 630 005e 83F31188 		msr     BASEPRI, r3
 631              	@ 0 "" 2
 632              	.LVL57:
 633              		.thumb
 634              	.LBE78:
 635              		.loc 1 303 0
 636 0062 2046     		mov	r0, r4
 637 0064 F8BD     		pop	{r3, r4, r5, r6, r7, pc}
 638              		.cfi_endproc
 639              	.LFE12:
 640              		.size	chMtxUnlock, .-chMtxUnlock
 641 0066 00BFAFF3 		.section	.text.chMtxUnlockS,"ax",%progbits
 641      0080AFF3 
 641      0080
 642              		.align	2
 643              		.p2align 4,,15
 644              		.global	chMtxUnlockS
 645              		.thumb
 646              		.thumb_func
 647              		.type	chMtxUnlockS, %function
 648              	chMtxUnlockS:
 649              	.LFB13:
 650              		.loc 1 317 0
 651              		.cfi_startproc
 652              		@ args = 0, pretend = 0, frame = 0
 653              		@ frame_needed = 0, uses_anonymous_args = 0
 654              		.loc 1 318 0
 655 0000 40F20003 		movw	r3, #:lower16:rlist
 656 0004 C0F20003 		movt	r3, #:upper16:rlist
 657              		.loc 1 317 0
 658 0008 70B5     		push	{r4, r5, r6, lr}
 659              	.LCFI3:
 660              		.cfi_def_cfa_offset 16
 661              		.cfi_offset 14, -4
 662              		.cfi_offset 6, -8
 663              		.cfi_offset 5, -12
 664              		.cfi_offset 4, -16
 665              		.loc 1 318 0
 666 000a 9969     		ldr	r1, [r3, #24]
 667              	.LVL58:
 668              		.loc 1 331 0
 669 000c CC6B     		ldr	r4, [r1, #60]
 670              	.LVL59:
 671              		.loc 1 334 0
 672 000e 2368     		ldr	r3, [r4, #0]
ARM GAS  /tmp/ccMVx2Qr.s 			page 13


 673              	.LVL60:
 674              		.loc 1 332 0
 675 0010 E268     		ldr	r2, [r4, #12]
 676              		.loc 1 334 0
 677 0012 A342     		cmp	r3, r4
 678              		.loc 1 332 0
 679 0014 CA63     		str	r2, [r1, #60]
 680              		.loc 1 334 0
 681 0016 18D0     		beq	.L42
 682              	.LBB79:
 683              		.loc 1 339 0
 684 0018 0E6C     		ldr	r6, [r1, #64]
 685              	.LVL61:
 686              		.loc 1 341 0
 687 001a 4AB1     		cbz	r2, .L43
 688              	.LVL62:
 689              	.L47:
 690              		.loc 1 345 0
 691 001c 1068     		ldr	r0, [r2, #0]
 692 001e 9042     		cmp	r0, r2
 693 0020 03D0     		beq	.L44
 694              		.loc 1 345 0 is_stmt 0 discriminator 1
 695 0022 8068     		ldr	r0, [r0, #8]
 696 0024 8642     		cmp	r6, r0
 697 0026 38BF     		it	cc
 698 0028 0646     		movcc	r6, r0
 699              	.LVL63:
 700              	.L44:
 701              		.loc 1 347 0 is_stmt 1
 702 002a D268     		ldr	r2, [r2, #12]
 703              	.LVL64:
 704              		.loc 1 341 0
 705 002c 002A     		cmp	r2, #0
 706 002e F5D1     		bne	.L47
 707              	.L43:
 708              	.LBB80:
 709              	.LBB81:
 710              		.loc 2 62 0
 711 0030 1A68     		ldr	r2, [r3, #0]
 712              	.LVL65:
 713              	.LBE81:
 714              	.LBE80:
 715              		.loc 1 354 0
 716 0032 DD6B     		ldr	r5, [r3, #60]
 717              		.loc 1 349 0
 718 0034 8E60     		str	r6, [r1, #8]
 719              	.LVL66:
 720              		.loc 1 356 0
 721 0036 1846     		mov	r0, r3
 722              	.LBB83:
 723              	.LBB82:
 724              		.loc 2 62 0
 725 0038 2260     		str	r2, [r4, #0]
 726 003a 5460     		str	r4, [r2, #4]
 727              	.LBE82:
 728              	.LBE83:
 729              		.loc 1 353 0
ARM GAS  /tmp/ccMVx2Qr.s 			page 14


 730 003c A360     		str	r3, [r4, #8]
 731              		.loc 1 354 0
 732 003e E560     		str	r5, [r4, #12]
 733              		.loc 1 355 0
 734 0040 DC63     		str	r4, [r3, #60]
 735              		.loc 1 356 0
 736 0042 FFF7FEFF 		bl	chSchReadyI
 737              	.LVL67:
 738              	.LBE79:
 739              		.loc 1 361 0
 740 0046 2046     		mov	r0, r4
 741 0048 70BD     		pop	{r4, r5, r6, pc}
 742              	.LVL68:
 743              	.L42:
 744              		.loc 1 359 0
 745 004a 0021     		movs	r1, #0
 746              	.LVL69:
 747 004c A160     		str	r1, [r4, #8]
 748              		.loc 1 361 0
 749 004e 2046     		mov	r0, r4
 750 0050 70BD     		pop	{r4, r5, r6, pc}
 751              		.cfi_endproc
 752              	.LFE13:
 753              		.size	chMtxUnlockS, .-chMtxUnlockS
 754 0052 00BFAFF3 		.section	.text.chMtxUnlockAll,"ax",%progbits
 754      0080AFF3 
 754      0080AFF3 
 754      0080
 755              		.align	2
 756              		.p2align 4,,15
 757              		.global	chMtxUnlockAll
 758              		.thumb
 759              		.thumb_func
 760              		.type	chMtxUnlockAll, %function
 761              	chMtxUnlockAll:
 762              	.LFB14:
 763              		.loc 1 374 0
 764              		.cfi_startproc
 765              		@ args = 0, pretend = 0, frame = 0
 766              		@ frame_needed = 0, uses_anonymous_args = 0
 767              		.loc 1 375 0
 768 0000 40F20002 		movw	r2, #:lower16:rlist
 769 0004 C0F20002 		movt	r2, #:upper16:rlist
 770              		.loc 1 374 0
 771 0008 70B5     		push	{r4, r5, r6, lr}
 772              	.LCFI4:
 773              		.cfi_def_cfa_offset 16
 774              		.cfi_offset 14, -4
 775              		.cfi_offset 6, -8
 776              		.cfi_offset 5, -12
 777              		.cfi_offset 4, -16
 778              	.LBB84:
 779              		.loc 1 377 0
 780 000a 2023     		movs	r3, #32
 781              	.LVL70:
 782              	.LBE84:
 783              		.loc 1 375 0
ARM GAS  /tmp/ccMVx2Qr.s 			page 15


 784 000c 9469     		ldr	r4, [r2, #24]
 785              	.LVL71:
 786              	.LBB85:
 787              		.loc 1 377 0
 788              	@ 377 "../../os/kernel/src/chmtx.c" 1
 789 000e 83F31188 		msr     BASEPRI, r3
 790              	@ 0 "" 2
 791              	.LVL72:
 792              		.thumb
 793              	.LBE85:
 794              		.loc 1 378 0
 795 0012 E36B     		ldr	r3, [r4, #60]
 796              	.LVL73:
 797 0014 C3B1     		cbz	r3, .L50
 798              	.LBB86:
 799              		.loc 1 390 0
 800 0016 0025     		movs	r5, #0
 801              	.LVL74:
 802              	.L54:
 803              		.loc 1 382 0
 804 0018 1A68     		ldr	r2, [r3, #0]
 805              		.loc 1 381 0
 806 001a D968     		ldr	r1, [r3, #12]
 807              		.loc 1 382 0
 808 001c 9A42     		cmp	r2, r3
 809              		.loc 1 381 0
 810 001e E163     		str	r1, [r4, #60]
 811              		.loc 1 390 0
 812 0020 08BF     		it	eq
 813 0022 9D60     		streq	r5, [r3, #8]
 814              		.loc 1 382 0
 815 0024 09D0     		beq	.L52
 816              	.LVL75:
 817              	.LBB87:
 818              	.LBB88:
 819              	.LBB89:
 820              		.loc 2 62 0
 821 0026 1168     		ldr	r1, [r2, #0]
 822              	.LBE89:
 823              	.LBE88:
 824              		.loc 1 385 0
 825 0028 D66B     		ldr	r6, [r2, #60]
 826              	.LBB92:
 827              	.LBB90:
 828              		.loc 2 62 0
 829 002a 1960     		str	r1, [r3, #0]
 830              	.LBE90:
 831              	.LBE92:
 832              		.loc 1 387 0
 833 002c 1046     		mov	r0, r2
 834              	.LBB93:
 835              	.LBB91:
 836              		.loc 2 62 0
 837 002e 4B60     		str	r3, [r1, #4]
 838              	.LBE91:
 839              	.LBE93:
 840              		.loc 1 384 0
ARM GAS  /tmp/ccMVx2Qr.s 			page 16


 841 0030 9A60     		str	r2, [r3, #8]
 842              		.loc 1 385 0
 843 0032 DE60     		str	r6, [r3, #12]
 844              		.loc 1 386 0
 845 0034 D363     		str	r3, [r2, #60]
 846              		.loc 1 387 0
 847 0036 FFF7FEFF 		bl	chSchReadyI
 848              	.LVL76:
 849              	.L52:
 850              	.LBE87:
 851              	.LBE86:
 852              		.loc 1 391 0
 853 003a E36B     		ldr	r3, [r4, #60]
 854 003c 002B     		cmp	r3, #0
 855 003e EBD1     		bne	.L54
 856              		.loc 1 392 0
 857 0040 236C     		ldr	r3, [r4, #64]
 858 0042 A360     		str	r3, [r4, #8]
 859              		.loc 1 393 0
 860 0044 FFF7FEFF 		bl	chSchRescheduleS
 861              	.L50:
 862              	.LBB94:
 863              		.loc 1 395 0
 864 0048 0023     		movs	r3, #0
 865              	.LVL77:
 866              	@ 395 "../../os/kernel/src/chmtx.c" 1
 867 004a 83F31188 		msr     BASEPRI, r3
 868              	@ 0 "" 2
 869              	.LVL78:
 870              		.thumb
 871              	.LBE94:
 872              		.loc 1 396 0
 873 004e 70BD     		pop	{r4, r5, r6, pc}
 874              		.cfi_endproc
 875              	.LFE14:
 876              		.size	chMtxUnlockAll, .-chMtxUnlockAll
 877              		.text
 878              	.Letext0:
 879              		.file 3 "/home/lithium/Documents/arm-2011q3/bin/../lib/gcc/arm-none-eabi/4.6.1/../../../../arm-non
 880              		.file 4 "../../os/ports/GCC/ARMCMx/chtypes.h"
 881              		.file 5 "../../os/kernel/include/chlists.h"
 882              		.file 6 "../../os/kernel/include/chthreads.h"
 883              		.file 7 "../../os/ports/GCC/ARMCMx/chcore_v7m.h"
 884              		.file 8 "../../os/kernel/include/chschd.h"
 885              		.file 9 "../../os/kernel/include/chmtx.h"