ARM GAS  /tmp/ccghjEXC.s 			page 1


   1              		.syntax unified
   2              		.cpu cortex-m4
   3              		.fpu softvfp
   4              		.eabi_attribute 20, 1
   5              		.eabi_attribute 21, 1
   6              		.eabi_attribute 23, 3
   7              		.eabi_attribute 24, 1
   8              		.eabi_attribute 25, 1
   9              		.eabi_attribute 26, 1
  10              		.eabi_attribute 30, 2
  11              		.eabi_attribute 34, 1
  12              		.eabi_attribute 18, 4
  13              		.thumb
  14              		.file	"chprintf.c"
  15              		.text
  16              	.Ltext0:
  17              		.cfi_sections	.debug_frame
  18              		.section	.text.chvprintf,"ax",%progbits
  19              		.align	2
  20              		.p2align 4,,15
  21              		.global	chvprintf
  22              		.thumb
  23              		.thumb_func
  24              		.type	chvprintf, %function
  25              	chvprintf:
  26              	.LFB10:
  27              		.file 1 "../../os/various/chprintf.c"
  28              		.loc 1 112 0
  29              		.cfi_startproc
  30              		@ args = 0, pretend = 0, frame = 40
  31              		@ frame_needed = 0, uses_anonymous_args = 0
  32              	.LVL0:
  33 0000 2DE9F04F 		push	{r4, r5, r6, r7, r8, r9, sl, fp, lr}
  34              	.LCFI0:
  35              		.cfi_def_cfa_offset 36
  36              		.cfi_offset 14, -4
  37              		.cfi_offset 11, -8
  38              		.cfi_offset 10, -12
  39              		.cfi_offset 9, -16
  40              		.cfi_offset 8, -20
  41              		.cfi_offset 7, -24
  42              		.cfi_offset 6, -28
  43              		.cfi_offset 5, -32
  44              		.cfi_offset 4, -36
  45 0004 8BB0     		sub	sp, sp, #44
  46              	.LCFI1:
  47              		.cfi_def_cfa_offset 80
  48              		.loc 1 132 0
  49 0006 07AC     		add	r4, sp, #28
  50              		.loc 1 236 0
  51 0008 0DF11D07 		add	r7, sp, #29
  52              		.loc 1 132 0
  53 000c 0194     		str	r4, [sp, #4]
  54              		.loc 1 236 0
  55 000e 0097     		str	r7, [sp, #0]
  56              		.loc 1 112 0
  57 0010 1646     		mov	r6, r2
ARM GAS  /tmp/ccghjEXC.s 			page 2


  58              	.LVL1:
  59              		.loc 1 236 0
  60 0012 9DE80C00 		ldmia	sp, {r2, r3}
  61              	.LVL2:
  62              		.loc 1 187 0
  63 0016 40F20007 		movw	r7, #:lower16:.LC0
  64              		.loc 1 236 0
  65 001a D21A     		subs	r2, r2, r3
  66              	.LBB12:
  67              	.LBB13:
  68              	.LBB14:
  69              		.loc 1 54 0
  70 001c 4CF6CD43 		movw	r3, #52429
  71 0020 CCF6CC43 		movt	r3, 52428
  72              	.LBE14:
  73              	.LBE13:
  74              	.LBE12:
  75              		.loc 1 187 0
  76 0024 C0F20007 		movt	r7, #:upper16:.LC0
  77              		.loc 1 112 0
  78 0028 0546     		mov	r5, r0
  79 002a 0C46     		mov	r4, r1
  80              		.loc 1 236 0
  81 002c 0592     		str	r2, [sp, #20]
  82              	.LBB25:
  83              	.LBB20:
  84              	.LBB15:
  85              		.loc 1 54 0
  86 002e 0493     		str	r3, [sp, #16]
  87              	.LBE15:
  88              	.LBE20:
  89              	.LBE25:
  90              		.loc 1 187 0
  91 0030 0397     		str	r7, [sp, #12]
  92              	.LVL3:
  93              	.L98:
  94              		.loc 1 125 0
  95 0032 2178     		ldrb	r1, [r4, #0]	@ zero_extendqisi2
  96              	.LVL4:
  97              		.loc 1 126 0
  98 0034 51B1     		cbz	r1, .L1
  99              	.LVL5:
 100              	.L116:
 101              		.loc 1 125 0
 102 0036 671C     		adds	r7, r4, #1
 103              		.loc 1 128 0
 104 0038 2529     		cmp	r1, #37
 105 003a 0AD0     		beq	.L4
 106              		.loc 1 129 0
 107 003c 2A68     		ldr	r2, [r5, #0]
 108              		.loc 1 125 0
 109 003e 3C46     		mov	r4, r7
 110              		.loc 1 129 0
 111 0040 2846     		mov	r0, r5
 112 0042 9368     		ldr	r3, [r2, #8]
 113 0044 9847     		blx	r3
 114              	.LVL6:
ARM GAS  /tmp/ccghjEXC.s 			page 3


 115              		.loc 1 125 0
 116 0046 2178     		ldrb	r1, [r4, #0]	@ zero_extendqisi2
 117              	.LVL7:
 118              		.loc 1 126 0
 119 0048 0029     		cmp	r1, #0
 120 004a F4D1     		bne	.L116
 121              	.LVL8:
 122              	.L1:
 123              		.loc 1 261 0
 124 004c 0BB0     		add	sp, sp, #44
 125 004e BDE8F08F 		pop	{r4, r5, r6, r7, r8, r9, sl, fp, pc}
 126              	.L4:
 127              	.LVL9:
 128              		.loc 1 135 0
 129 0052 6378     		ldrb	r3, [r4, #1]	@ zero_extendqisi2
 130 0054 2D2B     		cmp	r3, #45
 131 0056 00F0F981 		beq	.L117
 132              		.loc 1 134 0
 133 005a 0021     		movs	r1, #0
 134 005c 0291     		str	r1, [sp, #8]
 135              	.LVL10:
 136              	.L6:
 137              		.loc 1 140 0
 138 005e A3F12E02 		sub	r2, r3, #46
 139 0062 D2F10008 		rsbs	r8, r2, #0
 140 0066 48EB0204 		adc	r4, r8, r2
 141 006a 302B     		cmp	r3, #48
 142 006c 08BF     		it	eq
 143 006e 44F00104 		orreq	r4, r4, #1
 144              		.loc 1 139 0
 145 0072 4FF02009 		mov	r9, #32
 146              		.loc 1 140 0
 147 0076 1CB1     		cbz	r4, .L7
 148              	.LVL11:
 149              		.loc 1 141 0
 150 0078 7B78     		ldrb	r3, [r7, #1]	@ zero_extendqisi2
 151              		.loc 1 142 0
 152 007a 4FF03009 		mov	r9, #48
 153              		.loc 1 141 0
 154 007e 0137     		adds	r7, r7, #1
 155              	.LVL12:
 156              	.L7:
 157              		.loc 1 112 0
 158 0080 3C46     		mov	r4, r7
 159              		.loc 1 144 0
 160 0082 4FF0000B 		mov	fp, #0
 161 0086 07E0     		b	.L10
 162              	.LVL13:
 163              	.L118:
 164              		.loc 1 150 0
 165 0088 3278     		ldrb	r2, [r6, #0]	@ zero_extendqisi2
 166              	.LVL14:
 167 008a 0436     		adds	r6, r6, #4
 168              	.LVL15:
 169              	.L8:
 170              		.loc 1 153 0
 171 008c 0BEB8B03 		add	r3, fp, fp, lsl #2
ARM GAS  /tmp/ccghjEXC.s 			page 4


 172 0090 02EB430B 		add	fp, r2, r3, lsl #1
 173              	.LVL16:
 174 0094 17F8013F 		ldrb	r3, [r7, #1]!	@ zero_extendqisi2
 175              	.LVL17:
 176              	.L10:
 177              		.loc 1 147 0
 178 0098 A3F13000 		sub	r0, r3, #48
 179 009c C2B2     		uxtb	r2, r0
 180              		.loc 1 146 0
 181 009e 0134     		adds	r4, r4, #1
 182              	.LVL18:
 183              		.loc 1 147 0
 184 00a0 092A     		cmp	r2, #9
 185 00a2 F3D9     		bls	.L8
 186              		.loc 1 149 0
 187 00a4 2A2B     		cmp	r3, #42
 188 00a6 EFD0     		beq	.L118
 189              	.LVL19:
 190              		.loc 1 155 0
 191 00a8 0021     		movs	r1, #0
 192              		.loc 1 156 0
 193 00aa 2E2B     		cmp	r3, #46
 194 00ac 00F0BA81 		beq	.L119
 195              	.LVL20:
 196              	.L11:
 197              		.loc 1 170 0
 198 00b0 A3F16C08 		sub	r8, r3, #108
 199 00b4 D8F10007 		rsbs	r7, r8, #0
 200 00b8 47EB0802 		adc	r2, r7, r8
 201 00bc 4C2B     		cmp	r3, #76
 202 00be 08BF     		it	eq
 203 00c0 42F00102 		orreq	r2, r2, #1
 204 00c4 1AB1     		cbz	r2, .L15
 205              	.LVL21:
 206              		.loc 1 172 0
 207 00c6 2278     		ldrb	r2, [r4, #0]	@ zero_extendqisi2
 208 00c8 0AB1     		cbz	r2, .L15
 209              	.LVL22:
 210              		.loc 1 173 0
 211 00ca 0134     		adds	r4, r4, #1
 212              	.LVL23:
 213 00cc 1346     		mov	r3, r2
 214              	.LVL24:
 215              	.L15:
 216              		.loc 1 179 0
 217 00ce A3F14400 		sub	r0, r3, #68
 218 00d2 3428     		cmp	r0, #52
 219 00d4 00F25E81 		bhi	.L16
 220 00d8 DFE810F0 		tbh	[pc, r0, lsl #1]
 221              	.L23:
 222 00dc 1601     		.2byte	(.L17-.L23)/2
 223 00de 5C01     		.2byte	(.L16-.L23)/2
 224 00e0 5C01     		.2byte	(.L16-.L23)/2
 225 00e2 5C01     		.2byte	(.L16-.L23)/2
 226 00e4 5C01     		.2byte	(.L16-.L23)/2
 227 00e6 1601     		.2byte	(.L17-.L23)/2
 228 00e8 5C01     		.2byte	(.L16-.L23)/2
ARM GAS  /tmp/ccghjEXC.s 			page 5


 229 00ea 5C01     		.2byte	(.L16-.L23)/2
 230 00ec 5C01     		.2byte	(.L16-.L23)/2
 231 00ee 5C01     		.2byte	(.L16-.L23)/2
 232 00f0 5C01     		.2byte	(.L16-.L23)/2
 233 00f2 A001     		.2byte	(.L18-.L23)/2
 234 00f4 5C01     		.2byte	(.L16-.L23)/2
 235 00f6 5C01     		.2byte	(.L16-.L23)/2
 236 00f8 5C01     		.2byte	(.L16-.L23)/2
 237 00fa 5C01     		.2byte	(.L16-.L23)/2
 238 00fc 5C01     		.2byte	(.L16-.L23)/2
 239 00fe 6301     		.2byte	(.L51-.L23)/2
 240 0100 5C01     		.2byte	(.L16-.L23)/2
 241 0102 5C01     		.2byte	(.L16-.L23)/2
 242 0104 A201     		.2byte	(.L20-.L23)/2
 243 0106 5C01     		.2byte	(.L16-.L23)/2
 244 0108 5C01     		.2byte	(.L16-.L23)/2
 245 010a 5C01     		.2byte	(.L16-.L23)/2
 246 010c 5C01     		.2byte	(.L16-.L23)/2
 247 010e 5C01     		.2byte	(.L16-.L23)/2
 248 0110 5C01     		.2byte	(.L16-.L23)/2
 249 0112 5C01     		.2byte	(.L16-.L23)/2
 250 0114 5C01     		.2byte	(.L16-.L23)/2
 251 0116 5C01     		.2byte	(.L16-.L23)/2
 252 0118 5C01     		.2byte	(.L16-.L23)/2
 253 011a C900     		.2byte	(.L21-.L23)/2
 254 011c 1601     		.2byte	(.L17-.L23)/2
 255 011e 5C01     		.2byte	(.L16-.L23)/2
 256 0120 5C01     		.2byte	(.L16-.L23)/2
 257 0122 5C01     		.2byte	(.L16-.L23)/2
 258 0124 5C01     		.2byte	(.L16-.L23)/2
 259 0126 1601     		.2byte	(.L17-.L23)/2
 260 0128 5C01     		.2byte	(.L16-.L23)/2
 261 012a 5C01     		.2byte	(.L16-.L23)/2
 262 012c 5C01     		.2byte	(.L16-.L23)/2
 263 012e 5C01     		.2byte	(.L16-.L23)/2
 264 0130 5C01     		.2byte	(.L16-.L23)/2
 265 0132 A001     		.2byte	(.L18-.L23)/2
 266 0134 5C01     		.2byte	(.L16-.L23)/2
 267 0136 5C01     		.2byte	(.L16-.L23)/2
 268 0138 5C01     		.2byte	(.L16-.L23)/2
 269 013a 3500     		.2byte	(.L22-.L23)/2
 270 013c 5C01     		.2byte	(.L16-.L23)/2
 271 013e 6301     		.2byte	(.L51-.L23)/2
 272 0140 5C01     		.2byte	(.L16-.L23)/2
 273 0142 5C01     		.2byte	(.L16-.L23)/2
 274 0144 A201     		.2byte	(.L20-.L23)/2
 275              	.L22:
 276              	.LVL25:
 277              		.loc 1 186 0
 278 0146 3268     		ldr	r2, [r6, #0]
 279              		.loc 1 187 0
 280 0148 DDF80C80 		ldr	r8, [sp, #12]
 281 014c 002A     		cmp	r2, #0
 282 014e 18BF     		it	ne
 283 0150 9046     		movne	r8, r2
 284              		.loc 1 189 0
 285 0152 47F6FF79 		movw	r9, #32767
ARM GAS  /tmp/ccghjEXC.s 			page 6


 286              		.loc 1 190 0
 287 0156 98F80030 		ldrb	r3, [r8, #0]	@ zero_extendqisi2
 288              	.LVL26:
 289              		.loc 1 189 0
 290 015a 0029     		cmp	r1, #0
 291 015c 08BF     		it	eq
 292 015e 4946     		moveq	r1, r9
 293              	.LVL27:
 294              		.loc 1 186 0
 295 0160 0436     		adds	r6, r6, #4
 296              	.LVL28:
 297              		.loc 1 190 0
 298 0162 9A46     		mov	sl, r3
 299              		.loc 1 185 0
 300 0164 4FF02009 		mov	r9, #32
 301              		.loc 1 190 0
 302 0168 002B     		cmp	r3, #0
 303 016a 00F08A80 		beq	.L24
 304 016e 6FEA0803 		mvn	r3, r8
 305              		.loc 1 112 0
 306 0172 4144     		add	r1, r8, r1
 307              		.loc 1 190 0
 308 0174 98F80170 		ldrb	r7, [r8, #1]	@ zero_extendqisi2
 309 0178 C818     		adds	r0, r1, r3
 310              	.LVL29:
 311 017a 08F1010A 		add	sl, r8, #1
 312 017e 00F00100 		and	r0, r0, #1
 313 0182 5346     		mov	r3, sl
 314 0184 A7B1     		cbz	r7, .L102
 315 0186 8A45     		cmp	sl, r1
 316 0188 12D0     		beq	.L102
 317 018a 28B1     		cbz	r0, .L28
 318 018c 13F8017F 		ldrb	r7, [r3, #1]!	@ zero_extendqisi2
 319 0190 0AF1010A 		add	sl, sl, #1
 320              	.LVL30:
 321 0194 57B9     		cbnz	r7, .L90
 322 0196 0BE0     		b	.L102
 323              	.L28:
 324              		.loc 1 190 0 is_stmt 0 discriminator 1
 325 0198 5A78     		ldrb	r2, [r3, #1]	@ zero_extendqisi2
 326 019a 0AF1010A 		add	sl, sl, #1
 327 019e 0133     		adds	r3, r3, #1
 328 01a0 32B1     		cbz	r2, .L102
 329              		.loc 1 190 0 discriminator 2
 330 01a2 5F78     		ldrb	r7, [r3, #1]	@ zero_extendqisi2
 331 01a4 0AF1010A 		add	sl, sl, #1
 332 01a8 0133     		adds	r3, r3, #1
 333 01aa 0FB1     		cbz	r7, .L102
 334              	.L90:
 335              		.loc 1 190 0
 336 01ac 8A45     		cmp	sl, r1
 337 01ae F3D1     		bne	.L28
 338              	.L102:
 339 01b0 C8EB0A0A 		rsb	sl, r8, sl
 340              		.loc 1 242 0 is_stmt 1
 341 01b4 029A     		ldr	r2, [sp, #8]
 342              		.loc 1 240 0
ARM GAS  /tmp/ccghjEXC.s 			page 7


 343 01b6 CAEB0B01 		rsb	r1, sl, fp
 344              		.loc 1 185 0
 345 01ba 4FF02009 		mov	r9, #32
 346              	.LVL31:
 347              		.loc 1 240 0
 348 01be 21EAE17B 		bic	fp, r1, r1, asr #31
 349              	.LVL32:
 350              		.loc 1 242 0
 351 01c2 002A     		cmp	r2, #0
 352 01c4 64D0     		beq	.L120
 353              	.LVL33:
 354              	.L41:
 355              		.loc 1 253 0 discriminator 1
 356 01c6 BAF1000F 		cmp	sl, #0
 357 01ca 26DD     		ble	.L44
 358              		.loc 1 254 0
 359 01cc 4746     		mov	r7, r8
 360 01ce 2B68     		ldr	r3, [r5, #0]
 361 01d0 17F8011B 		ldrb	r1, [r7], #1	@ zero_extendqisi2
 362 01d4 9B68     		ldr	r3, [r3, #8]
 363              		.loc 1 112 0
 364 01d6 C244     		add	sl, r8, sl
 365              	.LVL34:
 366 01d8 6FEA0800 		mvn	r0, r8
 367 01dc 0AEB0002 		add	r2, sl, r0
 368              		.loc 1 254 0
 369 01e0 2846     		mov	r0, r5
 370 01e2 02F00108 		and	r8, r2, #1
 371              	.LVL35:
 372 01e6 9847     		blx	r3
 373              	.LVL36:
 374              		.loc 1 253 0
 375 01e8 5745     		cmp	r7, sl
 376 01ea 16D0     		beq	.L44
 377 01ec B8F1000F 		cmp	r8, #0
 378 01f0 03D0     		beq	.L45
 379              	.LVL37:
 380              		.loc 1 254 0
 381 01f2 2B68     		ldr	r3, [r5, #0]
 382 01f4 17F8011B 		ldrb	r1, [r7], #1	@ zero_extendqisi2
 383 01f8 0AE0     		b	.L113
 384              	.L45:
 385 01fa 2868     		ldr	r0, [r5, #0]
 386 01fc B846     		mov	r8, r7
 387 01fe 8268     		ldr	r2, [r0, #8]
 388 0200 18F8011B 		ldrb	r1, [r8], #1	@ zero_extendqisi2
 389 0204 2846     		mov	r0, r5
 390 0206 9047     		blx	r2
 391 0208 2B68     		ldr	r3, [r5, #0]
 392 020a 7978     		ldrb	r1, [r7, #1]	@ zero_extendqisi2
 393 020c 08F10107 		add	r7, r8, #1
 394              	.L113:
 395 0210 9A68     		ldr	r2, [r3, #8]
 396 0212 2846     		mov	r0, r5
 397 0214 9047     		blx	r2
 398              		.loc 1 253 0
 399 0216 5745     		cmp	r7, sl
ARM GAS  /tmp/ccghjEXC.s 			page 8


 400 0218 EFD1     		bne	.L45
 401              	.L44:
 402              	.LVL38:
 403              		.loc 1 256 0 discriminator 1
 404 021a BBF1000F 		cmp	fp, #0
 405 021e 3FF408AF 		beq	.L98
 406              		.loc 1 257 0
 407 0222 2968     		ldr	r1, [r5, #0]
 408 0224 0BF1FF3C 		add	ip, fp, #-1
 409 0228 8B68     		ldr	r3, [r1, #8]
 410              		.loc 1 256 0
 411 022a 6746     		mov	r7, ip
 412              		.loc 1 257 0
 413 022c 2846     		mov	r0, r5
 414 022e 4946     		mov	r1, r9
 415 0230 0CF0010B 		and	fp, ip, #1
 416              	.LVL39:
 417 0234 9847     		blx	r3
 418              	.LVL40:
 419              		.loc 1 256 0
 420 0236 002F     		cmp	r7, #0
 421 0238 3FF4FBAE 		beq	.L98
 422 023c BBF1000F 		cmp	fp, #0
 423 0240 07D0     		beq	.L57
 424              		.loc 1 257 0
 425 0242 2968     		ldr	r1, [r5, #0]
 426 0244 2846     		mov	r0, r5
 427 0246 8B68     		ldr	r3, [r1, #8]
 428 0248 4946     		mov	r1, r9
 429 024a 9847     		blx	r3
 430              	.LVL41:
 431              		.loc 1 256 0
 432 024c 013F     		subs	r7, r7, #1
 433 024e 3FF4F0AE 		beq	.L98
 434              	.L57:
 435              		.loc 1 257 0
 436 0252 2A68     		ldr	r2, [r5, #0]
 437 0254 4946     		mov	r1, r9
 438 0256 9368     		ldr	r3, [r2, #8]
 439 0258 2846     		mov	r0, r5
 440 025a 9847     		blx	r3
 441 025c 2868     		ldr	r0, [r5, #0]
 442              		.loc 1 258 0
 443 025e 013F     		subs	r7, r7, #1
 444              		.loc 1 257 0
 445 0260 8268     		ldr	r2, [r0, #8]
 446 0262 4946     		mov	r1, r9
 447 0264 2846     		mov	r0, r5
 448 0266 9047     		blx	r2
 449              		.loc 1 256 0
 450 0268 013F     		subs	r7, r7, #1
 451 026a F2D1     		bne	.L57
 452 026c E1E6     		b	.L98
 453              	.LVL42:
 454              	.L21:
 455              		.loc 1 182 0
 456 026e 3168     		ldr	r1, [r6, #0]
ARM GAS  /tmp/ccghjEXC.s 			page 9


 457              	.LVL43:
 458 0270 DDF814A0 		ldr	sl, [sp, #20]
 459 0274 8DF81C10 		strb	r1, [sp, #28]
 460              	.LVL44:
 461 0278 0436     		adds	r6, r6, #4
 462              	.LVL45:
 463              		.loc 1 181 0
 464 027a 4FF02009 		mov	r9, #32
 465              		.loc 1 133 0
 466 027e 0DF11C08 		add	r8, sp, #28
 467              	.LVL46:
 468              	.L24:
 469              		.loc 1 242 0
 470 0282 029A     		ldr	r2, [sp, #8]
 471              		.loc 1 240 0
 472 0284 CAEB0B01 		rsb	r1, sl, fp
 473              	.LVL47:
 474 0288 21EAE17B 		bic	fp, r1, r1, asr #31
 475              	.LVL48:
 476              		.loc 1 242 0
 477 028c 002A     		cmp	r2, #0
 478 028e 9AD1     		bne	.L41
 479              	.LVL49:
 480              	.L120:
 481              		.loc 1 243 0
 482 0290 CBF1000B 		rsb	fp, fp, #0
 483              	.LVL50:
 484              		.loc 1 244 0
 485 0294 BBF1000F 		cmp	fp, #0
 486 0298 95D0     		beq	.L41
 487              		.loc 1 245 0
 488 029a A9F13003 		sub	r3, r9, #48
 489 029e D3F1000C 		rsbs	ip, r3, #0
 490 02a2 98F80000 		ldrb	r0, [r8, #0]	@ zero_extendqisi2
 491 02a6 4CEB0307 		adc	r7, ip, r3
 492 02aa 2D28     		cmp	r0, #45
 493 02ac 14BF     		ite	ne
 494 02ae 0027     		movne	r7, #0
 495 02b0 07F00107 		andeq	r7, r7, #1
 496 02b4 002F     		cmp	r7, #0
 497 02b6 40F0CE80 		bne	.L121
 498              	.L92:
 499              		.loc 1 250 0
 500 02ba 2F68     		ldr	r7, [r5, #0]
 501 02bc 6FEA0B0E 		mvn	lr, fp
 502 02c0 BB68     		ldr	r3, [r7, #8]
 503 02c2 2846     		mov	r0, r5
 504 02c4 4946     		mov	r1, r9
 505 02c6 0EF00107 		and	r7, lr, #1
 506              	.LVL51:
 507 02ca 9847     		blx	r3
 508              	.LVL52:
 509              		.loc 1 251 0
 510 02cc 1BF1010B 		adds	fp, fp, #1
 511              	.LVL53:
 512 02d0 3FF479AF 		beq	.L41
 513 02d4 47B1     		cbz	r7, .L58
ARM GAS  /tmp/ccghjEXC.s 			page 10


 514              		.loc 1 250 0
 515 02d6 2968     		ldr	r1, [r5, #0]
 516 02d8 2846     		mov	r0, r5
 517 02da 8B68     		ldr	r3, [r1, #8]
 518 02dc 4946     		mov	r1, r9
 519 02de 9847     		blx	r3
 520              	.LVL54:
 521              		.loc 1 251 0
 522 02e0 1BF1010B 		adds	fp, fp, #1
 523              	.LVL55:
 524 02e4 3FF46FAF 		beq	.L41
 525              	.L58:
 526              		.loc 1 250 0 discriminator 1
 527 02e8 2A68     		ldr	r2, [r5, #0]
 528 02ea 4946     		mov	r1, r9
 529 02ec 9368     		ldr	r3, [r2, #8]
 530 02ee 2846     		mov	r0, r5
 531 02f0 9847     		blx	r3
 532 02f2 2868     		ldr	r0, [r5, #0]
 533              		.loc 1 251 0 discriminator 1
 534 02f4 0BF1010B 		add	fp, fp, #1
 535              	.LVL56:
 536              		.loc 1 250 0 discriminator 1
 537 02f8 8268     		ldr	r2, [r0, #8]
 538 02fa 4946     		mov	r1, r9
 539 02fc 2846     		mov	r0, r5
 540 02fe 9047     		blx	r2
 541              	.LVL57:
 542              		.loc 1 251 0 discriminator 1
 543 0300 1BF1010B 		adds	fp, fp, #1
 544              	.LVL58:
 545 0304 F0D1     		bne	.L58
 546 0306 5EE7     		b	.L41
 547              	.LVL59:
 548              	.L17:
 549              		.loc 1 200 0
 550 0308 3268     		ldr	r2, [r6, #0]
 551              	.LVL60:
 552 030a 0436     		adds	r6, r6, #4
 553              	.LVL61:
 554              		.loc 1 201 0
 555 030c 002A     		cmp	r2, #0
 556              		.loc 1 132 0
 557 030e A8BF     		it	ge
 558 0310 0DF11C0C 		addge	ip, sp, #28
 559              		.loc 1 201 0
 560 0314 C0F2A980 		blt	.L122
 561              	.LVL62:
 562              	.L31:
 563              	.LBB26:
 564              	.LBB21:
 565              	.LBB16:
 566              		.loc 1 52 0
 567 0318 0CF10B0A 		add	sl, ip, #11
 568              	.LVL63:
 569              	.LBE16:
 570              	.LBE21:
ARM GAS  /tmp/ccghjEXC.s 			page 11


 571              	.LBE26:
 572              		.loc 1 112 0
 573 031c E046     		mov	r8, ip
 574 031e DDF810C0 		ldr	ip, [sp, #16]
 575              	.LVL64:
 576              	.LBB27:
 577              	.LBB22:
 578              	.LBB17:
 579 0322 5146     		mov	r1, sl
 580              	.LBE17:
 581              	.LBE22:
 582              	.LBE27:
 583 0324 1746     		mov	r7, r2
 584              	.LVL65:
 585              	.L32:
 586              	.LBB28:
 587              	.LBB23:
 588              	.LBB18:
 589              		.loc 1 54 0
 590 0326 ACFB0203 		umull	r0, r3, ip, r2
 591 032a DB08     		lsrs	r3, r3, #3
 592 032c 03EB8300 		add	r0, r3, r3, lsl #2
 593 0330 A2EB4000 		sub	r0, r2, r0, lsl #1
 594              	.LVL66:
 595              		.loc 1 112 0
 596 0334 0139     		subs	r1, r1, #1
 597              	.LVL67:
 598              		.loc 1 60 0
 599 0336 ACFB0727 		umull	r2, r7, ip, r7
 600              	.LVL68:
 601              		.loc 1 55 0
 602 033a 3030     		adds	r0, r0, #48
 603              		.loc 1 60 0
 604 033c FF08     		lsrs	r7, r7, #3
 605              		.loc 1 58 0
 606 033e 0870     		strb	r0, [r1, #0]
 607              		.loc 1 59 0
 608 0340 1A46     		mov	r2, r3
 609              	.LVL69:
 610              		.loc 1 60 0
 611 0342 F0D1     		bne	.L32
 612 0344 C446     		mov	ip, r8
 613              		.loc 1 62 0
 614 0346 C1EB0A0A 		rsb	sl, r1, sl
 615              	.LVL70:
 616 034a 6FEA0C02 		mvn	r2, ip
 617              		.loc 1 112 0
 618 034e D044     		add	r8, r8, sl
 619              	.LVL71:
 620 0350 08EB0203 		add	r3, r8, r2
 621              	.LVL72:
 622 0354 DB07     		lsls	r3, r3, #31
 623              	.LBE18:
 624              	.LBE23:
 625              	.LBE28:
 626 0356 6246     		mov	r2, ip
 627 0358 0FD5     		bpl	.L34
ARM GAS  /tmp/ccghjEXC.s 			page 12


 628              	.LVL73:
 629              	.LBB29:
 630              	.LBB24:
 631              	.LBB19:
 632              		.loc 1 64 0
 633 035a 6246     		mov	r2, ip
 634              	.LVL74:
 635 035c 02F8010B 		strb	r0, [r2], #1
 636              	.LVL75:
 637 0360 1346     		mov	r3, r2
 638              		.loc 1 65 0
 639 0362 11F8010F 		ldrb	r0, [r1, #1]!	@ zero_extendqisi2
 640              		.loc 1 64 0
 641 0366 03F8010B 		strb	r0, [r3], #1
 642              		.loc 1 65 0
 643 036a 4345     		cmp	r3, r8
 644 036c 0AD0     		beq	.L33
 645              	.LVL76:
 646              	.L123:
 647 036e 4F78     		ldrb	r7, [r1, #1]	@ zero_extendqisi2
 648 0370 481C     		adds	r0, r1, #1
 649              		.loc 1 64 0
 650 0372 5770     		strb	r7, [r2, #1]
 651              		.loc 1 65 0
 652 0374 4078     		ldrb	r0, [r0, #1]	@ zero_extendqisi2
 653 0376 0231     		adds	r1, r1, #2
 654              		.loc 1 64 0
 655 0378 5A1C     		adds	r2, r3, #1
 656              	.LVL77:
 657              	.L34:
 658 037a 1346     		mov	r3, r2
 659 037c 03F8010B 		strb	r0, [r3], #1
 660              		.loc 1 65 0
 661 0380 4345     		cmp	r3, r8
 662 0382 F4D1     		bne	.L123
 663              	.LVL78:
 664              	.L33:
 665 0384 019B     		ldr	r3, [sp, #4]
 666              		.loc 1 205 0
 667 0386 0CEB0A01 		add	r1, ip, sl
 668              		.loc 1 65 0
 669 038a C3EB010A 		rsb	sl, r3, r1
 670              	.LBE19:
 671              	.LBE24:
 672              	.LBE29:
 673              		.loc 1 133 0
 674 038e 0DF11C08 		add	r8, sp, #28
 675              		.loc 1 206 0
 676 0392 76E7     		b	.L24
 677              	.LVL79:
 678              	.L16:
 679              		.loc 1 236 0
 680 0394 8DF81C30 		strb	r3, [sp, #28]
 681              	.LVL80:
 682 0398 DDF814A0 		ldr	sl, [sp, #20]
 683              		.loc 1 133 0
 684 039c 0DF11C08 		add	r8, sp, #28
ARM GAS  /tmp/ccghjEXC.s 			page 13


 685              		.loc 1 237 0
 686 03a0 6FE7     		b	.L24
 687              	.LVL81:
 688              	.L51:
 689              		.loc 1 179 0
 690 03a2 0A27     		movs	r7, #10
 691              	.LVL82:
 692              	.L19:
 693              		.loc 1 232 0
 694 03a4 3268     		ldr	r2, [r6, #0]
 695              	.LVL83:
 696 03a6 0DF12600 		add	r0, sp, #38
 697 03aa 0436     		adds	r6, r6, #4
 698              	.LVL84:
 699 03ac 1146     		mov	r1, r2
 700              	.LVL85:
 701              	.L38:
 702              	.LBB30:
 703              	.LBB31:
 704              	.LBB32:
 705              		.loc 1 54 0
 706 03ae B2FBF7FC 		udiv	ip, r2, r7
 707 03b2 07FB1C2A 		mls	sl, r7, ip, r2
 708              	.LVL86:
 709              		.loc 1 55 0
 710 03b6 0AF13003 		add	r3, sl, #48
 711              	.LVL87:
 712              		.loc 1 56 0
 713 03ba 392B     		cmp	r3, #57
 714              		.loc 1 57 0
 715 03bc C8BF     		it	gt
 716 03be 0AF13703 		addgt	r3, sl, #55
 717              	.LVL88:
 718              		.loc 1 60 0
 719 03c2 B1FBF7F1 		udiv	r1, r1, r7
 720              	.LVL89:
 721              		.loc 1 58 0
 722 03c6 8046     		mov	r8, r0
 723              	.LVL90:
 724              		.loc 1 59 0
 725 03c8 6246     		mov	r2, ip
 726              	.LVL91:
 727              		.loc 1 58 0
 728 03ca 00F80139 		strb	r3, [r0], #-1
 729              	.LVL92:
 730              		.loc 1 60 0
 731 03ce 0029     		cmp	r1, #0
 732 03d0 EDD1     		bne	.L38
 733              		.loc 1 62 0
 734 03d2 0DF12700 		add	r0, sp, #39
 735              		.loc 1 112 0
 736 03d6 07AF     		add	r7, sp, #28
 737              	.LVL93:
 738              		.loc 1 62 0
 739 03d8 C8EB000A 		rsb	sl, r8, r0
 740              	.LVL94:
 741              		.loc 1 112 0
ARM GAS  /tmp/ccghjEXC.s 			page 14


 742 03dc 07EB0A00 		add	r0, r7, sl
 743 03e0 019F     		ldr	r7, [sp, #4]
 744 03e2 F943     		mvns	r1, r7
 745              	.LVL95:
 746 03e4 4218     		adds	r2, r0, r1
 747 03e6 D207     		lsls	r2, r2, #31
 748              	.LBE32:
 749              	.LBE31:
 750              	.LBE30:
 751              		.loc 1 132 0
 752 03e8 07A9     		add	r1, sp, #28
 753 03ea 0FD5     		bpl	.L40
 754              	.LVL96:
 755              	.LBB35:
 756              	.LBB34:
 757              	.LBB33:
 758              		.loc 1 64 0
 759 03ec 8DF81C30 		strb	r3, [sp, #28]
 760 03f0 0DF11D01 		add	r1, sp, #29
 761              	.LVL97:
 762              		.loc 1 65 0
 763 03f4 18F8013F 		ldrb	r3, [r8, #1]!	@ zero_extendqisi2
 764 03f8 08E0     		b	.L40
 765              	.LVL98:
 766              	.L124:
 767 03fa 98F80170 		ldrb	r7, [r8, #1]	@ zero_extendqisi2
 768              	.LVL99:
 769 03fe 08F10103 		add	r3, r8, #1
 770              		.loc 1 64 0
 771 0402 4F70     		strb	r7, [r1, #1]
 772              		.loc 1 65 0
 773 0404 5B78     		ldrb	r3, [r3, #1]	@ zero_extendqisi2
 774 0406 08F10208 		add	r8, r8, #2
 775              		.loc 1 64 0
 776 040a 511C     		adds	r1, r2, #1
 777              	.LVL100:
 778              	.L40:
 779 040c 0A46     		mov	r2, r1
 780 040e 02F8013B 		strb	r3, [r2], #1
 781              		.loc 1 65 0
 782 0412 8242     		cmp	r2, r0
 783 0414 F1D1     		bne	.L124
 784              	.LBE33:
 785              	.LBE34:
 786              	.LBE35:
 787              		.loc 1 133 0
 788 0416 0DF11C08 		add	r8, sp, #28
 789 041a 32E7     		b	.L24
 790              	.LVL101:
 791              	.L18:
 792 041c 0827     		movs	r7, #8
 793 041e C1E7     		b	.L19
 794              	.LVL102:
 795              	.L20:
 796              		.loc 1 179 0
 797 0420 1027     		movs	r7, #16
 798 0422 BFE7     		b	.L19
ARM GAS  /tmp/ccghjEXC.s 			page 15


 799              	.LVL103:
 800              	.L119:
 801              		.loc 1 156 0
 802 0424 2046     		mov	r0, r4
 803 0426 0021     		movs	r1, #0
 804 0428 05E0     		b	.L13
 805              	.LVL104:
 806              	.L125:
 807              		.loc 1 162 0
 808 042a 3278     		ldrb	r2, [r6, #0]	@ zero_extendqisi2
 809              	.LVL105:
 810 042c 0436     		adds	r6, r6, #4
 811              	.LVL106:
 812              	.L12:
 813              		.loc 1 165 0
 814 042e 01EB810A 		add	sl, r1, r1, lsl #2
 815              	.LVL107:
 816              		.loc 1 166 0
 817 0432 02EB4A01 		add	r1, r2, sl, lsl #1
 818              	.LVL108:
 819              	.L13:
 820              		.loc 1 158 0
 821 0436 10F8013B 		ldrb	r3, [r0], #1	@ zero_extendqisi2
 822              	.LVL109:
 823              		.loc 1 159 0
 824 043a A3F13007 		sub	r7, r3, #48
 825 043e FAB2     		uxtb	r2, r7
 826 0440 092A     		cmp	r2, #9
 827              		.loc 1 158 0
 828 0442 0446     		mov	r4, r0
 829              	.LVL110:
 830              		.loc 1 159 0
 831 0444 F3D9     		bls	.L12
 832              		.loc 1 161 0
 833 0446 2A2B     		cmp	r3, #42
 834 0448 EFD0     		beq	.L125
 835 044a 31E6     		b	.L11
 836              	.LVL111:
 837              	.L117:
 838              		.loc 1 137 0
 839 044c 0120     		movs	r0, #1
 840              		.loc 1 136 0
 841 044e A71C     		adds	r7, r4, #2
 842              	.LVL112:
 843 0450 A378     		ldrb	r3, [r4, #2]	@ zero_extendqisi2
 844              		.loc 1 137 0
 845 0452 0290     		str	r0, [sp, #8]
 846 0454 03E6     		b	.L6
 847              	.LVL113:
 848              	.L121:
 849              		.loc 1 246 0
 850 0456 2968     		ldr	r1, [r5, #0]
 851 0458 2846     		mov	r0, r5
 852 045a 8A68     		ldr	r2, [r1, #8]
 853 045c 2D21     		movs	r1, #45
 854 045e 9047     		blx	r2
 855 0460 08F10108 		add	r8, r8, #1
ARM GAS  /tmp/ccghjEXC.s 			page 16


 856              	.LVL114:
 857              		.loc 1 247 0
 858 0464 0AF1FF3A 		add	sl, sl, #-1
 859              	.LVL115:
 860 0468 27E7     		b	.L92
 861              	.LVL116:
 862              	.L122:
 863              		.loc 1 202 0
 864 046a 2D21     		movs	r1, #45
 865              	.LVL117:
 866 046c 8DF81C10 		strb	r1, [sp, #28]
 867              	.LVL118:
 868              		.loc 1 203 0
 869 0470 5242     		negs	r2, r2
 870              	.LVL119:
 871              		.loc 1 202 0
 872 0472 0DF11D0C 		add	ip, sp, #29
 873 0476 4FE7     		b	.L31
 874              		.cfi_endproc
 875              	.LFE10:
 876              		.size	chvprintf, .-chvprintf
 877 0478 AFF30080 		.section	.text.chsnprintf,"ax",%progbits
 877      AFF30080 
 878              		.align	2
 879              		.p2align 4,,15
 880              		.global	chsnprintf
 881              		.thumb
 882              		.thumb_func
 883              		.type	chsnprintf, %function
 884              	chsnprintf:
 885              	.LFB11:
 886              		.loc 1 288 0
 887              		.cfi_startproc
 888              		@ args = 4, pretend = 8, frame = 24
 889              		@ frame_needed = 0, uses_anonymous_args = 1
 890              	.LVL120:
 891 0000 0CB4     		push	{r2, r3}
 892              	.LCFI2:
 893              		.cfi_def_cfa_offset 8
 894              		.cfi_offset 3, -4
 895              		.cfi_offset 2, -8
 896 0002 70B5     		push	{r4, r5, r6, lr}
 897              	.LCFI3:
 898              		.cfi_def_cfa_offset 24
 899              		.cfi_offset 14, -12
 900              		.cfi_offset 6, -16
 901              		.cfi_offset 5, -20
 902              		.cfi_offset 4, -24
 903 0004 86B0     		sub	sp, sp, #24
 904              	.LCFI4:
 905              		.cfi_def_cfa_offset 48
 906              		.loc 1 288 0
 907 0006 0AAC     		add	r4, sp, #40
 908 0008 0546     		mov	r5, r0
 909 000a 54F8046B 		ldr	r6, [r4], #4
 910              		.loc 1 295 0
 911 000e 4A1E     		subs	r2, r1, #1
ARM GAS  /tmp/ccghjEXC.s 			page 17


 912 0010 0023     		movs	r3, #0
 913 0012 6846     		mov	r0, sp
 914              	.LVL121:
 915 0014 2946     		mov	r1, r5
 916              	.LVL122:
 917 0016 FFF7FEFF 		bl	msObjectInit
 918              	.LVL123:
 919              		.loc 1 300 0
 920 001a 6846     		mov	r0, sp
 921 001c 3146     		mov	r1, r6
 922 001e 2246     		mov	r2, r4
 923              		.loc 1 299 0
 924 0020 0594     		str	r4, [sp, #20]
 925              		.loc 1 300 0
 926 0022 FFF7FEFF 		bl	chvprintf
 927              		.loc 1 304 0
 928 0026 0398     		ldr	r0, [sp, #12]
 929 0028 0023     		movs	r3, #0
 930 002a 2B54     		strb	r3, [r5, r0]
 931              		.loc 1 306 0
 932 002c 06B0     		add	sp, sp, #24
 933 002e BDE87040 		pop	{r4, r5, r6, lr}
 934 0032 02B0     		add	sp, sp, #8
 935 0034 7047     		bx	lr
 936              		.cfi_endproc
 937              	.LFE11:
 938              		.size	chsnprintf, .-chsnprintf
 939 0036 00BFAFF3 		.section	.rodata.str1.4,"aMS",%progbits,1
 939      0080AFF3 
 939      0080
 940              		.align	2
 941              	.LC0:
 942 0000 286E756C 		.ascii	"(null)\000"
 942      6C2900
 943 0007 00       		.text
 944              	.Letext0:
 945              		.file 2 "/home/lithium/Documents/arm-2011q3/bin/../lib/gcc/arm-none-eabi/4.6.1/include/stddef.h"
 946              		.file 3 "/home/lithium/Documents/arm-2011q3/bin/../lib/gcc/arm-none-eabi/4.6.1/../../../../arm-non
 947              		.file 4 "../../os/ports/GCC/ARMCMx/chtypes.h"
 948              		.file 5 "../../os/kernel/include/chstreams.h"
 949              		.file 6 "/home/lithium/Documents/arm-2011q3/bin/../lib/gcc/arm-none-eabi/4.6.1/include/stdarg.h"
 950              		.file 7 "<built-in>"
 951              		.file 8 "../../os/various/memstreams.h"