ARM GAS  /tmp/ccghjEXC.s 			page 1


   1              		.syntax unified
   2              		.cpu cortex-m4
   3              		.fpu softvfp
   4              		.eabi_attribute 20, 1
   5              		.eabi_attribute 21, 1
   6              		.eabi_attribute 23, 3
   7              		.eabi_attribute 24, 1
   8              		.eabi_attribute 25, 1
   9              		.eabi_attribute 26, 1
  10              		.eabi_attribute 30, 2
  11              		.eabi_attribute 34, 1
  12              		.eabi_attribute 18, 4
  13              		.thumb
  14              		.file	"chprintf.c"
  15              		.text
  16              	.Ltext0:
  17              		.cfi_sections	.debug_frame
  18              		.section	.text.chvprintf,"ax",%progbits
  19              		.align	2
  20              		.p2align 4,,15
  21              		.global	chvprintf
  22              		.thumb
  23              		.thumb_func
  24              		.type	chvprintf, %function
  25              	chvprintf:
  26              	.LFB10:
  27              		.file 1 "../../os/various/chprintf.c"
  28              		.loc 1 112 0
  29              		.cfi_startproc
  30              		@ args = 0, pretend = 0, frame = 40
  31              		@ frame_needed = 0, uses_anonymous_args = 0
  32              	.LVL0:
  33 0000 2DE9F04F 		push	{r4, r5, r6, r7, r8, r9, sl, fp, lr}
  34              	.LCFI0:
  35              		.cfi_def_cfa_offset 36
  36              		.cfi_offset 14, -4
  37              		.cfi_offset 11, -8
  38              		.cfi_offset 10, -12
  39              		.cfi_offset 9, -16
  40              		.cfi_offset 8, -20
  41              		.cfi_offset 7, -24
  42              		.cfi_offset 6, -28
  43              		.cfi_offset 5, -32
  44              		.cfi_offset 4, -36
  45 0004 8BB0     		sub	sp, sp, #44
  46              	.LCFI1:
  47              		.cfi_def_cfa_offset 80
  48              		.loc 1 132 0
  49 0006 07AC     		add	r4, sp, #28
  50              		.loc 1 236 0
  51 0008 0DF11D07 		add	r7, sp, #29
  52              		.loc 1 132 0
  53 000c 0194     		str	r4, [sp, #4]
  54              		.loc 1 236 0
  55 000e 0097     		str	r7, [sp, #0]
  56              		.loc 1 112 0
  57 0010 1646     		mov	r6, r2
ARM GAS  /tmp/ccghjEXC.s 			page 2


  58              	.LVL1:
  59              		.loc 1 236 0
  60 0012 9DE80C00 		ldmia	sp, {r2, r3}
  61              	.LVL2:
  62              		.loc 1 187 0
  63 0016 40F20007 		movw	r7, #:lower16:.LC0
  64              		.loc 1 236 0
  65 001a D21A     		subs	r2, r2, r3
  66              	.LBB12:
  67              	.LBB13:
  68              	.LBB14:
  69              		.loc 1 54 0
  70 001c 4CF6CD43 		movw	r3, #52429
  71 0020 CCF6CC43 		movt	r3, 52428
  72              	.LBE14:
  73              	.LBE13:
  74              	.LBE12:
  75              		.loc 1 187 0
  76 0024 C0F20007 		movt	r7, #:upper16:.LC0
  77              		.loc 1 112 0
  78 0028 0546     		mov	r5, r0
  79 002a 0C46     		mov	r4, r1
  80              		.loc 1 236 0
  81 002c 0592     		str	r2, [sp, #20]
  82              	.LBB25:
  83              	.LBB20:
  84              	.LBB15:
  85              		.loc 1 54 0
  86 002e 0493     		str	r3, [sp, #16]
  87              	.LBE15:
  88              	.LBE20:
  89              	.LBE25:
  90              		.loc 1 187 0
  91 0030 0397     		str	r7, [sp, #12]
  92              	.LVL3:
  93              	.L98:
  94              		.loc 1 125 0
  95 0032 2178     		ldrb	r1, [r4, #0]	@ zero_extendqisi2
  96              	.LVL4:
  97              		.loc 1 126 0
  98 0034 51B1     		cbz	r1, .L1
  99              	.LVL5:
 100              	.L116:
 101              		.loc 1 125 0
 102 0036 671C     		adds	r7, r4, #1
 103              		.loc 1 128 0
 104 0038 2529     		cmp	r1, #37
 105 003a 0AD0     		beq	.L4
 106              		.loc 1 129 0
 107 003c 2A68     		ldr	r2, [r5, #0]
 108              		.loc 1 125 0
 109 003e 3C46     		mov	r4, r7
 110              		.loc 1 129 0
 111 0040 2846     		mov	r0, r5
 112 0042 9368     		ldr	r3, [r2, #8]
 113 0044 9847     		blx	r3
 114              	.LVL6:
ARM GAS  /tmp/ccghjEXC.s 			page 3


 115              		.loc 1 125 0
 116 0046 2178     		ldrb	r1, [r4, #0]	@ zero_extendqisi2
 117              	.LVL7:
 118              		.loc 1 126 0
 119 0048 0029     		cmp	r1, #0
 120 004a F4D1     		bne	.L116
 121              	.LVL8:
 122              	.L1:
 123              		.loc 1 261 0
 124 004c 0BB0     		add	sp, sp, #44
 125 004e BDE8F08F 		pop	{r4, r5, r6, r7, r8, r9, sl, fp, pc}
 126              	.L4:
 127              	.LVL9:
 128              		.loc 1 135 0
 129 0052 6378     		ldrb	r3, [r4, #1]	@ zero_extendqisi2
 130 0054 2D2B     		cmp	r3, #45
 131 0056 00F0F981 		beq	.L117
 132              		.loc 1 134 0
 133 005a 0021     		movs	r1, #0
 134 005c 0291     		str	r1, [sp, #8]
 135              	.LVL10:
 136              	.L6:
 137              		.loc 1 140 0
 138 005e A3F12E02 		sub	r2, r3, #46
 139 0062 D2F10008 		rsbs	r8, r2, #0
 140 0066 48EB0204 		adc	r4, r8, r2
 141 006a 302B     		cmp	r3, #48
 142 006c 08BF     		it	eq
 143 006e 44F00104 		orreq	r4, r4, #1
 144              		.loc 1 139 0
 145 0072 4FF02009 		mov	r9, #32
 146              		.loc 1 140 0
 147 0076 1CB1     		cbz	r4, .L7
 148              	.LVL11:
 149              		.loc 1 141 0
 150 0078 7B78     		ldrb	r3, [r7, #1]	@ zero_extendqisi2
 151              		.loc 1 142 0
 152 007a 4FF03009 		mov	r9, #48
 153              		.loc 1 141 0
 154 007e 0137     		adds	r7, r7, #1
 155              	.LVL12:
 156              	.L7:
 157              		.loc 1 112 0
 158 0080 3C46     		mov	r4, r7
 159              		.loc 1 144 0
 160 0082 4FF0000B 		mov	fp, #0
 161 0086 07E0     		b	.L10
 162              	.LVL13:
 163              	.L118:
 164              		.loc 1 150 0
 165 0088 3278     		ldrb	r2, [r6, #0]	@ zero_extendqisi2
 166              	.LVL14:
 167 008a 0436     		adds	r6, r6, #4
 168              	.LVL15:
 169              	.L8:
 170              		.loc 1 153 0
 171 008c 0BEB8B03 		add	r3, fp, fp, lsl #2
ARM GAS  /tmp/ccghjEXC.s 			page 4


 172 0090 02EB430B 		add	fp, r2, r3, lsl #1
 173              	.LVL16:
 174 0094 17F8013F 		ldrb	r3, [r7, #1]!	@ zero_extendqisi2
 175              	.LVL17:
 176              	.L10:
 177              		.loc 1 147 0
 178 0098 A3F13000 		sub	r0, r3, #48
 179 009c C2B2     		uxtb	r2, r0
 180              		.loc 1 146 0
 181 009e 0134     		adds	r4, r4, #1
 182              	.LVL18:
 183              		.loc 1 147 0
 184 00a0 092A     		cmp	r2, #9
 185 00a2 F3D9     		bls	.L8
 186              		.loc 1 149 0
 187 00a4 2A2B     		cmp	r3, #42
 188 00a6 EFD0     		beq	.L118
 189              	.LVL19:
 190              		.loc 1 155 0
 191 00a8 0021     		movs	r1, #0
 192              		.loc 1 156 0
 193 00aa 2E2B     		cmp	r3, #46
 194 00ac 00F0BA81 		beq	.L119
 195              	.LVL20:
 196              	.L11:
 197              		.loc 1 170 0
 198 00b0 A3F16C08 		sub	r8, r3, #108
 199 00b4 D8F10007 		rsbs	r7, r8, #0
 200 00b8 47EB0802 		adc	r2, r7, r8
 201 00bc 4C2B     		cmp	r3, #76
 202 00be 08BF     		it	eq
 203 00c0 42F00102 		orreq	r2, r2, #1
 204 00c4 1AB1     		cbz	r2, .L15
 205              	.LVL21:
 206              		.loc 1 172 0
 207 00c6 2278     		ldrb	r2, [r4, #0]	@ zero_extendqisi2
 208 00c8 0AB1     		cbz	r2, .L15
 209              	.LVL22:
 210              		.loc 1 173 0
 211 00ca 0134     		adds	r4, r4, #1
 212              	.LVL23:
 213 00cc 1346     		mov	r3, r2
 214              	.LVL24:
 215              	.L15:
 216              		.loc 1 179 0
 217 00ce A3F14400 		sub	r0, r3, #68
 218 00d2 3428     		cmp	r0, #52
 219 00d4 00F25E81 		bhi	.L16
 220 00d8 DFE810F0 		tbh	[pc, r0, lsl #1]
 221              	.L23:
 222 00dc 1601     		.2byte	(.L17-.L23)/2
 223 00de 5C01     		.2byte	(.L16-.L23)/2
 224 00e0 5C01     		.2byte	(.L16-.L23)/2
 225 00e2 5C01     		.2byte	(.L16-.L23)/2
 226 00e4 5C01     		.2byte	(.L16-.L23)/2
 227 00e6 1601     		.2byte	(.L17-.L23)/2
 228 00e8 5C01     		.2byte	(.L16-.L23)/2
ARM GAS  /tmp/ccghjEXC.s 			page 5


 229 00ea 5C01     		.2byte	(.L16-.L23)/2
 230 00ec 5C01     		.2byte	(.L16-.L23)/2
 231 00ee 5C01     		.2byte	(.L16-.L23)/2
 232 00f0 5C01     		.2byte	(.L16-.L23)/2
 233 00f2 A001     		.2byte	(.L18-.L23)/2
 234 00f4 5C01     		.2byte	(.L16-.L23)/2
 235 00f6 5C01     		.2byte	(.L16-.L23)/2
 236 00f8 5C01     		.2byte	(.L16-.L23)/2
 237 00fa 5C01     		.2byte	(.L16-.L23)/2
 238 00fc 5C01     		.2byte	(.L16-.L23)/2
 239 00fe 6301     		.2byte	(.L51-.L23)/2
 240 0100 5C01     		.2byte	(.L16-.L23)/2
 241 0102 5C01     		.2byte	(.L16-.L23)/2
 242 0104 A201     		.2byte	(.L20-.L23)/2
 243 0106 5C01     		.2byte	(.L16-.L23)/2
 244 0108 5C01     		.2byte	(.L16-.L23)/2
 245 010a 5C01     		.2byte	(.L16-.L23)/2
 246 010c 5C01     		.2byte	(.L16-.L23)/2
 247 010e 5C01     		.2byte	(.L16-.L23)/2
 248 0110 5C01     		.2byte	(.L16-.L23)/2
 249 0112 5C01     		.2byte	(.L16-.L23)/2
 250 0114 5C01     		.2byte	(.L16-.L23)/2
 251 0116 5C01     		.2byte	(.L16-.L23)/2
 252 0118 5C01     		.2byte	(.L16-.L23)/2
 253 011a C900     		.2byte	(.L21-.L23)/2
 254 011c 1601     		.2byte	(.L17-.L23)/2
 255 011e 5C01     		.2byte	(.L16-.L23)/2
 256 0120 5C01     		.2byte	(.L16-.L23)/2
 257 0122 5C01     		.2byte	(.L16-.L23)/2
 258 0124 5C01     		.2byte	(.L16-.L23)/2
 259 0126 1601     		.2byte	(.L17-.L23)/2
 260 0128 5C01     		.2byte	(.L16-.L23)/2
 261 012a 5C01     		.2byte	(.L16-.L23)/2
 262 012c 5C01     		.2byte	(.L16-.L23)/2
 263 012e 5C01     		.2byte	(.L16-.L23)/2
 264 0130 5C01     		.2byte	(.L16-.L23)/2
 265 0132 A001     		.2byte	(.L18-.L23)/2
 266 0134 5C01     		.2byte	(.L16-.L23)/2
 267 0136 5C01     		.2byte	(.L16-.L23)/2
 268 0138 5C01     		.2byte	(.L16-.L23)/2
 269 013a 3500     		.2byte	(.L22-.L23)/2
 270 013c 5C01     		.2byte	(.L16-.L23)/2
 271 013e 6301     		.2byte	(.L51-.L23)/2
 272 0140 5C01     		.2byte	(.L16-.L23)/2
 273 0142 5C01     		.2byte	(.L16-.L23)/2
 274 0144 A201     		.2byte	(.L20-.L23)/2
 275              	.L22:
 276              	.LVL25:
 277              		.loc 1 186 0
 278 0146 3268     		ldr	r2, [r6, #0]
 279              		.loc 1 187 0
 280 0148 DDF80C80 		ldr	r8, [sp, #12]
 281 014c 002A     		cmp	r2, #0
 282 014e 18BF     		it	ne
 283 0150 9046     		movne	r8, r2
 284              		.loc 1 189 0
 285 0152 47F6FF79 		movw	r9, #32767
ARM GAS  /tmp/ccghjEXC.s 			page 6


 286              		.loc 1 190 0
 287 0156 98F80030 		ldrb	r3, [r8, #0]	@ zero_extendqisi2
 288              	.LVL26:
 289              		.loc 1 189 0
 290 015a 0029     		cmp	r1, #0
 291 015c 08BF     		it	eq
 292 015e 4946     		moveq	r1, r9
 293              	.LVL27:
 294              		.loc 1 186 0
 295 0160 0436     		adds	r6, r6, #4
 296              	.LVL28:
 297              		.loc 1 190 0
 298 0162 9A46     		mov	sl, r3
 299              		.loc 1 185 0
 300 0164 4FF02009 		mov	r9, #32
 301              		.loc 1 190 0
 302 0168 002B     		cmp	r3, #0
 303 016a 00F08A80 		beq	.L24
 304 016e 6FEA0803 		mvn	r3, r8
 305              		.loc 1 112 0
 306 0172 4144     		add	r1, r8, r1
 307              		.loc 1 190 0
 308 0174 98F80170 		ldrb	r7, [r8, #1]	@ zero_extendqisi2
 309 0178 C818     		adds	r0, r1, r3
 310              	.LVL29:
 311 017a 08F1010A 		add	sl, r8, #1
 312 017e 00F00100 		and	r0, r0, #1
 313 0182 5346     		mov	r3, sl
 314 0184 A7B1     		cbz	r7, .L102
 315 0186 8A45     		cmp	sl, r1
 316 0188 12D0     		beq	.L102
 317 018a 28B1     		cbz	r0, .L28
 318 018c 13F8017F 		ldrb	r7, [r3, #1]!	@ zero_extendqisi2
 319 0190 0AF1010A 		add	sl, sl, #1
 320              	.LVL30:
 321 0194 57B9     		cbnz	r7, .L90
 322 0196 0BE0     		b	.L102
 323              	.L28:
 324              		.loc 1 190 0 is_stmt 0 discriminator 1
 325 0198 5A78     		ldrb	r2, [r3, #1]	@ zero_extendqisi2
 326 019a 0AF1010A 		add	sl, sl, #1
 327 019e 0133     		adds	r3, r3, #1
 328 01a0 32B1     		cbz	r2, .L102
 329              		.loc 1 190 0 discriminator 2
 330 01a2 5F78     		ldrb	r7, [r3, #1]	@ zero_extendqisi2
 331 01a4 0AF1010A 		add	sl, sl, #1
 332 01a8 0133     		adds	r3, r3, #1
 333 01aa 0FB1     		cbz	r7, .L102
 334              	.L90:
 335              		.loc 1 190 0
 336 01ac 8A45     		cmp	sl, r1
 337 01ae F3D1     		bne	.L28
 338              	.L102:
 339 01b0 C8EB0A0A 		rsb	sl, r8, sl
 340              		.loc 1 242 0 is_stmt 1
 341 01b4 029A     		ldr	r2, [sp, #8]
 342              		.loc 1 240 0
ARM GAS  /tmp/ccghjEXC.s 			page 7


 343 01b6 CAEB0B01 		rsb	r1, sl, fp
 344              		.loc 1 185 0
 345 01ba 4FF02009 		mov	r9, #32
 346              	.LVL31:
 347              		.loc 1 240 0
 348 01be 21EAE17B 		bic	fp, r1, r1, asr #31
 349              	.LVL32:
 350              		.loc 1 242 0
 351 01c2 002A     		cmp	r2, #0
 352 01c4 64D0     		beq	.L120
 353              	.LVL33:
 354              	.L41:
 355              		.loc 1 253 0 discriminator 1
 356 01c6 BAF1000F 		cmp	sl, #0
 357 01ca 26DD     		ble	.L44
 358              		.loc 1 254 0
 359 01cc 4746     		mov	r7, r8
 360 01ce 2B68     		ldr	r3, [r5, #0]
 361 01d0 17F8011B 		ldrb	r1, [r7], #1	@ zero_extendqisi2
 362 01d4 9B68     		ldr	r3, [r3, #8]
 363              		.loc 1 112 0
 364 01d6 C244     		add	sl, r8, sl
 365              	.LVL34:
 366 01d8 6FEA0800 		mvn	r0, r8
 367 01dc 0AEB0002 		add	r2, sl, r0
 368              		.loc 1 254 0
 369 01e0 2846     		mov	r0, r5
 370 01e2 02F00108 		and	r8, r2, #1
 371              	.LVL35:
 372 01e6 9847     		blx	r3
 373              	.LVL36:
 374              		.loc 1 253 0
 375 01e8 5745     		cmp	r7, sl
 376 01ea 16D0     		beq	.L44
 377 01ec B8F1000F 		cmp	r8, #0
 378 01f0 03D0     		beq	.L45
 379              	.LVL37:
 380              		.loc 1 254 0
 381 01f2 2B68     		ldr	r3, [r5, #0]
 382 01f4 17F8011B 		ldrb	r1, [r7], #1	@ zero_extendqisi2
 383 01f8 0AE0     		b	.L113
 384              	.L45:
 385 01fa 2868     		ldr	r0, [r5, #0]
 386 01fc B846     		mov	r8, r7
 387 01fe 8268     		ldr	r2, [r0, #8]
 388 0200 18F8011B 		ldrb	r1, [r8], #1	@ zero_extendqisi2
 389 0204 2846     		mov	r0, r5
 390 0206 9047     		blx	r2
 391 0208 2B68     		ldr	r3, [r5, #0]
 392 020a 7978     		ldrb	r1, [r7, #1]	@ zero_extendqisi2
 393 020c 08F10107 		add	r7, r8, #1
 394              	.L113:
 395 0210 9A68     		ldr	r2, [r3, #8]
 396 0212 2846     		mov	r0, r5
 397 0214 9047     		blx	r2
 398              		.loc 1 253 0
 399 0216 5745     		cmp	r7, sl
ARM GAS  /tmp/ccghjEXC.s 			page 8


 400 0218 EFD1     		bne	.L45
 401              	.L44:
 402              	.LVL38:
 403              		.loc 1 256 0 discriminator 1
 404 021a BBF1000F 		cmp	fp, #0
 405 021e 3FF408AF 		beq	.L98
 406              		.loc 1 257 0
 407 0222 2968     		ldr	r1, [r5, #0]
 408 0224 0BF1FF3C 		add	ip, fp, #-1
 409 0228 8B68     		ldr	r3, [r1, #8]
 410              		.loc 1 256 0
 411 022a 6746     		mov	r7, ip
 412              		.loc 1 257 0
 413 022c 2846     		mov	r0, r5
 414 022e 4946     		mov	r1, r9
 415 0230 0CF0010B 		and	fp, ip, #1
 416              	.LVL39:
 417 0234 9847     		blx	r3
 418              	.LVL40:
 419              		.loc 1 256 0
 420 0236 002F     		cmp	r7, #0
 421 0238 3FF4FBAE 		beq	.L98
 422 023c BBF1000F 		cmp	fp, #0
 423 0240 07D0     		beq	.L57
 424              		.loc 1 257 0
 425 0242 2968     		ldr	r1, [r5, #0]
 426 0244 2846     		mov	r0, r5
 427 0246 8B68     		ldr	r3, [r1, #8]
 428 0248 4946     		mov	r1, r9
 429 024a 9847     		blx	r3
 430              	.LVL41:
 431              		.loc 1 256 0
 432 024c 013F     		subs	r7, r7, #1
 433 024e 3FF4F0AE 		beq	.L98
 434              	.L57:
 435              		.loc 1 257 0
 436 0252 2A68     		ldr	r2, [r5, #0]
 437 0254 4946     		mov	r1, r9
 438 0256 9368     		ldr	r3, [r2, #8]
 439 0258 2846     		mov	r0, r5
 440 025a 9847     		blx	r3
 441 025c 2868     		ldr	r0, [r5, #0]
 442              		.loc 1 258 0
 443 025e 013F     		subs	r7, r7, #1
 444              		.loc 1 257 0
 445 0260 8268     		ldr	r2, [r0, #8]
 446 0262 4946     		mov	r1, r9
 447 0264 2846     		mov	r0, r5
 448 0266 9047     		blx	r2
 449              		.loc 1 256 0
 450 0268 013F     		subs	r7, r7, #1
 451 026a F2D1     		bne	.L57
 452 026c E1E6     		b	.L98
 453              	.LVL42:
 454              	.L21:
 455              		.loc 1 182 0
 456 026e 3168     		ldr	r1, [r6, #0]
ARM GAS  /tmp/ccghjEXC.s 			page 9


 457              	.LVL43:
 458 0270 DDF814A0 		ldr	sl, [sp, #20]
 459 0274 8DF81C10 		strb	r1, [sp, #28]
 460              	.LVL44:
 461 0278 0436     		adds	r6, r6, #4
 462              	.LVL45:
 463              		.loc 1 181 0
 464 027a 4FF02009 		mov	r9, #32
 465              		.loc 1 133 0
 466 027e 0DF11C08 		add	r8, sp, #28
 467              	.LVL46:
 468              	.L24:
 469              		.loc 1 242 0
 470 0282 029A     		ldr	r2, [sp, #8]
 471              		.loc 1 240 0
 472 0284 CAEB0B01 		rsb	r1, sl, fp
 473              	.LVL47:
 474 0288 21EAE17B 		bic	fp, r1, r1, asr #31
 475              	.LVL48:
 476              		.loc 1 242 0
 477 028c 002A     		cmp	r2, #0
 478 028e 9AD1     		bne	.L41
 479              	.LVL49:
 480              	.L120:
 481              		.loc 1 243 0
 482 0290 CBF1000B 		rsb	fp, fp, #0
 483              	.LVL50:
 484              		.loc 1 244 0
 485 0294 BBF1000F 		cmp	fp, #0
 486 0298 95D0     		beq	.L41
 487              		.loc 1 245 0
 488 029a A9F13003 		sub	r3, r9, #48
 489 029e D3F1000C 		rsbs	ip, r3, #0
 490 02a2 98F80000 		ldrb	r0, [r8, #0]	@ zero_extendqisi2
 491 02a6 4CEB0307 		adc	r7, ip, r3
 492 02aa 2D28     		cmp	r0, #45
 493 02ac 14BF     		ite	ne
 494 02ae 0027     		movne	r7, #0
 495 02b0 07F00107 		andeq	r7, r7, #1
 496 02b4 002F     		cmp	r7, #0
 497 02b6 40F0CE80 		bne	.L121
 498              	.L92:
 499              		.loc 1 250 0
 500 02ba 2F68     		ldr	r7, [r5, #0]
 501 02bc 6FEA0B0E 		mvn	lr, fp
 502 02c0 BB68     		ldr	r3, [r7, #8]
 503 02c2 2846     		mov	r0, r5
 504 02c4 4946     		mov	r1, r9
 505 02c6 0EF00107 		and	r7, lr, #1
 506              	.LVL51:
 507 02ca 9847     		blx	r3
 508              	.LVL52:
 509              		.loc 1 251 0
 510 02cc 1BF1010B 		adds	fp, fp, #1
 511              	.LVL53:
 512 02d0 3FF479AF 		beq	.L41
 513 02d4 47B1     		cbz	r7, .L58
ARM GAS  /tmp/ccghjEXC.s 			page 10


 514              		.loc 1 250 0
 515 02d6 2968     		ldr	r1, [r5, #0]
 516 02d8 2846     		mov	r0, r5
 517 02da 8B68     		ldr	r3, [r1, #8]
 518 02dc 4946     		mov	r1, r9
 519 02de 9847     		blx	r3
 520              	.LVL54:
 521              		.loc 1 251 0
 522 02e0 1BF1010B 		adds	fp, fp, #1
 523              	.LVL55:
 524 02e4 3FF46FAF 		beq	.L41
 525              	.L58:
 526              		.loc 1 250 0 discriminator 1
 527 02e8 2A68     		ldr	r2, [r5, #0]
 528 02ea 4946     		mov	r1, r9
 529 02ec 9368     		ldr	r3, [r2, #8]
 530 02ee 2846     		mov	r0, r5
 531 02f0 9847     		blx	r3
 532 02f2 2868     		ldr	r0, [r5, #0]
 533              		.loc 1 251 0 discriminator 1
 534 02f4 0BF1010B 		add	fp, fp, #1
 535              	.LVL56:
 536              		.loc 1 250 0 discriminator 1
 537 02f8 8268     		ldr	r2, [r0, #8]
 538 02fa 4946     		mov	r1, r9
 539 02fc 2846     		mov	r0, r5
 540 02fe 9047     		blx	r2
 541              	.LVL57:
 542              		.loc 1 251 0 discriminator 1
 543 0300 1BF1010B 		adds	fp, fp, #1
 544              	.LVL58:
 545 0304 F0D1     		bne	.L58
 546 0306 5EE7     		b	.L41
 547              	.LVL59:
 548              	.L17:
 549              		.loc 1 200 0
 550 0308 3268     		ldr	r2, [r6, #0]
 551              	.LVL60:
 552 030a 0436     		adds	r6, r6, #4
 553              	.LVL61:
 554              		.loc 1 201 0
 555 030c 002A     		cmp	r2, #0
 556              		.loc 1 132 0
 557 030e A8BF     		it	ge
 558 0310 0DF11C0C 		addge	ip, sp, #28
 559              		.loc 1 201 0
 560 0314 C0F2A980 		blt	.L122
 561              	.LVL62:
 562              	.L31:
 563              	.LBB26:
 564              	.LBB21:
 565              	.LBB16:
 566              		.loc 1 52 0
 567 0318 0CF10B0A 		add	sl, ip, #11
 568              	.LVL63:
 569              	.LBE16:
 570              	.LBE21:
ARM GAS  /tmp/ccghjEXC.s 			page 11


 571              	.LBE26:
 572              		.loc 1 112 0
 573 031c E046     		mov	r8, ip
 574 031e DDF810C0 		ldr	ip, [sp, #16]
 575              	.LVL64:
 576              	.LBB27:
 577              	.LBB22:
 578              	.LBB17:
 579 0322 5146     		mov	r1, sl
 580              	.LBE17:
 581              	.LBE22:
 582              	.LBE27:
 583 0324 1746     		mov	r7, r2
 584              	.LVL65:
 585              	.L32:
 586              	.LBB28:
 587              	.LBB23:
 588              	.LBB18:
 589              		.loc 1 54 0
 590 0326 ACFB0203 		umull	r0, r3, ip, r2
 591 032a DB08     		lsrs	r3, r3, #3
 592 032c 03EB8300 		add	r0, r3, r3, lsl #2
 593 0330 A2EB4000 		sub	r0, r2, r0, lsl #1
 594              	.LVL66:
 595              		.loc 1 112 0
 596 0334 0139     		subs	r1, r1, #1
 597              	.LVL67:
 598              		.loc 1 60 0
 599 0336 ACFB0727 		umull	r2, r7, ip, r7
 600              	.LVL68:
 601              		.loc 1 55 0
 602 033a 3030     		adds	r0, r0, #48
 603              		.loc 1 60 0
 604 033c FF08     		lsrs	r7, r7, #3
 605              		.loc 1 58 0
 606 033e 0870     		strb	r0, [r1, #0]
 607              		.loc 1 59 0
 608 0340 1A46     		mov	r2, r3
 609              	.LVL69:
 610              		.loc 1 60 0
 611 0342 F0D1     		bne	.L32
 612 0344 C446     		mov	ip, r8
 613              		.loc 1 62 0
 614 0346 C1EB0A0A 		rsb	sl, r1, sl
 615              	.LVL70:
 616 034a 6FEA0C02 		mvn	r2, ip
 617              		.loc 1 112 0
 618 034e D044     		add	r8, r8, sl
 619              	.LVL71:
 620 0350 08EB0203 		add	r3, r8, r2
 621              	.LVL72:
 622 0354 DB07     		lsls	r3, r3, #31
 623              	.LBE18:
 624              	.LBE23:
 625              	.LBE28:
 626 0356 6246     		mov	r2, ip
 627 0358 0FD5     		bpl	.L34
ARM GAS  /tmp/ccghjEXC.s 			page 12


 628              	.LVL73:
 629              	.LBB29:
 630              	.LBB24:
 631              	.LBB19:
 632              		.loc 1 64 0
 633 035a 6246     		mov	r2, ip
 634              	.LVL74:
 635 035c 02F8010B 		strb	r0, [r2], #1
 636              	.LVL75:
 637 0360 1346     		mov	r3, r2
 638              		.loc 1 65 0
 639 0362 11F8010F 		ldrb	r0, [r1, #1]!	@ zero_extendqisi2
 640              		.loc 1 64 0
 641 0366 03F8010B 		strb	r0, [r3], #1
 642              		.loc 1 65 0
 643 036a 4345     		cmp	r3, r8
 644 036c 0AD0     		beq	.L33
 645              	.LVL76:
 646              	.L123:
 647 036e 4F78     		ldrb	r7, [r1, #1]	@ zero_extendqisi2
 648 0370 481C     		adds	r0, r1, #1
 649              		.loc 1 64 0
 650 0372 5770     		strb	r7, [r2, #1]
 651              		.loc 1 65 0
 652 0374 4078     		ldrb	r0, [r0, #1]	@ zero_extendqisi2
 653 0376 0231     		adds	r1, r1, #2
 654              		.loc 1 64 0
 655 0378 5A1C     		adds	r2, r3, #1
 656              	.LVL77:
 657              	.L34:
 658 037a 1346     		mov	r3, r2
 659 037c 03F8010B 		strb	r0, [r3], #1
 660              		.loc 1 65 0
 661 0380 4345     		cmp	r3, r8
 662 0382 F4D1     		bne	.L123
 663              	.LVL78:
 664              	.L33:
 665 0384 019B     		ldr	r3, [sp, #4]
 666              		.loc 1 205 0
 667 0386 0CEB0A01 		add	r1, ip, sl
 668              		.loc 1 65 0
 669 038a C3EB010A 		rsb	sl, r3, r1
 670              	.LBE19:
 671              	.LBE24:
 672              	.LBE29:
 673              		.loc 1 133 0
 674 038e 0DF11C08 		add	r8, sp, #28
 675              		.loc 1 206 0
 676 0392 76E7     		b	.L24
 677              	.LVL79:
 678              	.L16:
 679              		.loc 1 236 0
 680 0394 8DF81C30 		strb	r3, [sp, #28]
 681              	.LVL80:
 682 0398 DDF814A0 		ldr	sl, [sp, #20]
 683              		.loc 1 133 0
 684 039c 0DF11C08 		add	r8, sp, #28
ARM GAS  /tmp/ccghjEXC.s 			page 13


 685              		.loc 1 237 0
 686 03a0 6FE7     		b	.L24
 687              	.LVL81:
 688              	.L51:
 689              		.loc 1 179 0
 690 03a2 0A27     		movs	r7, #10
 691              	.LVL82:
 692              	.L19:
 693              		.loc 1 232 0
 694 03a4 3268     		ldr	r2, [r6, #0]
 695              	.LVL83:
 696 03a6 0DF12600 		add	r0, sp, #38
 697 03aa 0436     		adds	r6, r6, #4
 698              	.LVL84:
 699 03ac 1146     		mov	r1, r2
 700              	.LVL85:
 701              	.L38:
 702              	.LBB30:
 703              	.LBB31:
 704              	.LBB32:
 705              		.loc 1 54 0
 706 03ae B2FBF7FC 		udiv	ip, r2, r7
 707 03b2 07FB1C2A 		mls	sl, r7, ip, r2
 708              	.LVL86:
 709              		.loc 1 55 0
 710 03b6 0AF13003 		add	r3, sl, #48
 711              	.LVL87:
 712              		.loc 1 56 0
 713 03ba 392B     		cmp	r3, #57
 714              		.loc 1 57 0
 715 03bc C8BF     		it	gt
 716 03be 0AF13703 		addgt	r3, sl, #55
 717              	.LVL88:
 718              		.loc 1 60 0
 719 03c2 B1FBF7F1 		udiv	r1, r1, r7
 720              	.LVL89:
 721              		.loc 1 58 0
 722 03c6 8046     		mov	r8, r0
 723              	.LVL90:
 724              		.loc 1 59 0
 725 03c8 6246     		mov	r2, ip
 726              	.LVL91:
 727              		.loc 1 58 0
 728 03ca 00F80139 		strb	r3, [r0], #-1
 729              	.LVL92:
 730              		.loc 1 60 0
 731 03ce 0029     		cmp	r1, #0
 732 03d0 EDD1     		bne	.L38
 733              		.loc 1 62 0
 734 03d2 0DF12700 		add	r0, sp, #39
 735              		.loc 1 112 0
 736 03d6 07AF     		add	r7, sp, #28
 737              	.LVL93:
 738              		.loc 1 62 0
 739 03d8 C8EB000A 		rsb	sl, r8, r0
 740              	.LVL94:
 741              		.loc 1 112 0
ARM GAS  /tmp/ccghjEXC.s 			page 14


 742 03dc 07EB0A00 		add	r0, r7, sl
 743 03e0 019F     		ldr	r7, [sp, #4]
 744 03e2 F943     		mvns	r1, r7
 745              	.LVL95:
 746 03e4 4218     		adds	r2, r0, r1
 747 03e6 D207     		lsls	r2, r2, #31
 748              	.LBE32:
 749              	.LBE31:
 750              	.LBE30:
 751              		.loc 1 132 0
 752 03e8 07A9     		add	r1, sp, #28
 753 03ea 0FD5     		bpl	.L40
 754              	.LVL96:
 755              	.LBB35:
 756              	.LBB34:
 757              	.LBB33:
 758              		.loc 1 64 0
 759 03ec 8DF81C30 		strb	r3, [sp, #28]
 760 03f0 0DF11D01 		add	r1, sp, #29
 761              	.LVL97:
 762              		.loc 1 65 0
 763 03f4 18F8013F 		ldrb	r3, [r8, #1]!	@ zero_extendqisi2
 764 03f8 08E0     		b	.L40
 765              	.LVL98:
 766              	.L124:
 767 03fa 98F80170 		ldrb	r7, [r8, #1]	@ zero_extendqisi2
 768              	.LVL99:
 769 03fe 08F10103 		add	r3, r8, #1
 770              		.loc 1 64 0
 771 0402 4F70     		strb	r7, [r1, #1]
 772              		.loc 1 65 0
 773 0404 5B78     		ldrb	r3, [r3, #1]	@ zero_extendqisi2
 774 0406 08F10208 		add	r8, r8, #2
 775              		.loc 1 64 0
 776 040a 511C     		adds	r1, r2, #1
 777              	.LVL100:
 778              	.L40:
 779 040c 0A46     		mov	r2, r1
 780 040e 02F8013B 		strb	r3, [r2], #1
 781              		.loc 1 65 0
 782 0412 8242     		cmp	r2, r0
 783 0414 F1D1     		bne	.L124
 784              	.LBE33:
 785              	.LBE34:
 786              	.LBE35:
 787              		.loc 1 133 0
 788 0416 0DF11C08 		add	r8, sp, #28
 789 041a 32E7     		b	.L24
 790              	.LVL101:
 791              	.L18:
 792 041c 0827     		movs	r7, #8
 793 041e C1E7     		b	.L19
 794              	.LVL102:
 795              	.L20:
 796              		.loc 1 179 0
 797 0420 1027     		movs	r7, #16
 798 0422 BFE7     		b	.L19
ARM GAS  /tmp/ccghjEXC.s 			page 15


 799              	.LVL103:
 800              	.L119:
 801              		.loc 1 156 0
 802 0424 2046     		mov	r0, r4
 803 0426 0021     		movs	r1, #0
 804 0428 05E0     		b	.L13
 805              	.LVL104:
 806              	.L125:
 807              		.loc 1 162 0
 808 042a 3278     		ldrb	r2, [r6, #0]	@ zero_extendqisi2
 809              	.LVL105:
 810 042c 0436     		adds	r6, r6, #4
 811              	.LVL106:
 812              	.L12:
 813              		.loc 1 165 0
 814 042e 01EB810A 		add	sl, r1, r1, lsl #2
 815              	.LVL107:
 816              		.loc 1 166 0
 817 0432 02EB4A01 		add	r1, r2, sl, lsl #1
 818              	.LVL108:
 819              	.L13:
 820              		.loc 1 158 0
 821 0436 10F8013B 		ldrb	r3, [r0], #1	@ zero_extendqisi2
 822              	.LVL109:
 823              		.loc 1 159 0
 824 043a A3F13007 		sub	r7, r3, #48
 825 043e FAB2     		uxtb	r2, r7
 826 0440 092A     		cmp	r2, #9
 827              		.loc 1 158 0
 828 0442 0446     		mov	r4, r0
 829              	.LVL110:
 830              		.loc 1 159 0
 831 0444 F3D9     		bls	.L12
 832              		.loc 1 161 0
 833 0446 2A2B     		cmp	r3, #42
 834 0448 EFD0     		beq	.L125
 835 044a 31E6     		b	.L11
 836              	.LVL111:
 837              	.L117:
 838              		.loc 1 137 0
 839 044c 0120     		movs	r0, #1
 840              		.loc 1 136 0
 841 044e A71C     		adds	r7, r4, #2
 842              	.LVL112:
 843 0450 A378     		ldrb	r3, [r4, #2]	@ zero_extendqisi2
 844              		.loc 1 137 0
 845 0452 0290     		str	r0, [sp, #8]
 846 0454 03E6     		b	.L6
 847              	.LVL113:
 848              	.L121:
 849              		.loc 1 246 0
 850 0456 2968     		ldr	r1, [r5, #0]
 851 0458 2846     		mov	r0, r5
 852 045a 8A68     		ldr	r2, [r1, #8]
 853 045c 2D21     		movs	r1, #45
 854 045e 9047     		blx	r2
 855 0460 08F10108 		add	r8, r8, #1
ARM GAS  /tmp/ccghjEXC.s 			page 16


 856              	.LVL114:
 857              		.loc 1 247 0
 858 0464 0AF1FF3A 		add	sl, sl, #-1
 859              	.LVL115:
 860 0468 27E7     		b	.L92
 861              	.LVL116:
 862              	.L122:
 863              		.loc 1 202 0
 864 046a 2D21     		movs	r1, #45
 865              	.LVL117:
 866 046c 8DF81C10 		strb	r1, [sp, #28]
 867              	.LVL118:
 868              		.loc 1 203 0
 869 0470 5242     		negs	r2, r2
 870              	.LVL119:
 871              		.loc 1 202 0
 872 0472 0DF11D0C 		add	ip, sp, #29
 873 0476 4FE7     		b	.L31
 874              		.cfi_endproc
 875              	.LFE10:
 876              		.size	chvprintf, .-chvprintf
 877 0478 AFF30080 		.section	.text.chsnprintf,"ax",%progbits
 877      AFF30080 
 878              		.align	2
 879              		.p2align 4,,15
 880              		.global	chsnprintf
 881              		.thumb
 882              		.thumb_func
 883              		.type	chsnprintf, %function
 884              	chsnprintf:
 885              	.LFB11:
 886              		.loc 1 288 0
 887              		.cfi_startproc
 888              		@ args = 4, pretend = 8, frame = 24
 889              		@ frame_needed = 0, uses_anonymous_args = 1
 890              	.LVL120:
 891 0000 0CB4     		push	{r2, r3}
 892              	.LCFI2:
 893              		.cfi_def_cfa_offset 8
 894              		.cfi_offset 3, -4
 895              		.cfi_offset 2, -8
 896 0002 70B5     		push	{r4, r5, r6, lr}
 897              	.LCFI3:
 898              		.cfi_def_cfa_offset 24
 899              		.cfi_offset 14, -12
 900              		.cfi_offset 6, -16
 901              		.cfi_offset 5, -20
 902              		.cfi_offset 4, -24
 903 0004 86B0     		sub	sp, sp, #24
 904              	.LCFI4:
 905              		.cfi_def_cfa_offset 48
 906              		.loc 1 288 0
 907 0006 0AAC     		add	r4, sp, #40
 908 0008 0546     		mov	r5, r0
 909 000a 54F8046B 		ldr	r6, [r4], #4
 910              		.loc 1 295 0
 911 000e 4A1E     		subs	r2, r1, #1
ARM GAS  /tmp/ccghjEXC.s 			page 17


 912 0010 0023     		movs	r3, #0
 913 0012 6846     		mov	r0, sp
 914              	.LVL121:
 915 0014 2946     		mov	r1, r5
 916              	.LVL122:
 917 0016 FFF7FEFF 		bl	msObjectInit
 918              	.LVL123:
 919              		.loc 1 300 0
 920 001a 6846     		mov	r0, sp
 921 001c 3146     		mov	r1, r6
 922 001e 2246     		mov	r2, r4
 923              		.loc 1 299 0
 924 0020 0594     		str	r4, [sp, #20]
 925              		.loc 1 300 0
 926 0022 FFF7FEFF 		bl	chvprintf
 927              		.loc 1 304 0
 928 0026 0398     		ldr	r0, [sp, #12]
 929 0028 0023     		movs	r3, #0
 930 002a 2B54     		strb	r3, [r5, r0]
 931              		.loc 1 306 0
 932 002c 06B0     		add	sp, sp, #24
 933 002e BDE87040 		pop	{r4, r5, r6, lr}
 934 0032 02B0     		add	sp, sp, #8
 935 0034 7047     		bx	lr
 936              		.cfi_endproc
 937              	.LFE11:
 938              		.size	chsnprintf, .-chsnprintf
 939 0036 00BFAFF3 		.section	.rodata.str1.4,"aMS",%progbits,1
 939      0080AFF3 
 939      0080
 940              		.align	2
 941              	.LC0:
 942 0000 286E756C 		.ascii	"(null)\000"
 942      6C2900
 943 0007 00       		.text
 944              	.Letext0:
 945              		.file 2 "/home/lithium/Documents/arm-2011q3/bin/../lib/gcc/arm-none-eabi/4.6.1/include/stddef.h"
 946              		.file 3 "/home/lithium/Documents/arm-2011q3/bin/../lib/gcc/arm-none-eabi/4.6.1/../../../../arm-non
 947              		.file 4 "../../os/ports/GCC/ARMCMx/chtypes.h"
 948              		.file 5 "../../os/kernel/include/chstreams.h"
 949              		.file 6 "/home/lithium/Documents/arm-2011q3/bin/../lib/gcc/arm-none-eabi/4.6.1/include/stdarg.h"
 950              		.file 7 "<built-in>"
 951              		.file 8 "../../os/various/memstreams.h"
 952              		.section	.debug_info,"",%progbits
 953              	.Ldebug_info0:
 954 0000 B0050000 		.4byte	0x5b0
 955 0004 0200     		.2byte	0x2
 956 0006 00000000 		.4byte	.Ldebug_abbrev0
 957 000a 04       		.byte	0x4
 958 000b 01       		.uleb128 0x1
 959 000c B8010000 		.4byte	.LASF40
 960 0010 01       		.byte	0x1
 961 0011 23010000 		.4byte	.LASF41
 962 0015 85000000 		.4byte	.LASF42
 963 0019 00000000 		.4byte	0
 964 001d 00000000 		.4byte	0
 965 0021 F0000000 		.4byte	.Ldebug_ranges0+0xf0
ARM GAS  /tmp/ccghjEXC.s 			page 18


 966 0025 00000000 		.4byte	.Ldebug_line0
 967 0029 02       		.uleb128 0x2
 968 002a 04       		.byte	0x4
 969 002b 05       		.byte	0x5
 970 002c 696E7400 		.ascii	"int\000"
 971 0030 03       		.uleb128 0x3
 972 0031 00000000 		.4byte	.LASF2
 973 0035 02       		.byte	0x2
 974 0036 D4       		.byte	0xd4
 975 0037 3B000000 		.4byte	0x3b
 976 003b 04       		.uleb128 0x4
 977 003c 04       		.byte	0x4
 978 003d 07       		.byte	0x7
 979 003e 14000000 		.4byte	.LASF0
 980 0042 04       		.uleb128 0x4
 981 0043 01       		.byte	0x1
 982 0044 06       		.byte	0x6
 983 0045 00020000 		.4byte	.LASF1
 984 0049 03       		.uleb128 0x3
 985 004a 51000000 		.4byte	.LASF3
 986 004e 03       		.byte	0x3
 987 004f 2A       		.byte	0x2a
 988 0050 54000000 		.4byte	0x54
 989 0054 04       		.uleb128 0x4
 990 0055 01       		.byte	0x1
 991 0056 08       		.byte	0x8
 992 0057 F0000000 		.4byte	.LASF4
 993 005b 04       		.uleb128 0x4
 994 005c 02       		.byte	0x2
 995 005d 05       		.byte	0x5
 996 005e D6010000 		.4byte	.LASF5
 997 0062 04       		.uleb128 0x4
 998 0063 02       		.byte	0x2
 999 0064 07       		.byte	0x7
 1000 0065 C9000000 		.4byte	.LASF6
 1001 0069 03       		.uleb128 0x3
 1002 006a 82010000 		.4byte	.LASF7
 1003 006e 03       		.byte	0x3
 1004 006f 4F       		.byte	0x4f
 1005 0070 74000000 		.4byte	0x74
 1006 0074 04       		.uleb128 0x4
 1007 0075 04       		.byte	0x4
 1008 0076 05       		.byte	0x5
 1009 0077 F7010000 		.4byte	.LASF8
 1010 007b 04       		.uleb128 0x4
 1011 007c 04       		.byte	0x4
 1012 007d 07       		.byte	0x7
 1013 007e 73000000 		.4byte	.LASF9
 1014 0082 04       		.uleb128 0x4
 1015 0083 08       		.byte	0x8
 1016 0084 05       		.byte	0x5
 1017 0085 9B010000 		.4byte	.LASF10
 1018 0089 04       		.uleb128 0x4
 1019 008a 08       		.byte	0x8
 1020 008b 07       		.byte	0x7
 1021 008c 45010000 		.4byte	.LASF11
 1022 0090 03       		.uleb128 0x3
ARM GAS  /tmp/ccghjEXC.s 			page 19


 1023 0091 21000000 		.4byte	.LASF12
 1024 0095 04       		.byte	0x4
 1025 0096 2B       		.byte	0x2b
 1026 0097 9B000000 		.4byte	0x9b
 1027 009b 04       		.uleb128 0x4
 1028 009c 01       		.byte	0x1
 1029 009d 02       		.byte	0x2
 1030 009e 11020000 		.4byte	.LASF13
 1031 00a2 03       		.uleb128 0x3
 1032 00a3 3F010000 		.4byte	.LASF14
 1033 00a7 04       		.byte	0x4
 1034 00a8 31       		.byte	0x31
 1035 00a9 69000000 		.4byte	0x69
 1036 00ad 05       		.uleb128 0x5
 1037 00ae 04       		.byte	0x4
 1038 00af 06       		.uleb128 0x6
 1039 00b0 04       		.byte	0x4
 1040 00b1 B5000000 		.4byte	0xb5
 1041 00b5 07       		.uleb128 0x7
 1042 00b6 BA000000 		.4byte	0xba
 1043 00ba 04       		.uleb128 0x4
 1044 00bb 01       		.byte	0x1
 1045 00bc 08       		.byte	0x8
 1046 00bd B3010000 		.4byte	.LASF15
 1047 00c1 06       		.uleb128 0x6
 1048 00c2 04       		.byte	0x4
 1049 00c3 C7000000 		.4byte	0xc7
 1050 00c7 08       		.uleb128 0x8
 1051 00c8 01       		.byte	0x1
 1052 00c9 A2000000 		.4byte	0xa2
 1053 00cd D7000000 		.4byte	0xd7
 1054 00d1 09       		.uleb128 0x9
 1055 00d2 AD000000 		.4byte	0xad
 1056 00d6 00       		.byte	0
 1057 00d7 06       		.uleb128 0x6
 1058 00d8 04       		.byte	0x4
 1059 00d9 49000000 		.4byte	0x49
 1060 00dd 0A       		.uleb128 0xa
 1061 00de 17020000 		.4byte	.LASF20
 1062 00e2 10       		.byte	0x10
 1063 00e3 05       		.byte	0x5
 1064 00e4 48       		.byte	0x48
 1065 00e5 22010000 		.4byte	0x122
 1066 00e9 0B       		.uleb128 0xb
 1067 00ea DC000000 		.4byte	.LASF16
 1068 00ee 05       		.byte	0x5
 1069 00ef 49       		.byte	0x49
 1070 00f0 47010000 		.4byte	0x147
 1071 00f4 02       		.byte	0x2
 1072 00f5 23       		.byte	0x23
 1073 00f6 00       		.uleb128 0
 1074 00f7 0B       		.uleb128 0xb
 1075 00f8 0D010000 		.4byte	.LASF17
 1076 00fc 05       		.byte	0x5
 1077 00fd 49       		.byte	0x49
 1078 00fe 67010000 		.4byte	0x167
 1079 0102 02       		.byte	0x2
ARM GAS  /tmp/ccghjEXC.s 			page 20


 1080 0103 23       		.byte	0x23
 1081 0104 04       		.uleb128 0x4
 1082 0105 0C       		.uleb128 0xc
 1083 0106 70757400 		.ascii	"put\000"
 1084 010a 05       		.byte	0x5
 1085 010b 49       		.byte	0x49
 1086 010c 82010000 		.4byte	0x182
 1087 0110 02       		.byte	0x2
 1088 0111 23       		.byte	0x23
 1089 0112 08       		.uleb128 0x8
 1090 0113 0C       		.uleb128 0xc
 1091 0114 67657400 		.ascii	"get\000"
 1092 0118 05       		.byte	0x5
 1093 0119 49       		.byte	0x49
 1094 011a C1000000 		.4byte	0xc1
 1095 011e 02       		.byte	0x2
 1096 011f 23       		.byte	0x23
 1097 0120 0C       		.uleb128 0xc
 1098 0121 00       		.byte	0
 1099 0122 08       		.uleb128 0x8
 1100 0123 01       		.byte	0x1
 1101 0124 30000000 		.4byte	0x30
 1102 0128 3C010000 		.4byte	0x13c
 1103 012c 09       		.uleb128 0x9
 1104 012d AD000000 		.4byte	0xad
 1105 0131 09       		.uleb128 0x9
 1106 0132 3C010000 		.4byte	0x13c
 1107 0136 09       		.uleb128 0x9
 1108 0137 30000000 		.4byte	0x30
 1109 013b 00       		.byte	0
 1110 013c 06       		.uleb128 0x6
 1111 013d 04       		.byte	0x4
 1112 013e 42010000 		.4byte	0x142
 1113 0142 07       		.uleb128 0x7
 1114 0143 49000000 		.4byte	0x49
 1115 0147 06       		.uleb128 0x6
 1116 0148 04       		.byte	0x4
 1117 0149 22010000 		.4byte	0x122
 1118 014d 08       		.uleb128 0x8
 1119 014e 01       		.byte	0x1
 1120 014f 30000000 		.4byte	0x30
 1121 0153 67010000 		.4byte	0x167
 1122 0157 09       		.uleb128 0x9
 1123 0158 AD000000 		.4byte	0xad
 1124 015c 09       		.uleb128 0x9
 1125 015d D7000000 		.4byte	0xd7
 1126 0161 09       		.uleb128 0x9
 1127 0162 30000000 		.4byte	0x30
 1128 0166 00       		.byte	0
 1129 0167 06       		.uleb128 0x6
 1130 0168 04       		.byte	0x4
 1131 0169 4D010000 		.4byte	0x14d
 1132 016d 08       		.uleb128 0x8
 1133 016e 01       		.byte	0x1
 1134 016f A2000000 		.4byte	0xa2
 1135 0173 82010000 		.4byte	0x182
 1136 0177 09       		.uleb128 0x9
ARM GAS  /tmp/ccghjEXC.s 			page 21


 1137 0178 AD000000 		.4byte	0xad
 1138 017c 09       		.uleb128 0x9
 1139 017d 49000000 		.4byte	0x49
 1140 0181 00       		.byte	0
 1141 0182 06       		.uleb128 0x6
 1142 0183 04       		.byte	0x4
 1143 0184 6D010000 		.4byte	0x16d
 1144 0188 0D       		.uleb128 0xd
 1145 0189 04       		.byte	0x4
 1146 018a 05       		.byte	0x5
 1147 018b 51       		.byte	0x51
 1148 018c 9F010000 		.4byte	0x19f
 1149 0190 0C       		.uleb128 0xc
 1150 0191 766D7400 		.ascii	"vmt\000"
 1151 0195 05       		.byte	0x5
 1152 0196 53       		.byte	0x53
 1153 0197 9F010000 		.4byte	0x19f
 1154 019b 02       		.byte	0x2
 1155 019c 23       		.byte	0x23
 1156 019d 00       		.uleb128 0
 1157 019e 00       		.byte	0
 1158 019f 06       		.uleb128 0x6
 1159 01a0 04       		.byte	0x4
 1160 01a1 A5010000 		.4byte	0x1a5
 1161 01a5 07       		.uleb128 0x7
 1162 01a6 DD000000 		.4byte	0xdd
 1163 01aa 03       		.uleb128 0x3
 1164 01ab 59000000 		.4byte	.LASF18
 1165 01af 05       		.byte	0x5
 1166 01b0 55       		.byte	0x55
 1167 01b1 88010000 		.4byte	0x188
 1168 01b5 03       		.uleb128 0x3
 1169 01b6 FE000000 		.4byte	.LASF19
 1170 01ba 06       		.byte	0x6
 1171 01bb 28       		.byte	0x28
 1172 01bc C0010000 		.4byte	0x1c0
 1173 01c0 0A       		.uleb128 0xa
 1174 01c1 91010000 		.4byte	.LASF21
 1175 01c5 04       		.byte	0x4
 1176 01c6 07       		.byte	0x7
 1177 01c7 00       		.byte	0
 1178 01c8 DA010000 		.4byte	0x1da
 1179 01cc 0E       		.uleb128 0xe
 1180 01cd 07000000 		.4byte	.LASF43
 1181 01d1 AD000000 		.4byte	0xad
 1182 01d5 02       		.byte	0x2
 1183 01d6 23       		.byte	0x23
 1184 01d7 00       		.uleb128 0
 1185 01d8 01       		.byte	0x1
 1186 01d9 00       		.byte	0
 1187 01da 03       		.uleb128 0x3
 1188 01db E2000000 		.4byte	.LASF22
 1189 01df 06       		.byte	0x6
 1190 01e0 66       		.byte	0x66
 1191 01e1 B5010000 		.4byte	0x1b5
 1192 01e5 0A       		.uleb128 0xa
 1193 01e6 28000000 		.4byte	.LASF23
ARM GAS  /tmp/ccghjEXC.s 			page 22


 1194 01ea 10       		.byte	0x10
 1195 01eb 08       		.byte	0x8
 1196 01ec 3D       		.byte	0x3d
 1197 01ed 2A020000 		.4byte	0x22a
 1198 01f1 0B       		.uleb128 0xb
 1199 01f2 DC000000 		.4byte	.LASF16
 1200 01f6 08       		.byte	0x8
 1201 01f7 3E       		.byte	0x3e
 1202 01f8 47010000 		.4byte	0x147
 1203 01fc 02       		.byte	0x2
 1204 01fd 23       		.byte	0x23
 1205 01fe 00       		.uleb128 0
 1206 01ff 0B       		.uleb128 0xb
 1207 0200 0D010000 		.4byte	.LASF17
 1208 0204 08       		.byte	0x8
 1209 0205 3E       		.byte	0x3e
 1210 0206 67010000 		.4byte	0x167
 1211 020a 02       		.byte	0x2
 1212 020b 23       		.byte	0x23
 1213 020c 04       		.uleb128 0x4
 1214 020d 0C       		.uleb128 0xc
 1215 020e 70757400 		.ascii	"put\000"
 1216 0212 08       		.byte	0x8
 1217 0213 3E       		.byte	0x3e
 1218 0214 82010000 		.4byte	0x182
 1219 0218 02       		.byte	0x2
 1220 0219 23       		.byte	0x23
 1221 021a 08       		.uleb128 0x8
 1222 021b 0C       		.uleb128 0xc
 1223 021c 67657400 		.ascii	"get\000"
 1224 0220 08       		.byte	0x8
 1225 0221 3E       		.byte	0x3e
 1226 0222 C1000000 		.4byte	0xc1
 1227 0226 02       		.byte	0x2
 1228 0227 23       		.byte	0x23
 1229 0228 0C       		.uleb128 0xc
 1230 0229 00       		.byte	0
 1231 022a 0D       		.uleb128 0xd
 1232 022b 14       		.byte	0x14
 1233 022c 08       		.byte	0x8
 1234 022d 46       		.byte	0x46
 1235 022e 79020000 		.4byte	0x279
 1236 0232 0C       		.uleb128 0xc
 1237 0233 766D7400 		.ascii	"vmt\000"
 1238 0237 08       		.byte	0x8
 1239 0238 48       		.byte	0x48
 1240 0239 79020000 		.4byte	0x279
 1241 023d 02       		.byte	0x2
 1242 023e 23       		.byte	0x23
 1243 023f 00       		.uleb128 0
 1244 0240 0B       		.uleb128 0xb
 1245 0241 E0010000 		.4byte	.LASF24
 1246 0245 08       		.byte	0x8
 1247 0246 49       		.byte	0x49
 1248 0247 D7000000 		.4byte	0xd7
 1249 024b 02       		.byte	0x2
 1250 024c 23       		.byte	0x23
ARM GAS  /tmp/ccghjEXC.s 			page 23


 1251 024d 04       		.uleb128 0x4
 1252 024e 0B       		.uleb128 0xb
 1253 024f 6E000000 		.4byte	.LASF25
 1254 0253 08       		.byte	0x8
 1255 0254 49       		.byte	0x49
 1256 0255 30000000 		.4byte	0x30
 1257 0259 02       		.byte	0x2
 1258 025a 23       		.byte	0x23
 1259 025b 08       		.uleb128 0x8
 1260 025c 0C       		.uleb128 0xc
 1261 025d 656F7300 		.ascii	"eos\000"
 1262 0261 08       		.byte	0x8
 1263 0262 49       		.byte	0x49
 1264 0263 30000000 		.4byte	0x30
 1265 0267 02       		.byte	0x2
 1266 0268 23       		.byte	0x23
 1267 0269 0C       		.uleb128 0xc
 1268 026a 0B       		.uleb128 0xb
 1269 026b CF010000 		.4byte	.LASF26
 1270 026f 08       		.byte	0x8
 1271 0270 49       		.byte	0x49
 1272 0271 30000000 		.4byte	0x30
 1273 0275 02       		.byte	0x2
 1274 0276 23       		.byte	0x23
 1275 0277 10       		.uleb128 0x10
 1276 0278 00       		.byte	0
 1277 0279 06       		.uleb128 0x6
 1278 027a 04       		.byte	0x4
 1279 027b 7F020000 		.4byte	0x27f
 1280 027f 07       		.uleb128 0x7
 1281 0280 E5010000 		.4byte	0x1e5
 1282 0284 03       		.uleb128 0x3
 1283 0285 75010000 		.4byte	.LASF27
 1284 0289 08       		.byte	0x8
 1285 028a 4A       		.byte	0x4a
 1286 028b 2A020000 		.4byte	0x22a
 1287 028f 0F       		.uleb128 0xf
 1288 0290 35000000 		.4byte	.LASF30
 1289 0294 01       		.byte	0x1
 1290 0295 25       		.byte	0x25
 1291 0296 01       		.byte	0x1
 1292 0297 F0020000 		.4byte	0x2f0
 1293 029b 01       		.byte	0x1
 1294 029c F0020000 		.4byte	0x2f0
 1295 02a0 10       		.uleb128 0x10
 1296 02a1 7000     		.ascii	"p\000"
 1297 02a3 01       		.byte	0x1
 1298 02a4 25       		.byte	0x25
 1299 02a5 F0020000 		.4byte	0x2f0
 1300 02a9 10       		.uleb128 0x10
 1301 02aa 6E756D00 		.ascii	"num\000"
 1302 02ae 01       		.byte	0x1
 1303 02af 26       		.byte	0x26
 1304 02b0 74000000 		.4byte	0x74
 1305 02b4 11       		.uleb128 0x11
 1306 02b5 64010000 		.4byte	.LASF28
 1307 02b9 01       		.byte	0x1
ARM GAS  /tmp/ccghjEXC.s 			page 24


 1308 02ba 27       		.byte	0x27
 1309 02bb 3B000000 		.4byte	0x3b
 1310 02bf 11       		.uleb128 0x11
 1311 02c0 5C010000 		.4byte	.LASF29
 1312 02c4 01       		.byte	0x1
 1313 02c5 28       		.byte	0x28
 1314 02c6 74000000 		.4byte	0x74
 1315 02ca 12       		.uleb128 0x12
 1316 02cb 6900     		.ascii	"i\000"
 1317 02cd 01       		.byte	0x1
 1318 02ce 29       		.byte	0x29
 1319 02cf 29000000 		.4byte	0x29
 1320 02d3 12       		.uleb128 0x12
 1321 02d4 7100     		.ascii	"q\000"
 1322 02d6 01       		.byte	0x1
 1323 02d7 2A       		.byte	0x2a
 1324 02d8 F0020000 		.4byte	0x2f0
 1325 02dc 12       		.uleb128 0x12
 1326 02dd 6C00     		.ascii	"l\000"
 1327 02df 01       		.byte	0x1
 1328 02e0 2B       		.byte	0x2b
 1329 02e1 74000000 		.4byte	0x74
 1330 02e5 12       		.uleb128 0x12
 1331 02e6 6C6C00   		.ascii	"ll\000"
 1332 02e9 01       		.byte	0x1
 1333 02ea 2B       		.byte	0x2b
 1334 02eb 74000000 		.4byte	0x74
 1335 02ef 00       		.byte	0
 1336 02f0 06       		.uleb128 0x6
 1337 02f1 04       		.byte	0x4
 1338 02f2 BA000000 		.4byte	0xba
 1339 02f6 0F       		.uleb128 0xf
 1340 02f7 0C020000 		.4byte	.LASF31
 1341 02fb 01       		.byte	0x1
 1342 02fc 46       		.byte	0x46
 1343 02fd 01       		.byte	0x1
 1344 02fe F0020000 		.4byte	0x2f0
 1345 0302 01       		.byte	0x1
 1346 0303 27030000 		.4byte	0x327
 1347 0307 10       		.uleb128 0x10
 1348 0308 7000     		.ascii	"p\000"
 1349 030a 01       		.byte	0x1
 1350 030b 46       		.byte	0x46
 1351 030c F0020000 		.4byte	0x2f0
 1352 0310 10       		.uleb128 0x10
 1353 0311 6E756D00 		.ascii	"num\000"
 1354 0315 01       		.byte	0x1
 1355 0316 46       		.byte	0x46
 1356 0317 74000000 		.4byte	0x74
 1357 031b 11       		.uleb128 0x11
 1358 031c 64010000 		.4byte	.LASF28
 1359 0320 01       		.byte	0x1
 1360 0321 46       		.byte	0x46
 1361 0322 3B000000 		.4byte	0x3b
 1362 0326 00       		.byte	0
 1363 0327 13       		.uleb128 0x13
 1364 0328 01       		.byte	0x1
ARM GAS  /tmp/ccghjEXC.s 			page 25


 1365 0329 12010000 		.4byte	.LASF38
 1366 032d 01       		.byte	0x1
 1367 032e 70       		.byte	0x70
 1368 032f 01       		.byte	0x1
 1369 0330 00000000 		.4byte	.LFB10
 1370 0334 78040000 		.4byte	.LFE10
 1371 0338 00000000 		.4byte	.LLST0
 1372 033c 28050000 		.4byte	0x528
 1373 0340 14       		.uleb128 0x14
 1374 0341 63687000 		.ascii	"chp\000"
 1375 0345 01       		.byte	0x1
 1376 0346 70       		.byte	0x70
 1377 0347 28050000 		.4byte	0x528
 1378 034b 2D000000 		.4byte	.LLST1
 1379 034f 14       		.uleb128 0x14
 1380 0350 666D7400 		.ascii	"fmt\000"
 1381 0354 01       		.byte	0x1
 1382 0355 70       		.byte	0x70
 1383 0356 AF000000 		.4byte	0xaf
 1384 035a 4B000000 		.4byte	.LLST2
 1385 035e 14       		.uleb128 0x14
 1386 035f 617000   		.ascii	"ap\000"
 1387 0362 01       		.byte	0x1
 1388 0363 70       		.byte	0x70
 1389 0364 DA010000 		.4byte	0x1da
 1390 0368 E8000000 		.4byte	.LLST3
 1391 036c 15       		.uleb128 0x15
 1392 036d 7000     		.ascii	"p\000"
 1393 036f 01       		.byte	0x1
 1394 0370 71       		.byte	0x71
 1395 0371 F0020000 		.4byte	0x2f0
 1396 0375 AE010000 		.4byte	.LLST4
 1397 0379 15       		.uleb128 0x15
 1398 037a 7300     		.ascii	"s\000"
 1399 037c 01       		.byte	0x1
 1400 037d 71       		.byte	0x71
 1401 037e F0020000 		.4byte	0x2f0
 1402 0382 6A020000 		.4byte	.LLST5
 1403 0386 15       		.uleb128 0x15
 1404 0387 6300     		.ascii	"c\000"
 1405 0389 01       		.byte	0x1
 1406 038a 71       		.byte	0x71
 1407 038b BA000000 		.4byte	0xba
 1408 038f D4020000 		.4byte	.LLST6
 1409 0393 16       		.uleb128 0x16
 1410 0394 1C010000 		.4byte	.LASF32
 1411 0398 01       		.byte	0x1
 1412 0399 71       		.byte	0x71
 1413 039a BA000000 		.4byte	0xba
 1414 039e 82030000 		.4byte	.LLST7
 1415 03a2 15       		.uleb128 0x15
 1416 03a3 6900     		.ascii	"i\000"
 1417 03a5 01       		.byte	0x1
 1418 03a6 72       		.byte	0x72
 1419 03a7 29000000 		.4byte	0x29
 1420 03ab F5030000 		.4byte	.LLST8
 1421 03af 16       		.uleb128 0x16
ARM GAS  /tmp/ccghjEXC.s 			page 26


 1422 03b0 A9010000 		.4byte	.LASF33
 1423 03b4 01       		.byte	0x1
 1424 03b5 72       		.byte	0x72
 1425 03b6 29000000 		.4byte	0x29
 1426 03ba 2B040000 		.4byte	.LLST9
 1427 03be 16       		.uleb128 0x16
 1428 03bf EA000000 		.4byte	.LASF34
 1429 03c3 01       		.byte	0x1
 1430 03c4 72       		.byte	0x72
 1431 03c5 29000000 		.4byte	0x29
 1432 03c9 B2040000 		.4byte	.LLST10
 1433 03cd 16       		.uleb128 0x16
 1434 03ce 0C000000 		.4byte	.LASF35
 1435 03d2 01       		.byte	0x1
 1436 03d3 73       		.byte	0x73
 1437 03d4 90000000 		.4byte	0x90
 1438 03d8 8D050000 		.4byte	.LLST11
 1439 03dc 16       		.uleb128 0x16
 1440 03dd C4010000 		.4byte	.LASF36
 1441 03e1 01       		.byte	0x1
 1442 03e2 73       		.byte	0x73
 1443 03e3 90000000 		.4byte	0x90
 1444 03e7 A1050000 		.4byte	.LLST12
 1445 03eb 15       		.uleb128 0x15
 1446 03ec 6C00     		.ascii	"l\000"
 1447 03ee 01       		.byte	0x1
 1448 03ef 74       		.byte	0x74
 1449 03f0 74000000 		.4byte	0x74
 1450 03f4 E7050000 		.4byte	.LLST13
 1451 03f8 17       		.uleb128 0x17
 1452 03f9 8A010000 		.4byte	.LASF37
 1453 03fd 01       		.byte	0x1
 1454 03fe 79       		.byte	0x79
 1455 03ff 2E050000 		.4byte	0x52e
 1456 0403 02       		.byte	0x2
 1457 0404 91       		.byte	0x91
 1458 0405 4C       		.sleb128 -52
 1459 0406 18       		.uleb128 0x18
 1460 0407 E7010000 		.4byte	.LASF44
 1461 040b 01       		.byte	0x1
 1462 040c E4       		.byte	0xe4
 1463 040d A4030000 		.4byte	.L19
 1464 0411 19       		.uleb128 0x19
 1465 0412 F6020000 		.4byte	0x2f6
 1466 0416 1C000000 		.4byte	.LBB12
 1467 041a 00000000 		.4byte	.Ldebug_ranges0+0
 1468 041e 01       		.byte	0x1
 1469 041f CD       		.byte	0xcd
 1470 0420 9E040000 		.4byte	0x49e
 1471 0424 1A       		.uleb128 0x1a
 1472 0425 1B030000 		.4byte	0x31b
 1473 0429 34060000 		.4byte	.LLST14
 1474 042d 1A       		.uleb128 0x1a
 1475 042e 10030000 		.4byte	0x310
 1476 0432 48060000 		.4byte	.LLST15
 1477 0436 1A       		.uleb128 0x1a
 1478 0437 07030000 		.4byte	0x307
ARM GAS  /tmp/ccghjEXC.s 			page 27


 1479 043b 5B060000 		.4byte	.LLST16
 1480 043f 1B       		.uleb128 0x1b
 1481 0440 8F020000 		.4byte	0x28f
 1482 0444 1C000000 		.4byte	.LBB13
 1483 0448 38000000 		.4byte	.Ldebug_ranges0+0x38
 1484 044c 01       		.byte	0x1
 1485 044d 48       		.byte	0x48
 1486 044e 1A       		.uleb128 0x1a
 1487 044f BF020000 		.4byte	0x2bf
 1488 0453 9A060000 		.4byte	.LLST17
 1489 0457 1A       		.uleb128 0x1a
 1490 0458 B4020000 		.4byte	0x2b4
 1491 045c BA060000 		.4byte	.LLST18
 1492 0460 1A       		.uleb128 0x1a
 1493 0461 A9020000 		.4byte	0x2a9
 1494 0465 D9060000 		.4byte	.LLST19
 1495 0469 1A       		.uleb128 0x1a
 1496 046a A0020000 		.4byte	0x2a0
 1497 046e 03070000 		.4byte	.LLST20
 1498 0472 1C       		.uleb128 0x1c
 1499 0473 70000000 		.4byte	.Ldebug_ranges0+0x70
 1500 0477 1D       		.uleb128 0x1d
 1501 0478 CA020000 		.4byte	0x2ca
 1502 047c 71070000 		.4byte	.LLST21
 1503 0480 1D       		.uleb128 0x1d
 1504 0481 D3020000 		.4byte	0x2d3
 1505 0485 91070000 		.4byte	.LLST22
 1506 0489 1D       		.uleb128 0x1d
 1507 048a DC020000 		.4byte	0x2dc
 1508 048e AF070000 		.4byte	.LLST23
 1509 0492 1D       		.uleb128 0x1d
 1510 0493 E5020000 		.4byte	0x2e5
 1511 0497 E3070000 		.4byte	.LLST24
 1512 049b 00       		.byte	0
 1513 049c 00       		.byte	0
 1514 049d 00       		.byte	0
 1515 049e 1B       		.uleb128 0x1b
 1516 049f F6020000 		.4byte	0x2f6
 1517 04a3 AE030000 		.4byte	.LBB30
 1518 04a7 A8000000 		.4byte	.Ldebug_ranges0+0xa8
 1519 04ab 01       		.byte	0x1
 1520 04ac E9       		.byte	0xe9
 1521 04ad 1A       		.uleb128 0x1a
 1522 04ae 1B030000 		.4byte	0x31b
 1523 04b2 22080000 		.4byte	.LLST25
 1524 04b6 1A       		.uleb128 0x1a
 1525 04b7 10030000 		.4byte	0x310
 1526 04bb 35080000 		.4byte	.LLST26
 1527 04bf 1A       		.uleb128 0x1a
 1528 04c0 07030000 		.4byte	0x307
 1529 04c4 54080000 		.4byte	.LLST27
 1530 04c8 1B       		.uleb128 0x1b
 1531 04c9 8F020000 		.4byte	0x28f
 1532 04cd AE030000 		.4byte	.LBB31
 1533 04d1 C0000000 		.4byte	.Ldebug_ranges0+0xc0
 1534 04d5 01       		.byte	0x1
 1535 04d6 48       		.byte	0x48
ARM GAS  /tmp/ccghjEXC.s 			page 28


 1536 04d7 1A       		.uleb128 0x1a
 1537 04d8 BF020000 		.4byte	0x2bf
 1538 04dc 9A060000 		.4byte	.LLST17
 1539 04e0 1A       		.uleb128 0x1a
 1540 04e1 B4020000 		.4byte	0x2b4
 1541 04e5 BA060000 		.4byte	.LLST18
 1542 04e9 1A       		.uleb128 0x1a
 1543 04ea A9020000 		.4byte	0x2a9
 1544 04ee D9060000 		.4byte	.LLST19
 1545 04f2 1A       		.uleb128 0x1a
 1546 04f3 A0020000 		.4byte	0x2a0
 1547 04f7 03070000 		.4byte	.LLST20
 1548 04fb 1C       		.uleb128 0x1c
 1549 04fc D8000000 		.4byte	.Ldebug_ranges0+0xd8
 1550 0500 1D       		.uleb128 0x1d
 1551 0501 CA020000 		.4byte	0x2ca
 1552 0505 69080000 		.4byte	.LLST32
 1553 0509 1D       		.uleb128 0x1d
 1554 050a D3020000 		.4byte	0x2d3
 1555 050e 92080000 		.4byte	.LLST33
 1556 0512 1D       		.uleb128 0x1d
 1557 0513 DC020000 		.4byte	0x2dc
 1558 0517 AF070000 		.4byte	.LLST23
 1559 051b 1D       		.uleb128 0x1d
 1560 051c E5020000 		.4byte	0x2e5
 1561 0520 E3070000 		.4byte	.LLST24
 1562 0524 00       		.byte	0
 1563 0525 00       		.byte	0
 1564 0526 00       		.byte	0
 1565 0527 00       		.byte	0
 1566 0528 06       		.uleb128 0x6
 1567 0529 04       		.byte	0x4
 1568 052a AA010000 		.4byte	0x1aa
 1569 052e 1E       		.uleb128 0x1e
 1570 052f BA000000 		.4byte	0xba
 1571 0533 3E050000 		.4byte	0x53e
 1572 0537 1F       		.uleb128 0x1f
 1573 0538 3B000000 		.4byte	0x3b
 1574 053c 0B       		.byte	0xb
 1575 053d 00       		.byte	0
 1576 053e 20       		.uleb128 0x20
 1577 053f 01       		.byte	0x1
 1578 0540 6A010000 		.4byte	.LASF39
 1579 0544 01       		.byte	0x1
 1580 0545 2001     		.2byte	0x120
 1581 0547 01       		.byte	0x1
 1582 0548 29000000 		.4byte	0x29
 1583 054c 00000000 		.4byte	.LFB11
 1584 0550 36000000 		.4byte	.LFE11
 1585 0554 BD080000 		.4byte	.LLST36
 1586 0558 21       		.uleb128 0x21
 1587 0559 73747200 		.ascii	"str\000"
 1588 055d 01       		.byte	0x1
 1589 055e 2001     		.2byte	0x120
 1590 0560 F0020000 		.4byte	0x2f0
 1591 0564 F5080000 		.4byte	.LLST37
 1592 0568 22       		.uleb128 0x22
ARM GAS  /tmp/ccghjEXC.s 			page 29


 1593 0569 6E000000 		.4byte	.LASF25
 1594 056d 01       		.byte	0x1
 1595 056e 2001     		.2byte	0x120
 1596 0570 30000000 		.4byte	0x30
 1597 0574 13090000 		.4byte	.LLST38
 1598 0578 23       		.uleb128 0x23
 1599 0579 666D7400 		.ascii	"fmt\000"
 1600 057d 01       		.byte	0x1
 1601 057e 2001     		.2byte	0x120
 1602 0580 AF000000 		.4byte	0xaf
 1603 0584 02       		.byte	0x2
 1604 0585 91       		.byte	0x91
 1605 0586 78       		.sleb128 -8
 1606 0587 24       		.uleb128 0x24
 1607 0588 25       		.uleb128 0x25
 1608 0589 617000   		.ascii	"ap\000"
 1609 058c 01       		.byte	0x1
 1610 058d 2101     		.2byte	0x121
 1611 058f DA010000 		.4byte	0x1da
 1612 0593 02       		.byte	0x2
 1613 0594 91       		.byte	0x91
 1614 0595 64       		.sleb128 -28
 1615 0596 25       		.uleb128 0x25
 1616 0597 6D7300   		.ascii	"ms\000"
 1617 059a 01       		.byte	0x1
 1618 059b 2201     		.2byte	0x122
 1619 059d 84020000 		.4byte	0x284
 1620 05a1 02       		.byte	0x2
 1621 05a2 91       		.byte	0x91
 1622 05a3 50       		.sleb128 -48
 1623 05a4 25       		.uleb128 0x25
 1624 05a5 63687000 		.ascii	"chp\000"
 1625 05a9 01       		.byte	0x1
 1626 05aa 2301     		.2byte	0x123
 1627 05ac 28050000 		.4byte	0x528
 1628 05b0 01       		.byte	0x1
 1629 05b1 5D       		.byte	0x5d
 1630 05b2 00       		.byte	0
 1631 05b3 00       		.byte	0
 1632              		.section	.debug_abbrev,"",%progbits
 1633              	.Ldebug_abbrev0:
 1634 0000 01       		.uleb128 0x1
 1635 0001 11       		.uleb128 0x11
 1636 0002 01       		.byte	0x1
 1637 0003 25       		.uleb128 0x25
 1638 0004 0E       		.uleb128 0xe
 1639 0005 13       		.uleb128 0x13
 1640 0006 0B       		.uleb128 0xb
 1641 0007 03       		.uleb128 0x3
 1642 0008 0E       		.uleb128 0xe
 1643 0009 1B       		.uleb128 0x1b
 1644 000a 0E       		.uleb128 0xe
 1645 000b 11       		.uleb128 0x11
 1646 000c 01       		.uleb128 0x1
 1647 000d 52       		.uleb128 0x52
 1648 000e 01       		.uleb128 0x1
 1649 000f 55       		.uleb128 0x55
ARM GAS  /tmp/ccghjEXC.s 			page 30


 1650 0010 06       		.uleb128 0x6
 1651 0011 10       		.uleb128 0x10
 1652 0012 06       		.uleb128 0x6
 1653 0013 00       		.byte	0
 1654 0014 00       		.byte	0
 1655 0015 02       		.uleb128 0x2
 1656 0016 24       		.uleb128 0x24
 1657 0017 00       		.byte	0
 1658 0018 0B       		.uleb128 0xb
 1659 0019 0B       		.uleb128 0xb
 1660 001a 3E       		.uleb128 0x3e
 1661 001b 0B       		.uleb128 0xb
 1662 001c 03       		.uleb128 0x3
 1663 001d 08       		.uleb128 0x8
 1664 001e 00       		.byte	0
 1665 001f 00       		.byte	0
 1666 0020 03       		.uleb128 0x3
 1667 0021 16       		.uleb128 0x16
 1668 0022 00       		.byte	0
 1669 0023 03       		.uleb128 0x3
 1670 0024 0E       		.uleb128 0xe
 1671 0025 3A       		.uleb128 0x3a
 1672 0026 0B       		.uleb128 0xb
 1673 0027 3B       		.uleb128 0x3b
 1674 0028 0B       		.uleb128 0xb
 1675 0029 49       		.uleb128 0x49
 1676 002a 13       		.uleb128 0x13
 1677 002b 00       		.byte	0
 1678 002c 00       		.byte	0
 1679 002d 04       		.uleb128 0x4
 1680 002e 24       		.uleb128 0x24
 1681 002f 00       		.byte	0
 1682 0030 0B       		.uleb128 0xb
 1683 0031 0B       		.uleb128 0xb
 1684 0032 3E       		.uleb128 0x3e
 1685 0033 0B       		.uleb128 0xb
 1686 0034 03       		.uleb128 0x3
 1687 0035 0E       		.uleb128 0xe
 1688 0036 00       		.byte	0
 1689 0037 00       		.byte	0
 1690 0038 05       		.uleb128 0x5
 1691 0039 0F       		.uleb128 0xf
 1692 003a 00       		.byte	0
 1693 003b 0B       		.uleb128 0xb
 1694 003c 0B       		.uleb128 0xb
 1695 003d 00       		.byte	0
 1696 003e 00       		.byte	0
 1697 003f 06       		.uleb128 0x6
 1698 0040 0F       		.uleb128 0xf
 1699 0041 00       		.byte	0
 1700 0042 0B       		.uleb128 0xb
 1701 0043 0B       		.uleb128 0xb
 1702 0044 49       		.uleb128 0x49
 1703 0045 13       		.uleb128 0x13
 1704 0046 00       		.byte	0
 1705 0047 00       		.byte	0
 1706 0048 07       		.uleb128 0x7
ARM GAS  /tmp/ccghjEXC.s 			page 31


 1707 0049 26       		.uleb128 0x26
 1708 004a 00       		.byte	0
 1709 004b 49       		.uleb128 0x49
 1710 004c 13       		.uleb128 0x13
 1711 004d 00       		.byte	0
 1712 004e 00       		.byte	0
 1713 004f 08       		.uleb128 0x8
 1714 0050 15       		.uleb128 0x15
 1715 0051 01       		.byte	0x1
 1716 0052 27       		.uleb128 0x27
 1717 0053 0C       		.uleb128 0xc
 1718 0054 49       		.uleb128 0x49
 1719 0055 13       		.uleb128 0x13
 1720 0056 01       		.uleb128 0x1
 1721 0057 13       		.uleb128 0x13
 1722 0058 00       		.byte	0
 1723 0059 00       		.byte	0
 1724 005a 09       		.uleb128 0x9
 1725 005b 05       		.uleb128 0x5
 1726 005c 00       		.byte	0
 1727 005d 49       		.uleb128 0x49
 1728 005e 13       		.uleb128 0x13
 1729 005f 00       		.byte	0
 1730 0060 00       		.byte	0
 1731 0061 0A       		.uleb128 0xa
 1732 0062 13       		.uleb128 0x13
 1733 0063 01       		.byte	0x1
 1734 0064 03       		.uleb128 0x3
 1735 0065 0E       		.uleb128 0xe
 1736 0066 0B       		.uleb128 0xb
 1737 0067 0B       		.uleb128 0xb
 1738 0068 3A       		.uleb128 0x3a
 1739 0069 0B       		.uleb128 0xb
 1740 006a 3B       		.uleb128 0x3b
 1741 006b 0B       		.uleb128 0xb
 1742 006c 01       		.uleb128 0x1
 1743 006d 13       		.uleb128 0x13
 1744 006e 00       		.byte	0
 1745 006f 00       		.byte	0
 1746 0070 0B       		.uleb128 0xb
 1747 0071 0D       		.uleb128 0xd
 1748 0072 00       		.byte	0
 1749 0073 03       		.uleb128 0x3
 1750 0074 0E       		.uleb128 0xe
 1751 0075 3A       		.uleb128 0x3a
 1752 0076 0B       		.uleb128 0xb
 1753 0077 3B       		.uleb128 0x3b
 1754 0078 0B       		.uleb128 0xb
 1755 0079 49       		.uleb128 0x49
 1756 007a 13       		.uleb128 0x13
 1757 007b 38       		.uleb128 0x38
 1758 007c 0A       		.uleb128 0xa
 1759 007d 00       		.byte	0
 1760 007e 00       		.byte	0
 1761 007f 0C       		.uleb128 0xc
 1762 0080 0D       		.uleb128 0xd
 1763 0081 00       		.byte	0
ARM GAS  /tmp/ccghjEXC.s 			page 32


 1764 0082 03       		.uleb128 0x3
 1765 0083 08       		.uleb128 0x8
 1766 0084 3A       		.uleb128 0x3a
 1767 0085 0B       		.uleb128 0xb
 1768 0086 3B       		.uleb128 0x3b
 1769 0087 0B       		.uleb128 0xb
 1770 0088 49       		.uleb128 0x49
 1771 0089 13       		.uleb128 0x13
 1772 008a 38       		.uleb128 0x38
 1773 008b 0A       		.uleb128 0xa
 1774 008c 00       		.byte	0
 1775 008d 00       		.byte	0
 1776 008e 0D       		.uleb128 0xd
 1777 008f 13       		.uleb128 0x13
 1778 0090 01       		.byte	0x1
 1779 0091 0B       		.uleb128 0xb
 1780 0092 0B       		.uleb128 0xb
 1781 0093 3A       		.uleb128 0x3a
 1782 0094 0B       		.uleb128 0xb
 1783 0095 3B       		.uleb128 0x3b
 1784 0096 0B       		.uleb128 0xb
 1785 0097 01       		.uleb128 0x1
 1786 0098 13       		.uleb128 0x13
 1787 0099 00       		.byte	0
 1788 009a 00       		.byte	0
 1789 009b 0E       		.uleb128 0xe
 1790 009c 0D       		.uleb128 0xd
 1791 009d 00       		.byte	0
 1792 009e 03       		.uleb128 0x3
 1793 009f 0E       		.uleb128 0xe
 1794 00a0 49       		.uleb128 0x49
 1795 00a1 13       		.uleb128 0x13
 1796 00a2 38       		.uleb128 0x38
 1797 00a3 0A       		.uleb128 0xa
 1798 00a4 34       		.uleb128 0x34
 1799 00a5 0C       		.uleb128 0xc
 1800 00a6 00       		.byte	0
 1801 00a7 00       		.byte	0
 1802 00a8 0F       		.uleb128 0xf
 1803 00a9 2E       		.uleb128 0x2e
 1804 00aa 01       		.byte	0x1
 1805 00ab 03       		.uleb128 0x3
 1806 00ac 0E       		.uleb128 0xe
 1807 00ad 3A       		.uleb128 0x3a
 1808 00ae 0B       		.uleb128 0xb
 1809 00af 3B       		.uleb128 0x3b
 1810 00b0 0B       		.uleb128 0xb
 1811 00b1 27       		.uleb128 0x27
 1812 00b2 0C       		.uleb128 0xc
 1813 00b3 49       		.uleb128 0x49
 1814 00b4 13       		.uleb128 0x13
 1815 00b5 20       		.uleb128 0x20
 1816 00b6 0B       		.uleb128 0xb
 1817 00b7 01       		.uleb128 0x1
 1818 00b8 13       		.uleb128 0x13
 1819 00b9 00       		.byte	0
 1820 00ba 00       		.byte	0
ARM GAS  /tmp/ccghjEXC.s 			page 33


 1821 00bb 10       		.uleb128 0x10
 1822 00bc 05       		.uleb128 0x5
 1823 00bd 00       		.byte	0
 1824 00be 03       		.uleb128 0x3
 1825 00bf 08       		.uleb128 0x8
 1826 00c0 3A       		.uleb128 0x3a
 1827 00c1 0B       		.uleb128 0xb
 1828 00c2 3B       		.uleb128 0x3b
 1829 00c3 0B       		.uleb128 0xb
 1830 00c4 49       		.uleb128 0x49
 1831 00c5 13       		.uleb128 0x13
 1832 00c6 00       		.byte	0
 1833 00c7 00       		.byte	0
 1834 00c8 11       		.uleb128 0x11
 1835 00c9 05       		.uleb128 0x5
 1836 00ca 00       		.byte	0
 1837 00cb 03       		.uleb128 0x3
 1838 00cc 0E       		.uleb128 0xe
 1839 00cd 3A       		.uleb128 0x3a
 1840 00ce 0B       		.uleb128 0xb
 1841 00cf 3B       		.uleb128 0x3b
 1842 00d0 0B       		.uleb128 0xb
 1843 00d1 49       		.uleb128 0x49
 1844 00d2 13       		.uleb128 0x13
 1845 00d3 00       		.byte	0
 1846 00d4 00       		.byte	0
 1847 00d5 12       		.uleb128 0x12
 1848 00d6 34       		.uleb128 0x34
 1849 00d7 00       		.byte	0
 1850 00d8 03       		.uleb128 0x3
 1851 00d9 08       		.uleb128 0x8
 1852 00da 3A       		.uleb128 0x3a
 1853 00db 0B       		.uleb128 0xb
 1854 00dc 3B       		.uleb128 0x3b
 1855 00dd 0B       		.uleb128 0xb
 1856 00de 49       		.uleb128 0x49
 1857 00df 13       		.uleb128 0x13
 1858 00e0 00       		.byte	0
 1859 00e1 00       		.byte	0
 1860 00e2 13       		.uleb128 0x13
 1861 00e3 2E       		.uleb128 0x2e
 1862 00e4 01       		.byte	0x1
 1863 00e5 3F       		.uleb128 0x3f
 1864 00e6 0C       		.uleb128 0xc
 1865 00e7 03       		.uleb128 0x3
 1866 00e8 0E       		.uleb128 0xe
 1867 00e9 3A       		.uleb128 0x3a
 1868 00ea 0B       		.uleb128 0xb
 1869 00eb 3B       		.uleb128 0x3b
 1870 00ec 0B       		.uleb128 0xb
 1871 00ed 27       		.uleb128 0x27
 1872 00ee 0C       		.uleb128 0xc
 1873 00ef 11       		.uleb128 0x11
 1874 00f0 01       		.uleb128 0x1
 1875 00f1 12       		.uleb128 0x12
 1876 00f2 01       		.uleb128 0x1
 1877 00f3 40       		.uleb128 0x40
ARM GAS  /tmp/ccghjEXC.s 			page 34


 1878 00f4 06       		.uleb128 0x6
 1879 00f5 01       		.uleb128 0x1
 1880 00f6 13       		.uleb128 0x13
 1881 00f7 00       		.byte	0
 1882 00f8 00       		.byte	0
 1883 00f9 14       		.uleb128 0x14
 1884 00fa 05       		.uleb128 0x5
 1885 00fb 00       		.byte	0
 1886 00fc 03       		.uleb128 0x3
 1887 00fd 08       		.uleb128 0x8
 1888 00fe 3A       		.uleb128 0x3a
 1889 00ff 0B       		.uleb128 0xb
 1890 0100 3B       		.uleb128 0x3b
 1891 0101 0B       		.uleb128 0xb
 1892 0102 49       		.uleb128 0x49
 1893 0103 13       		.uleb128 0x13
 1894 0104 02       		.uleb128 0x2
 1895 0105 06       		.uleb128 0x6
 1896 0106 00       		.byte	0
 1897 0107 00       		.byte	0
 1898 0108 15       		.uleb128 0x15
 1899 0109 34       		.uleb128 0x34
 1900 010a 00       		.byte	0
 1901 010b 03       		.uleb128 0x3
 1902 010c 08       		.uleb128 0x8
 1903 010d 3A       		.uleb128 0x3a
 1904 010e 0B       		.uleb128 0xb
 1905 010f 3B       		.uleb128 0x3b
 1906 0110 0B       		.uleb128 0xb
 1907 0111 49       		.uleb128 0x49
 1908 0112 13       		.uleb128 0x13
 1909 0113 02       		.uleb128 0x2
 1910 0114 06       		.uleb128 0x6
 1911 0115 00       		.byte	0
 1912 0116 00       		.byte	0
 1913 0117 16       		.uleb128 0x16
 1914 0118 34       		.uleb128 0x34
 1915 0119 00       		.byte	0
 1916 011a 03       		.uleb128 0x3
 1917 011b 0E       		.uleb128 0xe
 1918 011c 3A       		.uleb128 0x3a
 1919 011d 0B       		.uleb128 0xb
 1920 011e 3B       		.uleb128 0x3b
 1921 011f 0B       		.uleb128 0xb
 1922 0120 49       		.uleb128 0x49
 1923 0121 13       		.uleb128 0x13
 1924 0122 02       		.uleb128 0x2
 1925 0123 06       		.uleb128 0x6
 1926 0124 00       		.byte	0
 1927 0125 00       		.byte	0
 1928 0126 17       		.uleb128 0x17
 1929 0127 34       		.uleb128 0x34
 1930 0128 00       		.byte	0
 1931 0129 03       		.uleb128 0x3
 1932 012a 0E       		.uleb128 0xe
 1933 012b 3A       		.uleb128 0x3a
 1934 012c 0B       		.uleb128 0xb
ARM GAS  /tmp/ccghjEXC.s 			page 35


 1935 012d 3B       		.uleb128 0x3b
 1936 012e 0B       		.uleb128 0xb
 1937 012f 49       		.uleb128 0x49
 1938 0130 13       		.uleb128 0x13
 1939 0131 02       		.uleb128 0x2
 1940 0132 0A       		.uleb128 0xa
 1941 0133 00       		.byte	0
 1942 0134 00       		.byte	0
 1943 0135 18       		.uleb128 0x18
 1944 0136 0A       		.uleb128 0xa
 1945 0137 00       		.byte	0
 1946 0138 03       		.uleb128 0x3
 1947 0139 0E       		.uleb128 0xe
 1948 013a 3A       		.uleb128 0x3a
 1949 013b 0B       		.uleb128 0xb
 1950 013c 3B       		.uleb128 0x3b
 1951 013d 0B       		.uleb128 0xb
 1952 013e 11       		.uleb128 0x11
 1953 013f 01       		.uleb128 0x1
 1954 0140 00       		.byte	0
 1955 0141 00       		.byte	0
 1956 0142 19       		.uleb128 0x19
 1957 0143 1D       		.uleb128 0x1d
 1958 0144 01       		.byte	0x1
 1959 0145 31       		.uleb128 0x31
 1960 0146 13       		.uleb128 0x13
 1961 0147 52       		.uleb128 0x52
 1962 0148 01       		.uleb128 0x1
 1963 0149 55       		.uleb128 0x55
 1964 014a 06       		.uleb128 0x6
 1965 014b 58       		.uleb128 0x58
 1966 014c 0B       		.uleb128 0xb
 1967 014d 59       		.uleb128 0x59
 1968 014e 0B       		.uleb128 0xb
 1969 014f 01       		.uleb128 0x1
 1970 0150 13       		.uleb128 0x13
 1971 0151 00       		.byte	0
 1972 0152 00       		.byte	0
 1973 0153 1A       		.uleb128 0x1a
 1974 0154 05       		.uleb128 0x5
 1975 0155 00       		.byte	0
 1976 0156 31       		.uleb128 0x31
 1977 0157 13       		.uleb128 0x13
 1978 0158 02       		.uleb128 0x2
 1979 0159 06       		.uleb128 0x6
 1980 015a 00       		.byte	0
 1981 015b 00       		.byte	0
 1982 015c 1B       		.uleb128 0x1b
 1983 015d 1D       		.uleb128 0x1d
 1984 015e 01       		.byte	0x1
 1985 015f 31       		.uleb128 0x31
 1986 0160 13       		.uleb128 0x13
 1987 0161 52       		.uleb128 0x52
 1988 0162 01       		.uleb128 0x1
 1989 0163 55       		.uleb128 0x55
 1990 0164 06       		.uleb128 0x6
 1991 0165 58       		.uleb128 0x58
ARM GAS  /tmp/ccghjEXC.s 			page 36


 1992 0166 0B       		.uleb128 0xb
 1993 0167 59       		.uleb128 0x59
 1994 0168 0B       		.uleb128 0xb
 1995 0169 00       		.byte	0
 1996 016a 00       		.byte	0
 1997 016b 1C       		.uleb128 0x1c
 1998 016c 0B       		.uleb128 0xb
 1999 016d 01       		.byte	0x1
 2000 016e 55       		.uleb128 0x55
 2001 016f 06       		.uleb128 0x6
 2002 0170 00       		.byte	0
 2003 0171 00       		.byte	0
 2004 0172 1D       		.uleb128 0x1d
 2005 0173 34       		.uleb128 0x34
 2006 0174 00       		.byte	0
 2007 0175 31       		.uleb128 0x31
 2008 0176 13       		.uleb128 0x13
 2009 0177 02       		.uleb128 0x2
 2010 0178 06       		.uleb128 0x6
 2011 0179 00       		.byte	0
 2012 017a 00       		.byte	0
 2013 017b 1E       		.uleb128 0x1e
 2014 017c 01       		.uleb128 0x1
 2015 017d 01       		.byte	0x1
 2016 017e 49       		.uleb128 0x49
 2017 017f 13       		.uleb128 0x13
 2018 0180 01       		.uleb128 0x1
 2019 0181 13       		.uleb128 0x13
 2020 0182 00       		.byte	0
 2021 0183 00       		.byte	0
 2022 0184 1F       		.uleb128 0x1f
 2023 0185 21       		.uleb128 0x21
 2024 0186 00       		.byte	0
 2025 0187 49       		.uleb128 0x49
 2026 0188 13       		.uleb128 0x13
 2027 0189 2F       		.uleb128 0x2f
 2028 018a 0B       		.uleb128 0xb
 2029 018b 00       		.byte	0
 2030 018c 00       		.byte	0
 2031 018d 20       		.uleb128 0x20
 2032 018e 2E       		.uleb128 0x2e
 2033 018f 01       		.byte	0x1
 2034 0190 3F       		.uleb128 0x3f
 2035 0191 0C       		.uleb128 0xc
 2036 0192 03       		.uleb128 0x3
 2037 0193 0E       		.uleb128 0xe
 2038 0194 3A       		.uleb128 0x3a
 2039 0195 0B       		.uleb128 0xb
 2040 0196 3B       		.uleb128 0x3b
 2041 0197 05       		.uleb128 0x5
 2042 0198 27       		.uleb128 0x27
 2043 0199 0C       		.uleb128 0xc
 2044 019a 49       		.uleb128 0x49
 2045 019b 13       		.uleb128 0x13
 2046 019c 11       		.uleb128 0x11
 2047 019d 01       		.uleb128 0x1
 2048 019e 12       		.uleb128 0x12
ARM GAS  /tmp/ccghjEXC.s 			page 37


 2049 019f 01       		.uleb128 0x1
 2050 01a0 40       		.uleb128 0x40
 2051 01a1 06       		.uleb128 0x6
 2052 01a2 00       		.byte	0
 2053 01a3 00       		.byte	0
 2054 01a4 21       		.uleb128 0x21
 2055 01a5 05       		.uleb128 0x5
 2056 01a6 00       		.byte	0
 2057 01a7 03       		.uleb128 0x3
 2058 01a8 08       		.uleb128 0x8
 2059 01a9 3A       		.uleb128 0x3a
 2060 01aa 0B       		.uleb128 0xb
 2061 01ab 3B       		.uleb128 0x3b
 2062 01ac 05       		.uleb128 0x5
 2063 01ad 49       		.uleb128 0x49
 2064 01ae 13       		.uleb128 0x13
 2065 01af 02       		.uleb128 0x2
 2066 01b0 06       		.uleb128 0x6
 2067 01b1 00       		.byte	0
 2068 01b2 00       		.byte	0
 2069 01b3 22       		.uleb128 0x22
 2070 01b4 05       		.uleb128 0x5
 2071 01b5 00       		.byte	0
 2072 01b6 03       		.uleb128 0x3
 2073 01b7 0E       		.uleb128 0xe
 2074 01b8 3A       		.uleb128 0x3a
 2075 01b9 0B       		.uleb128 0xb
 2076 01ba 3B       		.uleb128 0x3b
 2077 01bb 05       		.uleb128 0x5
 2078 01bc 49       		.uleb128 0x49
 2079 01bd 13       		.uleb128 0x13
 2080 01be 02       		.uleb128 0x2
 2081 01bf 06       		.uleb128 0x6
 2082 01c0 00       		.byte	0
 2083 01c1 00       		.byte	0
 2084 01c2 23       		.uleb128 0x23
 2085 01c3 05       		.uleb128 0x5
 2086 01c4 00       		.byte	0
 2087 01c5 03       		.uleb128 0x3
 2088 01c6 08       		.uleb128 0x8
 2089 01c7 3A       		.uleb128 0x3a
 2090 01c8 0B       		.uleb128 0xb
 2091 01c9 3B       		.uleb128 0x3b
 2092 01ca 05       		.uleb128 0x5
 2093 01cb 49       		.uleb128 0x49
 2094 01cc 13       		.uleb128 0x13
 2095 01cd 02       		.uleb128 0x2
 2096 01ce 0A       		.uleb128 0xa
 2097 01cf 00       		.byte	0
 2098 01d0 00       		.byte	0
 2099 01d1 24       		.uleb128 0x24
 2100 01d2 18       		.uleb128 0x18
 2101 01d3 00       		.byte	0
 2102 01d4 00       		.byte	0
 2103 01d5 00       		.byte	0
 2104 01d6 25       		.uleb128 0x25
 2105 01d7 34       		.uleb128 0x34
ARM GAS  /tmp/ccghjEXC.s 			page 38


 2106 01d8 00       		.byte	0
 2107 01d9 03       		.uleb128 0x3
 2108 01da 08       		.uleb128 0x8
 2109 01db 3A       		.uleb128 0x3a
 2110 01dc 0B       		.uleb128 0xb
 2111 01dd 3B       		.uleb128 0x3b
 2112 01de 05       		.uleb128 0x5
 2113 01df 49       		.uleb128 0x49
 2114 01e0 13       		.uleb128 0x13
 2115 01e1 02       		.uleb128 0x2
 2116 01e2 0A       		.uleb128 0xa
 2117 01e3 00       		.byte	0
 2118 01e4 00       		.byte	0
 2119 01e5 00       		.byte	0
 2120              		.section	.debug_loc,"",%progbits
 2121              	.Ldebug_loc0:
 2122              	.LLST0:
 2123 0000 00000000 		.4byte	.LFB10
 2124 0004 04000000 		.4byte	.LCFI0
 2125 0008 0200     		.2byte	0x2
 2126 000a 7D       		.byte	0x7d
 2127 000b 00       		.sleb128 0
 2128 000c 04000000 		.4byte	.LCFI0
 2129 0010 06000000 		.4byte	.LCFI1
 2130 0014 0200     		.2byte	0x2
 2131 0016 7D       		.byte	0x7d
 2132 0017 24       		.sleb128 36
 2133 0018 06000000 		.4byte	.LCFI1
 2134 001c 78040000 		.4byte	.LFE10
 2135 0020 0300     		.2byte	0x3
 2136 0022 7D       		.byte	0x7d
 2137 0023 D000     		.sleb128 80
 2138 0025 00000000 		.4byte	0
 2139 0029 00000000 		.4byte	0
 2140              	.LLST1:
 2141 002d 00000000 		.4byte	.LVL0
 2142 0031 32000000 		.4byte	.LVL3
 2143 0035 0100     		.2byte	0x1
 2144 0037 50       		.byte	0x50
 2145 0038 32000000 		.4byte	.LVL3
 2146 003c 78040000 		.4byte	.LFE10
 2147 0040 0100     		.2byte	0x1
 2148 0042 55       		.byte	0x55
 2149 0043 00000000 		.4byte	0
 2150 0047 00000000 		.4byte	0
 2151              	.LLST2:
 2152 004b 00000000 		.4byte	.LVL0
 2153 004f 32000000 		.4byte	.LVL3
 2154 0053 0100     		.2byte	0x1
 2155 0055 51       		.byte	0x51
 2156 0056 32000000 		.4byte	.LVL3
 2157 005a 34000000 		.4byte	.LVL4
 2158 005e 0100     		.2byte	0x1
 2159 0060 54       		.byte	0x54
 2160 0061 34000000 		.4byte	.LVL4
 2161 0065 36000000 		.4byte	.LVL5
 2162 0069 0300     		.2byte	0x3
ARM GAS  /tmp/ccghjEXC.s 			page 39


 2163 006b 74       		.byte	0x74
 2164 006c 01       		.sleb128 1
 2165 006d 9F       		.byte	0x9f
 2166 006e 46000000 		.4byte	.LVL6
 2167 0072 48000000 		.4byte	.LVL7
 2168 0076 0100     		.2byte	0x1
 2169 0078 57       		.byte	0x57
 2170 0079 48000000 		.4byte	.LVL7
 2171 007d 4C000000 		.4byte	.LVL8
 2172 0081 0300     		.2byte	0x3
 2173 0083 77       		.byte	0x77
 2174 0084 01       		.sleb128 1
 2175 0085 9F       		.byte	0x9f
 2176 0086 5E000000 		.4byte	.LVL10
 2177 008a 78000000 		.4byte	.LVL11
 2178 008e 0100     		.2byte	0x1
 2179 0090 57       		.byte	0x57
 2180 0091 78000000 		.4byte	.LVL11
 2181 0095 80000000 		.4byte	.LVL12
 2182 0099 0300     		.2byte	0x3
 2183 009b 77       		.byte	0x77
 2184 009c 01       		.sleb128 1
 2185 009d 9F       		.byte	0x9f
 2186 009e 80000000 		.4byte	.LVL12
 2187 00a2 88000000 		.4byte	.LVL13
 2188 00a6 0100     		.2byte	0x1
 2189 00a8 57       		.byte	0x57
 2190 00a9 88000000 		.4byte	.LVL13
 2191 00ad 2A040000 		.4byte	.LVL104
 2192 00b1 0100     		.2byte	0x1
 2193 00b3 54       		.byte	0x54
 2194 00b4 2A040000 		.4byte	.LVL104
 2195 00b8 36040000 		.4byte	.LVL108
 2196 00bc 0100     		.2byte	0x1
 2197 00be 50       		.byte	0x50
 2198 00bf 44040000 		.4byte	.LVL110
 2199 00c3 4C040000 		.4byte	.LVL111
 2200 00c7 0100     		.2byte	0x1
 2201 00c9 50       		.byte	0x50
 2202 00ca 50040000 		.4byte	.LVL112
 2203 00ce 56040000 		.4byte	.LVL113
 2204 00d2 0100     		.2byte	0x1
 2205 00d4 57       		.byte	0x57
 2206 00d5 56040000 		.4byte	.LVL113
 2207 00d9 78040000 		.4byte	.LFE10
 2208 00dd 0100     		.2byte	0x1
 2209 00df 54       		.byte	0x54
 2210 00e0 00000000 		.4byte	0
 2211 00e4 00000000 		.4byte	0
 2212              	.LLST3:
 2213 00e8 00000000 		.4byte	.LVL0
 2214 00ec 12000000 		.4byte	.LVL1
 2215 00f0 0100     		.2byte	0x1
 2216 00f2 52       		.byte	0x52
 2217 00f3 12000000 		.4byte	.LVL1
 2218 00f7 16000000 		.4byte	.LVL2
 2219 00fb 0300     		.2byte	0x3
ARM GAS  /tmp/ccghjEXC.s 			page 40


 2220 00fd 52       		.byte	0x52
 2221 00fe 93       		.byte	0x93
 2222 00ff 04       		.uleb128 0x4
 2223 0100 32000000 		.4byte	.LVL3
 2224 0104 88000000 		.4byte	.LVL13
 2225 0108 0300     		.2byte	0x3
 2226 010a 56       		.byte	0x56
 2227 010b 93       		.byte	0x93
 2228 010c 04       		.uleb128 0x4
 2229 010d 88000000 		.4byte	.LVL13
 2230 0111 8C000000 		.4byte	.LVL15
 2231 0115 0500     		.2byte	0x5
 2232 0117 76       		.byte	0x76
 2233 0118 04       		.sleb128 4
 2234 0119 9F       		.byte	0x9f
 2235 011a 93       		.byte	0x93
 2236 011b 04       		.uleb128 0x4
 2237 011c 8C000000 		.4byte	.LVL15
 2238 0120 62010000 		.4byte	.LVL28
 2239 0124 0300     		.2byte	0x3
 2240 0126 56       		.byte	0x56
 2241 0127 93       		.byte	0x93
 2242 0128 04       		.uleb128 0x4
 2243 0129 62010000 		.4byte	.LVL28
 2244 012d 6E020000 		.4byte	.LVL42
 2245 0131 0300     		.2byte	0x3
 2246 0133 56       		.byte	0x56
 2247 0134 93       		.byte	0x93
 2248 0135 04       		.uleb128 0x4
 2249 0136 6E020000 		.4byte	.LVL42
 2250 013a 7A020000 		.4byte	.LVL45
 2251 013e 0500     		.2byte	0x5
 2252 0140 76       		.byte	0x76
 2253 0141 04       		.sleb128 4
 2254 0142 9F       		.byte	0x9f
 2255 0143 93       		.byte	0x93
 2256 0144 04       		.uleb128 0x4
 2257 0145 7A020000 		.4byte	.LVL45
 2258 0149 08030000 		.4byte	.LVL59
 2259 014d 0300     		.2byte	0x3
 2260 014f 56       		.byte	0x56
 2261 0150 93       		.byte	0x93
 2262 0151 04       		.uleb128 0x4
 2263 0152 08030000 		.4byte	.LVL59
 2264 0156 0C030000 		.4byte	.LVL61
 2265 015a 0500     		.2byte	0x5
 2266 015c 76       		.byte	0x76
 2267 015d 04       		.sleb128 4
 2268 015e 9F       		.byte	0x9f
 2269 015f 93       		.byte	0x93
 2270 0160 04       		.uleb128 0x4
 2271 0161 0C030000 		.4byte	.LVL61
 2272 0165 A4030000 		.4byte	.LVL82
 2273 0169 0300     		.2byte	0x3
 2274 016b 56       		.byte	0x56
 2275 016c 93       		.byte	0x93
 2276 016d 04       		.uleb128 0x4
ARM GAS  /tmp/ccghjEXC.s 			page 41


 2277 016e A4030000 		.4byte	.LVL82
 2278 0172 AC030000 		.4byte	.LVL84
 2279 0176 0500     		.2byte	0x5
 2280 0178 76       		.byte	0x76
 2281 0179 04       		.sleb128 4
 2282 017a 9F       		.byte	0x9f
 2283 017b 93       		.byte	0x93
 2284 017c 04       		.uleb128 0x4
 2285 017d AC030000 		.4byte	.LVL84
 2286 0181 2A040000 		.4byte	.LVL104
 2287 0185 0300     		.2byte	0x3
 2288 0187 56       		.byte	0x56
 2289 0188 93       		.byte	0x93
 2290 0189 04       		.uleb128 0x4
 2291 018a 2A040000 		.4byte	.LVL104
 2292 018e 2E040000 		.4byte	.LVL106
 2293 0192 0500     		.2byte	0x5
 2294 0194 76       		.byte	0x76
 2295 0195 04       		.sleb128 4
 2296 0196 9F       		.byte	0x9f
 2297 0197 93       		.byte	0x93
 2298 0198 04       		.uleb128 0x4
 2299 0199 2E040000 		.4byte	.LVL106
 2300 019d 78040000 		.4byte	.LFE10
 2301 01a1 0300     		.2byte	0x3
 2302 01a3 56       		.byte	0x56
 2303 01a4 93       		.byte	0x93
 2304 01a5 04       		.uleb128 0x4
 2305 01a6 00000000 		.4byte	0
 2306 01aa 00000000 		.4byte	0
 2307              	.LLST4:
 2308 01ae 52000000 		.4byte	.LVL9
 2309 01b2 62010000 		.4byte	.LVL28
 2310 01b6 0300     		.2byte	0x3
 2311 01b8 91       		.byte	0x91
 2312 01b9 B47F     		.sleb128 -76
 2313 01bb 62010000 		.4byte	.LVL28
 2314 01bf 94010000 		.4byte	.LVL30
 2315 01c3 0100     		.2byte	0x1
 2316 01c5 58       		.byte	0x58
 2317 01c6 6E020000 		.4byte	.LVL42
 2318 01ca 78020000 		.4byte	.LVL44
 2319 01ce 0300     		.2byte	0x3
 2320 01d0 91       		.byte	0x91
 2321 01d1 B47F     		.sleb128 -76
 2322 01d3 78020000 		.4byte	.LVL44
 2323 01d7 82020000 		.4byte	.LVL46
 2324 01db 0200     		.2byte	0x2
 2325 01dd 7D       		.byte	0x7d
 2326 01de 00       		.sleb128 0
 2327 01df 08030000 		.4byte	.LVL59
 2328 01e3 18030000 		.4byte	.LVL62
 2329 01e7 0300     		.2byte	0x3
 2330 01e9 91       		.byte	0x91
 2331 01ea B47F     		.sleb128 -76
 2332 01ec 18030000 		.4byte	.LVL62
 2333 01f0 22030000 		.4byte	.LVL64
ARM GAS  /tmp/ccghjEXC.s 			page 42


 2334 01f4 0100     		.2byte	0x1
 2335 01f6 5C       		.byte	0x5c
 2336 01f7 22030000 		.4byte	.LVL64
 2337 01fb 50030000 		.4byte	.LVL71
 2338 01ff 0100     		.2byte	0x1
 2339 0201 58       		.byte	0x58
 2340 0202 50030000 		.4byte	.LVL71
 2341 0206 5A030000 		.4byte	.LVL73
 2342 020a 0100     		.2byte	0x1
 2343 020c 5C       		.byte	0x5c
 2344 020d 5A030000 		.4byte	.LVL73
 2345 0211 5C030000 		.4byte	.LVL74
 2346 0215 0100     		.2byte	0x1
 2347 0217 52       		.byte	0x52
 2348 0218 5C030000 		.4byte	.LVL74
 2349 021c 84030000 		.4byte	.LVL78
 2350 0220 0100     		.2byte	0x1
 2351 0222 5C       		.byte	0x5c
 2352 0223 94030000 		.4byte	.LVL79
 2353 0227 98030000 		.4byte	.LVL80
 2354 022b 0300     		.2byte	0x3
 2355 022d 91       		.byte	0x91
 2356 022e B47F     		.sleb128 -76
 2357 0230 98030000 		.4byte	.LVL80
 2358 0234 A2030000 		.4byte	.LVL81
 2359 0238 0200     		.2byte	0x2
 2360 023a 7D       		.byte	0x7d
 2361 023b 00       		.sleb128 0
 2362 023c A2030000 		.4byte	.LVL81
 2363 0240 56040000 		.4byte	.LVL113
 2364 0244 0300     		.2byte	0x3
 2365 0246 91       		.byte	0x91
 2366 0247 B47F     		.sleb128 -76
 2367 0249 6A040000 		.4byte	.LVL116
 2368 024d 70040000 		.4byte	.LVL118
 2369 0251 0300     		.2byte	0x3
 2370 0253 91       		.byte	0x91
 2371 0254 B47F     		.sleb128 -76
 2372 0256 70040000 		.4byte	.LVL118
 2373 025a 78040000 		.4byte	.LFE10
 2374 025e 0200     		.2byte	0x2
 2375 0260 7D       		.byte	0x7d
 2376 0261 00       		.sleb128 0
 2377 0262 00000000 		.4byte	0
 2378 0266 00000000 		.4byte	0
 2379              	.LLST5:
 2380 026a 52000000 		.4byte	.LVL9
 2381 026e 62010000 		.4byte	.LVL28
 2382 0272 0300     		.2byte	0x3
 2383 0274 91       		.byte	0x91
 2384 0275 B47F     		.sleb128 -76
 2385 0277 62010000 		.4byte	.LVL28
 2386 027b E6010000 		.4byte	.LVL35
 2387 027f 0100     		.2byte	0x1
 2388 0281 58       		.byte	0x58
 2389 0282 E6010000 		.4byte	.LVL35
 2390 0286 F2010000 		.4byte	.LVL37
ARM GAS  /tmp/ccghjEXC.s 			page 43


 2391 028a 0300     		.2byte	0x3
 2392 028c 77       		.byte	0x77
 2393 028d 7F       		.sleb128 -1
 2394 028e 9F       		.byte	0x9f
 2395 028f 6E020000 		.4byte	.LVL42
 2396 0293 82020000 		.4byte	.LVL46
 2397 0297 0300     		.2byte	0x3
 2398 0299 91       		.byte	0x91
 2399 029a B47F     		.sleb128 -76
 2400 029c 82020000 		.4byte	.LVL46
 2401 02a0 CA020000 		.4byte	.LVL51
 2402 02a4 0100     		.2byte	0x1
 2403 02a6 58       		.byte	0x58
 2404 02a7 08030000 		.4byte	.LVL59
 2405 02ab 56040000 		.4byte	.LVL113
 2406 02af 0300     		.2byte	0x3
 2407 02b1 91       		.byte	0x91
 2408 02b2 B47F     		.sleb128 -76
 2409 02b4 56040000 		.4byte	.LVL113
 2410 02b8 6A040000 		.4byte	.LVL116
 2411 02bc 0100     		.2byte	0x1
 2412 02be 58       		.byte	0x58
 2413 02bf 6A040000 		.4byte	.LVL116
 2414 02c3 78040000 		.4byte	.LFE10
 2415 02c7 0300     		.2byte	0x3
 2416 02c9 91       		.byte	0x91
 2417 02ca B47F     		.sleb128 -76
 2418 02cc 00000000 		.4byte	0
 2419 02d0 00000000 		.4byte	0
 2420              	.LLST6:
 2421 02d4 34000000 		.4byte	.LVL4
 2422 02d8 36000000 		.4byte	.LVL5
 2423 02dc 0100     		.2byte	0x1
 2424 02de 51       		.byte	0x51
 2425 02df 48000000 		.4byte	.LVL7
 2426 02e3 4C000000 		.4byte	.LVL8
 2427 02e7 0100     		.2byte	0x1
 2428 02e9 51       		.byte	0x51
 2429 02ea 88000000 		.4byte	.LVL13
 2430 02ee 8A000000 		.4byte	.LVL14
 2431 02f2 0100     		.2byte	0x1
 2432 02f4 53       		.byte	0x53
 2433 02f5 8A000000 		.4byte	.LVL14
 2434 02f9 98000000 		.4byte	.LVL17
 2435 02fd 0100     		.2byte	0x1
 2436 02ff 52       		.byte	0x52
 2437 0300 98000000 		.4byte	.LVL17
 2438 0304 CA000000 		.4byte	.LVL22
 2439 0308 0100     		.2byte	0x1
 2440 030a 53       		.byte	0x53
 2441 030b CA000000 		.4byte	.LVL22
 2442 030f CE000000 		.4byte	.LVL24
 2443 0313 0100     		.2byte	0x1
 2444 0315 52       		.byte	0x52
 2445 0316 CE000000 		.4byte	.LVL24
 2446 031a 5A010000 		.4byte	.LVL26
 2447 031e 0100     		.2byte	0x1
ARM GAS  /tmp/ccghjEXC.s 			page 44


 2448 0320 53       		.byte	0x53
 2449 0321 6E020000 		.4byte	.LVL42
 2450 0325 82020000 		.4byte	.LVL46
 2451 0329 0100     		.2byte	0x1
 2452 032b 53       		.byte	0x53
 2453 032c 08030000 		.4byte	.LVL59
 2454 0330 26030000 		.4byte	.LVL65
 2455 0334 0100     		.2byte	0x1
 2456 0336 53       		.byte	0x53
 2457 0337 94030000 		.4byte	.LVL79
 2458 033b A4030000 		.4byte	.LVL82
 2459 033f 0100     		.2byte	0x1
 2460 0341 53       		.byte	0x53
 2461 0342 1C040000 		.4byte	.LVL101
 2462 0346 20040000 		.4byte	.LVL102
 2463 034a 0200     		.2byte	0x2
 2464 034c 38       		.byte	0x38
 2465 034d 9F       		.byte	0x9f
 2466 034e 20040000 		.4byte	.LVL102
 2467 0352 2C040000 		.4byte	.LVL105
 2468 0356 0100     		.2byte	0x1
 2469 0358 53       		.byte	0x53
 2470 0359 2C040000 		.4byte	.LVL105
 2471 035d 36040000 		.4byte	.LVL108
 2472 0361 0100     		.2byte	0x1
 2473 0363 52       		.byte	0x52
 2474 0364 3A040000 		.4byte	.LVL109
 2475 0368 4C040000 		.4byte	.LVL111
 2476 036c 0100     		.2byte	0x1
 2477 036e 53       		.byte	0x53
 2478 036f 6A040000 		.4byte	.LVL116
 2479 0373 78040000 		.4byte	.LFE10
 2480 0377 0100     		.2byte	0x1
 2481 0379 53       		.byte	0x53
 2482 037a 00000000 		.4byte	0
 2483 037e 00000000 		.4byte	0
 2484              	.LLST7:
 2485 0382 5E000000 		.4byte	.LVL10
 2486 0386 78000000 		.4byte	.LVL11
 2487 038a 0300     		.2byte	0x3
 2488 038c 08       		.byte	0x8
 2489 038d 20       		.byte	0x20
 2490 038e 9F       		.byte	0x9f
 2491 038f 78000000 		.4byte	.LVL11
 2492 0393 80000000 		.4byte	.LVL12
 2493 0397 0300     		.2byte	0x3
 2494 0399 08       		.byte	0x8
 2495 039a 30       		.byte	0x30
 2496 039b 9F       		.byte	0x9f
 2497 039c 80000000 		.4byte	.LVL12
 2498 03a0 46010000 		.4byte	.LVL25
 2499 03a4 0100     		.2byte	0x1
 2500 03a6 59       		.byte	0x59
 2501 03a7 46010000 		.4byte	.LVL25
 2502 03ab BE010000 		.4byte	.LVL31
 2503 03af 0300     		.2byte	0x3
 2504 03b1 08       		.byte	0x8
ARM GAS  /tmp/ccghjEXC.s 			page 45


 2505 03b2 20       		.byte	0x20
 2506 03b3 9F       		.byte	0x9f
 2507 03b4 BE010000 		.4byte	.LVL31
 2508 03b8 C6010000 		.4byte	.LVL33
 2509 03bc 0100     		.2byte	0x1
 2510 03be 59       		.byte	0x59
 2511 03bf 6E020000 		.4byte	.LVL42
 2512 03c3 82020000 		.4byte	.LVL46
 2513 03c7 0300     		.2byte	0x3
 2514 03c9 08       		.byte	0x8
 2515 03ca 20       		.byte	0x20
 2516 03cb 9F       		.byte	0x9f
 2517 03cc 82020000 		.4byte	.LVL46
 2518 03d0 90020000 		.4byte	.LVL49
 2519 03d4 0100     		.2byte	0x1
 2520 03d6 59       		.byte	0x59
 2521 03d7 08030000 		.4byte	.LVL59
 2522 03db 4C040000 		.4byte	.LVL111
 2523 03df 0100     		.2byte	0x1
 2524 03e1 59       		.byte	0x59
 2525 03e2 6A040000 		.4byte	.LVL116
 2526 03e6 78040000 		.4byte	.LFE10
 2527 03ea 0100     		.2byte	0x1
 2528 03ec 59       		.byte	0x59
 2529 03ed 00000000 		.4byte	0
 2530 03f1 00000000 		.4byte	0
 2531              	.LLST8:
 2532 03f5 BE010000 		.4byte	.LVL31
 2533 03f9 C6010000 		.4byte	.LVL33
 2534 03fd 0100     		.2byte	0x1
 2535 03ff 5A       		.byte	0x5a
 2536 0400 C6010000 		.4byte	.LVL33
 2537 0404 D8010000 		.4byte	.LVL34
 2538 0408 0300     		.2byte	0x3
 2539 040a 7A       		.byte	0x7a
 2540 040b 7F       		.sleb128 -1
 2541 040c 9F       		.byte	0x9f
 2542 040d 82020000 		.4byte	.LVL46
 2543 0411 CA020000 		.4byte	.LVL51
 2544 0415 0100     		.2byte	0x1
 2545 0417 5A       		.byte	0x5a
 2546 0418 56040000 		.4byte	.LVL113
 2547 041c 6A040000 		.4byte	.LVL116
 2548 0420 0100     		.2byte	0x1
 2549 0422 5A       		.byte	0x5a
 2550 0423 00000000 		.4byte	0
 2551 0427 00000000 		.4byte	0
 2552              	.LLST9:
 2553 042b A8000000 		.4byte	.LVL19
 2554 042f B0000000 		.4byte	.LVL20
 2555 0433 0200     		.2byte	0x2
 2556 0435 30       		.byte	0x30
 2557 0436 9F       		.byte	0x9f
 2558 0437 B0000000 		.4byte	.LVL20
 2559 043b 60010000 		.4byte	.LVL27
 2560 043f 0100     		.2byte	0x1
 2561 0441 51       		.byte	0x51
ARM GAS  /tmp/ccghjEXC.s 			page 46


 2562 0442 6E020000 		.4byte	.LVL42
 2563 0446 70020000 		.4byte	.LVL43
 2564 044a 0100     		.2byte	0x1
 2565 044c 51       		.byte	0x51
 2566 044d 08030000 		.4byte	.LVL59
 2567 0451 18030000 		.4byte	.LVL62
 2568 0455 0100     		.2byte	0x1
 2569 0457 51       		.byte	0x51
 2570 0458 94030000 		.4byte	.LVL79
 2571 045c AE030000 		.4byte	.LVL85
 2572 0460 0100     		.2byte	0x1
 2573 0462 51       		.byte	0x51
 2574 0463 1C040000 		.4byte	.LVL101
 2575 0467 24040000 		.4byte	.LVL103
 2576 046b 0100     		.2byte	0x1
 2577 046d 51       		.byte	0x51
 2578 046e 24040000 		.4byte	.LVL103
 2579 0472 2A040000 		.4byte	.LVL104
 2580 0476 0200     		.2byte	0x2
 2581 0478 30       		.byte	0x30
 2582 0479 9F       		.byte	0x9f
 2583 047a 2A040000 		.4byte	.LVL104
 2584 047e 32040000 		.4byte	.LVL107
 2585 0482 0100     		.2byte	0x1
 2586 0484 51       		.byte	0x51
 2587 0485 32040000 		.4byte	.LVL107
 2588 0489 36040000 		.4byte	.LVL108
 2589 048d 0500     		.2byte	0x5
 2590 048f 7A       		.byte	0x7a
 2591 0490 00       		.sleb128 0
 2592 0491 31       		.byte	0x31
 2593 0492 24       		.byte	0x24
 2594 0493 9F       		.byte	0x9f
 2595 0494 36040000 		.4byte	.LVL108
 2596 0498 4C040000 		.4byte	.LVL111
 2597 049c 0100     		.2byte	0x1
 2598 049e 51       		.byte	0x51
 2599 049f 6A040000 		.4byte	.LVL116
 2600 04a3 6C040000 		.4byte	.LVL117
 2601 04a7 0100     		.2byte	0x1
 2602 04a9 51       		.byte	0x51
 2603 04aa 00000000 		.4byte	0
 2604 04ae 00000000 		.4byte	0
 2605              	.LLST10:
 2606 04b2 80000000 		.4byte	.LVL12
 2607 04b6 88000000 		.4byte	.LVL13
 2608 04ba 0200     		.2byte	0x2
 2609 04bc 30       		.byte	0x30
 2610 04bd 9F       		.byte	0x9f
 2611 04be 88000000 		.4byte	.LVL13
 2612 04c2 BE010000 		.4byte	.LVL31
 2613 04c6 0100     		.2byte	0x1
 2614 04c8 5B       		.byte	0x5b
 2615 04c9 BE010000 		.4byte	.LVL31
 2616 04cd C2010000 		.4byte	.LVL32
 2617 04d1 0100     		.2byte	0x1
 2618 04d3 51       		.byte	0x51
ARM GAS  /tmp/ccghjEXC.s 			page 47


 2619 04d4 C2010000 		.4byte	.LVL32
 2620 04d8 E8010000 		.4byte	.LVL36
 2621 04dc 0100     		.2byte	0x1
 2622 04de 5B       		.byte	0x5b
 2623 04df 1A020000 		.4byte	.LVL38
 2624 04e3 34020000 		.4byte	.LVL39
 2625 04e7 0100     		.2byte	0x1
 2626 04e9 5B       		.byte	0x5b
 2627 04ea 34020000 		.4byte	.LVL39
 2628 04ee 35020000 		.4byte	.LVL40-1
 2629 04f2 0300     		.2byte	0x3
 2630 04f4 7C       		.byte	0x7c
 2631 04f5 01       		.sleb128 1
 2632 04f6 9F       		.byte	0x9f
 2633 04f7 35020000 		.4byte	.LVL40-1
 2634 04fb 4C020000 		.4byte	.LVL41
 2635 04ff 0300     		.2byte	0x3
 2636 0501 77       		.byte	0x77
 2637 0502 01       		.sleb128 1
 2638 0503 9F       		.byte	0x9f
 2639 0504 6E020000 		.4byte	.LVL42
 2640 0508 88020000 		.4byte	.LVL47
 2641 050c 0100     		.2byte	0x1
 2642 050e 5B       		.byte	0x5b
 2643 050f 88020000 		.4byte	.LVL47
 2644 0513 8C020000 		.4byte	.LVL48
 2645 0517 0100     		.2byte	0x1
 2646 0519 51       		.byte	0x51
 2647 051a 8C020000 		.4byte	.LVL48
 2648 051e CC020000 		.4byte	.LVL52
 2649 0522 0100     		.2byte	0x1
 2650 0524 5B       		.byte	0x5b
 2651 0525 CC020000 		.4byte	.LVL52
 2652 0529 D0020000 		.4byte	.LVL53
 2653 052d 0300     		.2byte	0x3
 2654 052f 7B       		.byte	0x7b
 2655 0530 01       		.sleb128 1
 2656 0531 9F       		.byte	0x9f
 2657 0532 D0020000 		.4byte	.LVL53
 2658 0536 E0020000 		.4byte	.LVL54
 2659 053a 0100     		.2byte	0x1
 2660 053c 5B       		.byte	0x5b
 2661 053d E0020000 		.4byte	.LVL54
 2662 0541 E4020000 		.4byte	.LVL55
 2663 0545 0300     		.2byte	0x3
 2664 0547 7B       		.byte	0x7b
 2665 0548 01       		.sleb128 1
 2666 0549 9F       		.byte	0x9f
 2667 054a E4020000 		.4byte	.LVL55
 2668 054e F8020000 		.4byte	.LVL56
 2669 0552 0100     		.2byte	0x1
 2670 0554 5B       		.byte	0x5b
 2671 0555 F8020000 		.4byte	.LVL56
 2672 0559 00030000 		.4byte	.LVL57
 2673 055d 0300     		.2byte	0x3
 2674 055f 7B       		.byte	0x7b
 2675 0560 7F       		.sleb128 -1
ARM GAS  /tmp/ccghjEXC.s 			page 48


 2676 0561 9F       		.byte	0x9f
 2677 0562 00030000 		.4byte	.LVL57
 2678 0566 04030000 		.4byte	.LVL58
 2679 056a 0300     		.2byte	0x3
 2680 056c 7B       		.byte	0x7b
 2681 056d 01       		.sleb128 1
 2682 056e 9F       		.byte	0x9f
 2683 056f 04030000 		.4byte	.LVL58
 2684 0573 4C040000 		.4byte	.LVL111
 2685 0577 0100     		.2byte	0x1
 2686 0579 5B       		.byte	0x5b
 2687 057a 56040000 		.4byte	.LVL113
 2688 057e 78040000 		.4byte	.LFE10
 2689 0582 0100     		.2byte	0x1
 2690 0584 5B       		.byte	0x5b
 2691 0585 00000000 		.4byte	0
 2692 0589 00000000 		.4byte	0
 2693              	.LLST11:
 2694 058d C6000000 		.4byte	.LVL21
 2695 0591 CE000000 		.4byte	.LVL24
 2696 0595 0200     		.2byte	0x2
 2697 0597 31       		.byte	0x31
 2698 0598 9F       		.byte	0x9f
 2699 0599 00000000 		.4byte	0
 2700 059d 00000000 		.4byte	0
 2701              	.LLST12:
 2702 05a1 52000000 		.4byte	.LVL9
 2703 05a5 5E000000 		.4byte	.LVL10
 2704 05a9 0200     		.2byte	0x2
 2705 05ab 30       		.byte	0x30
 2706 05ac 9F       		.byte	0x9f
 2707 05ad 5E000000 		.4byte	.LVL10
 2708 05b1 4C040000 		.4byte	.LVL111
 2709 05b5 0300     		.2byte	0x3
 2710 05b7 91       		.byte	0x91
 2711 05b8 B87F     		.sleb128 -72
 2712 05ba 4C040000 		.4byte	.LVL111
 2713 05be 50040000 		.4byte	.LVL112
 2714 05c2 0200     		.2byte	0x2
 2715 05c4 30       		.byte	0x30
 2716 05c5 9F       		.byte	0x9f
 2717 05c6 50040000 		.4byte	.LVL112
 2718 05ca 56040000 		.4byte	.LVL113
 2719 05ce 0200     		.2byte	0x2
 2720 05d0 31       		.byte	0x31
 2721 05d1 9F       		.byte	0x9f
 2722 05d2 56040000 		.4byte	.LVL113
 2723 05d6 78040000 		.4byte	.LFE10
 2724 05da 0300     		.2byte	0x3
 2725 05dc 91       		.byte	0x91
 2726 05dd B87F     		.sleb128 -72
 2727 05df 00000000 		.4byte	0
 2728 05e3 00000000 		.4byte	0
 2729              	.LLST13:
 2730 05e7 0A030000 		.4byte	.LVL60
 2731 05eb 0C030000 		.4byte	.LVL61
 2732 05ef 0200     		.2byte	0x2
ARM GAS  /tmp/ccghjEXC.s 			page 49


 2733 05f1 76       		.byte	0x76
 2734 05f2 00       		.sleb128 0
 2735 05f3 0C030000 		.4byte	.LVL61
 2736 05f7 26030000 		.4byte	.LVL65
 2737 05fb 0100     		.2byte	0x1
 2738 05fd 52       		.byte	0x52
 2739 05fe A6030000 		.4byte	.LVL83
 2740 0602 AC030000 		.4byte	.LVL84
 2741 0606 0200     		.2byte	0x2
 2742 0608 76       		.byte	0x76
 2743 0609 00       		.sleb128 0
 2744 060a AC030000 		.4byte	.LVL84
 2745 060e AE030000 		.4byte	.LVL85
 2746 0612 0100     		.2byte	0x1
 2747 0614 52       		.byte	0x52
 2748 0615 AE030000 		.4byte	.LVL85
 2749 0619 1C040000 		.4byte	.LVL101
 2750 061d 0200     		.2byte	0x2
 2751 061f 76       		.byte	0x76
 2752 0620 7C       		.sleb128 -4
 2753 0621 6A040000 		.4byte	.LVL116
 2754 0625 78040000 		.4byte	.LFE10
 2755 0629 0100     		.2byte	0x1
 2756 062b 52       		.byte	0x52
 2757 062c 00000000 		.4byte	0
 2758 0630 00000000 		.4byte	0
 2759              	.LLST14:
 2760 0634 18030000 		.4byte	.LVL62
 2761 0638 94030000 		.4byte	.LVL79
 2762 063c 0200     		.2byte	0x2
 2763 063e 3A       		.byte	0x3a
 2764 063f 9F       		.byte	0x9f
 2765 0640 00000000 		.4byte	0
 2766 0644 00000000 		.4byte	0
 2767              	.LLST15:
 2768 0648 18030000 		.4byte	.LVL62
 2769 064c 26030000 		.4byte	.LVL65
 2770 0650 0100     		.2byte	0x1
 2771 0652 52       		.byte	0x52
 2772 0653 00000000 		.4byte	0
 2773 0657 00000000 		.4byte	0
 2774              	.LLST16:
 2775 065b 18030000 		.4byte	.LVL62
 2776 065f 22030000 		.4byte	.LVL64
 2777 0663 0100     		.2byte	0x1
 2778 0665 5C       		.byte	0x5c
 2779 0666 22030000 		.4byte	.LVL64
 2780 066a 50030000 		.4byte	.LVL71
 2781 066e 0100     		.2byte	0x1
 2782 0670 58       		.byte	0x58
 2783 0671 50030000 		.4byte	.LVL71
 2784 0675 5A030000 		.4byte	.LVL73
 2785 0679 0100     		.2byte	0x1
 2786 067b 5C       		.byte	0x5c
 2787 067c 5A030000 		.4byte	.LVL73
 2788 0680 5C030000 		.4byte	.LVL74
 2789 0684 0100     		.2byte	0x1
ARM GAS  /tmp/ccghjEXC.s 			page 50


 2790 0686 52       		.byte	0x52
 2791 0687 5C030000 		.4byte	.LVL74
 2792 068b 94030000 		.4byte	.LVL79
 2793 068f 0100     		.2byte	0x1
 2794 0691 5C       		.byte	0x5c
 2795 0692 00000000 		.4byte	0
 2796 0696 00000000 		.4byte	0
 2797              	.LLST17:
 2798 069a 18030000 		.4byte	.LVL62
 2799 069e 94030000 		.4byte	.LVL79
 2800 06a2 0200     		.2byte	0x2
 2801 06a4 30       		.byte	0x30
 2802 06a5 9F       		.byte	0x9f
 2803 06a6 AC030000 		.4byte	.LVL84
 2804 06aa 1C040000 		.4byte	.LVL101
 2805 06ae 0200     		.2byte	0x2
 2806 06b0 30       		.byte	0x30
 2807 06b1 9F       		.byte	0x9f
 2808 06b2 00000000 		.4byte	0
 2809 06b6 00000000 		.4byte	0
 2810              	.LLST18:
 2811 06ba 18030000 		.4byte	.LVL62
 2812 06be 94030000 		.4byte	.LVL79
 2813 06c2 0200     		.2byte	0x2
 2814 06c4 3A       		.byte	0x3a
 2815 06c5 9F       		.byte	0x9f
 2816 06c6 AC030000 		.4byte	.LVL84
 2817 06ca D8030000 		.4byte	.LVL93
 2818 06ce 0100     		.2byte	0x1
 2819 06d0 57       		.byte	0x57
 2820 06d1 00000000 		.4byte	0
 2821 06d5 00000000 		.4byte	0
 2822              	.LLST19:
 2823 06d9 18030000 		.4byte	.LVL62
 2824 06dd 26030000 		.4byte	.LVL65
 2825 06e1 0100     		.2byte	0x1
 2826 06e3 52       		.byte	0x52
 2827 06e4 AC030000 		.4byte	.LVL84
 2828 06e8 AE030000 		.4byte	.LVL85
 2829 06ec 0100     		.2byte	0x1
 2830 06ee 52       		.byte	0x52
 2831 06ef AE030000 		.4byte	.LVL85
 2832 06f3 1C040000 		.4byte	.LVL101
 2833 06f7 0200     		.2byte	0x2
 2834 06f9 76       		.byte	0x76
 2835 06fa 7C       		.sleb128 -4
 2836 06fb 00000000 		.4byte	0
 2837 06ff 00000000 		.4byte	0
 2838              	.LLST20:
 2839 0703 18030000 		.4byte	.LVL62
 2840 0707 22030000 		.4byte	.LVL64
 2841 070b 0100     		.2byte	0x1
 2842 070d 5C       		.byte	0x5c
 2843 070e 22030000 		.4byte	.LVL64
 2844 0712 50030000 		.4byte	.LVL71
 2845 0716 0100     		.2byte	0x1
 2846 0718 58       		.byte	0x58
ARM GAS  /tmp/ccghjEXC.s 			page 51


 2847 0719 50030000 		.4byte	.LVL71
 2848 071d 5A030000 		.4byte	.LVL73
 2849 0721 0100     		.2byte	0x1
 2850 0723 5C       		.byte	0x5c
 2851 0724 5C030000 		.4byte	.LVL74
 2852 0728 6E030000 		.4byte	.LVL76
 2853 072c 0100     		.2byte	0x1
 2854 072e 52       		.byte	0x52
 2855 072f 7A030000 		.4byte	.LVL77
 2856 0733 84030000 		.4byte	.LVL78
 2857 0737 0100     		.2byte	0x1
 2858 0739 52       		.byte	0x52
 2859 073a AC030000 		.4byte	.LVL84
 2860 073e F4030000 		.4byte	.LVL97
 2861 0742 0300     		.2byte	0x3
 2862 0744 91       		.byte	0x91
 2863 0745 B47F     		.sleb128 -76
 2864 0747 F4030000 		.4byte	.LVL97
 2865 074b FA030000 		.4byte	.LVL98
 2866 074f 0200     		.2byte	0x2
 2867 0751 7D       		.byte	0x7d
 2868 0752 00       		.sleb128 0
 2869 0753 FA030000 		.4byte	.LVL98
 2870 0757 FE030000 		.4byte	.LVL99
 2871 075b 0100     		.2byte	0x1
 2872 075d 51       		.byte	0x51
 2873 075e 0C040000 		.4byte	.LVL100
 2874 0762 1C040000 		.4byte	.LVL101
 2875 0766 0100     		.2byte	0x1
 2876 0768 51       		.byte	0x51
 2877 0769 00000000 		.4byte	0
 2878 076d 00000000 		.4byte	0
 2879              	.LLST21:
 2880 0771 34030000 		.4byte	.LVL66
 2881 0775 4A030000 		.4byte	.LVL70
 2882 0779 0300     		.2byte	0x3
 2883 077b 73       		.byte	0x73
 2884 077c 30       		.sleb128 48
 2885 077d 9F       		.byte	0x9f
 2886 077e 4A030000 		.4byte	.LVL70
 2887 0782 5A030000 		.4byte	.LVL73
 2888 0786 0100     		.2byte	0x1
 2889 0788 5A       		.byte	0x5a
 2890 0789 00000000 		.4byte	0
 2891 078d 00000000 		.4byte	0
 2892              	.LLST22:
 2893 0791 1C030000 		.4byte	.LVL63
 2894 0795 26030000 		.4byte	.LVL65
 2895 0799 0100     		.2byte	0x1
 2896 079b 5A       		.byte	0x5a
 2897 079c 36030000 		.4byte	.LVL67
 2898 07a0 5A030000 		.4byte	.LVL73
 2899 07a4 0100     		.2byte	0x1
 2900 07a6 51       		.byte	0x51
 2901 07a7 00000000 		.4byte	0
 2902 07ab 00000000 		.4byte	0
 2903              	.LLST23:
ARM GAS  /tmp/ccghjEXC.s 			page 52


 2904 07af 18030000 		.4byte	.LVL62
 2905 07b3 3A030000 		.4byte	.LVL68
 2906 07b7 0100     		.2byte	0x1
 2907 07b9 52       		.byte	0x52
 2908 07ba 42030000 		.4byte	.LVL69
 2909 07be 54030000 		.4byte	.LVL72
 2910 07c2 0100     		.2byte	0x1
 2911 07c4 53       		.byte	0x53
 2912 07c5 AC030000 		.4byte	.LVL84
 2913 07c9 CA030000 		.4byte	.LVL91
 2914 07cd 0100     		.2byte	0x1
 2915 07cf 52       		.byte	0x52
 2916 07d0 CE030000 		.4byte	.LVL92
 2917 07d4 1C040000 		.4byte	.LVL101
 2918 07d8 0100     		.2byte	0x1
 2919 07da 5C       		.byte	0x5c
 2920 07db 00000000 		.4byte	0
 2921 07df 00000000 		.4byte	0
 2922              	.LLST24:
 2923 07e3 18030000 		.4byte	.LVL62
 2924 07e7 26030000 		.4byte	.LVL65
 2925 07eb 0100     		.2byte	0x1
 2926 07ed 52       		.byte	0x52
 2927 07ee 26030000 		.4byte	.LVL65
 2928 07f2 3A030000 		.4byte	.LVL68
 2929 07f6 0100     		.2byte	0x1
 2930 07f8 57       		.byte	0x57
 2931 07f9 AC030000 		.4byte	.LVL84
 2932 07fd AE030000 		.4byte	.LVL85
 2933 0801 0100     		.2byte	0x1
 2934 0803 52       		.byte	0x52
 2935 0804 AE030000 		.4byte	.LVL85
 2936 0808 C6030000 		.4byte	.LVL89
 2937 080c 0100     		.2byte	0x1
 2938 080e 51       		.byte	0x51
 2939 080f CE030000 		.4byte	.LVL92
 2940 0813 E4030000 		.4byte	.LVL95
 2941 0817 0100     		.2byte	0x1
 2942 0819 51       		.byte	0x51
 2943 081a 00000000 		.4byte	0
 2944 081e 00000000 		.4byte	0
 2945              	.LLST25:
 2946 0822 AC030000 		.4byte	.LVL84
 2947 0826 D8030000 		.4byte	.LVL93
 2948 082a 0100     		.2byte	0x1
 2949 082c 57       		.byte	0x57
 2950 082d 00000000 		.4byte	0
 2951 0831 00000000 		.4byte	0
 2952              	.LLST26:
 2953 0835 AC030000 		.4byte	.LVL84
 2954 0839 AE030000 		.4byte	.LVL85
 2955 083d 0100     		.2byte	0x1
 2956 083f 52       		.byte	0x52
 2957 0840 AE030000 		.4byte	.LVL85
 2958 0844 1C040000 		.4byte	.LVL101
 2959 0848 0200     		.2byte	0x2
 2960 084a 76       		.byte	0x76
ARM GAS  /tmp/ccghjEXC.s 			page 53


 2961 084b 7C       		.sleb128 -4
 2962 084c 00000000 		.4byte	0
 2963 0850 00000000 		.4byte	0
 2964              	.LLST27:
 2965 0854 AC030000 		.4byte	.LVL84
 2966 0858 1C040000 		.4byte	.LVL101
 2967 085c 0300     		.2byte	0x3
 2968 085e 91       		.byte	0x91
 2969 085f B47F     		.sleb128 -76
 2970 0861 00000000 		.4byte	0
 2971 0865 00000000 		.4byte	0
 2972              	.LLST32:
 2973 0869 B6030000 		.4byte	.LVL86
 2974 086d BA030000 		.4byte	.LVL87
 2975 0871 0100     		.2byte	0x1
 2976 0873 5A       		.byte	0x5a
 2977 0874 BA030000 		.4byte	.LVL87
 2978 0878 DC030000 		.4byte	.LVL94
 2979 087c 0100     		.2byte	0x1
 2980 087e 53       		.byte	0x53
 2981 087f DC030000 		.4byte	.LVL94
 2982 0883 EC030000 		.4byte	.LVL96
 2983 0887 0100     		.2byte	0x1
 2984 0889 5A       		.byte	0x5a
 2985 088a 00000000 		.4byte	0
 2986 088e 00000000 		.4byte	0
 2987              	.LLST33:
 2988 0892 AC030000 		.4byte	.LVL84
 2989 0896 AE030000 		.4byte	.LVL85
 2990 089a 0300     		.2byte	0x3
 2991 089c 91       		.byte	0x91
 2992 089d 57       		.sleb128 -41
 2993 089e 9F       		.byte	0x9f
 2994 089f C8030000 		.4byte	.LVL90
 2995 08a3 CE030000 		.4byte	.LVL92
 2996 08a7 0100     		.2byte	0x1
 2997 08a9 50       		.byte	0x50
 2998 08aa CE030000 		.4byte	.LVL92
 2999 08ae EC030000 		.4byte	.LVL96
 3000 08b2 0100     		.2byte	0x1
 3001 08b4 58       		.byte	0x58
 3002 08b5 00000000 		.4byte	0
 3003 08b9 00000000 		.4byte	0
 3004              	.LLST36:
 3005 08bd 00000000 		.4byte	.LFB11
 3006 08c1 02000000 		.4byte	.LCFI2
 3007 08c5 0200     		.2byte	0x2
 3008 08c7 7D       		.byte	0x7d
 3009 08c8 00       		.sleb128 0
 3010 08c9 02000000 		.4byte	.LCFI2
 3011 08cd 04000000 		.4byte	.LCFI3
 3012 08d1 0200     		.2byte	0x2
 3013 08d3 7D       		.byte	0x7d
 3014 08d4 08       		.sleb128 8
 3015 08d5 04000000 		.4byte	.LCFI3
 3016 08d9 06000000 		.4byte	.LCFI4
 3017 08dd 0200     		.2byte	0x2
ARM GAS  /tmp/ccghjEXC.s 			page 54


 3018 08df 7D       		.byte	0x7d
 3019 08e0 18       		.sleb128 24
 3020 08e1 06000000 		.4byte	.LCFI4
 3021 08e5 36000000 		.4byte	.LFE11
 3022 08e9 0200     		.2byte	0x2
 3023 08eb 7D       		.byte	0x7d
 3024 08ec 30       		.sleb128 48
 3025 08ed 00000000 		.4byte	0
 3026 08f1 00000000 		.4byte	0
 3027              	.LLST37:
 3028 08f5 00000000 		.4byte	.LVL120
 3029 08f9 14000000 		.4byte	.LVL121
 3030 08fd 0100     		.2byte	0x1
 3031 08ff 50       		.byte	0x50
 3032 0900 14000000 		.4byte	.LVL121
 3033 0904 36000000 		.4byte	.LFE11
 3034 0908 0100     		.2byte	0x1
 3035 090a 55       		.byte	0x55
 3036 090b 00000000 		.4byte	0
 3037 090f 00000000 		.4byte	0
 3038              	.LLST38:
 3039 0913 00000000 		.4byte	.LVL120
 3040 0917 16000000 		.4byte	.LVL122
 3041 091b 0100     		.2byte	0x1
 3042 091d 51       		.byte	0x51
 3043 091e 16000000 		.4byte	.LVL122
 3044 0922 19000000 		.4byte	.LVL123-1
 3045 0926 0300     		.2byte	0x3
 3046 0928 72       		.byte	0x72
 3047 0929 01       		.sleb128 1
 3048 092a 9F       		.byte	0x9f
 3049 092b 00000000 		.4byte	0
 3050 092f 00000000 		.4byte	0
 3051              		.section	.debug_aranges,"",%progbits
 3052 0000 24000000 		.4byte	0x24
 3053 0004 0200     		.2byte	0x2
 3054 0006 00000000 		.4byte	.Ldebug_info0
 3055 000a 04       		.byte	0x4
 3056 000b 00       		.byte	0
 3057 000c 0000     		.2byte	0
 3058 000e 0000     		.2byte	0
 3059 0010 00000000 		.4byte	.LFB10
 3060 0014 78040000 		.4byte	.LFE10-.LFB10
 3061 0018 00000000 		.4byte	.LFB11
 3062 001c 36000000 		.4byte	.LFE11-.LFB11
 3063 0020 00000000 		.4byte	0
 3064 0024 00000000 		.4byte	0
 3065              		.section	.debug_ranges,"",%progbits
 3066              	.Ldebug_ranges0:
 3067 0000 1C000000 		.4byte	.LBB12
 3068 0004 24000000 		.4byte	.LBE12
 3069 0008 2E000000 		.4byte	.LBB25
 3070 000c 30000000 		.4byte	.LBE25
 3071 0010 18030000 		.4byte	.LBB26
 3072 0014 1C030000 		.4byte	.LBE26
 3073 0018 22030000 		.4byte	.LBB27
 3074 001c 24030000 		.4byte	.LBE27
ARM GAS  /tmp/ccghjEXC.s 			page 55


 3075 0020 26030000 		.4byte	.LBB28
 3076 0024 56030000 		.4byte	.LBE28
 3077 0028 5A030000 		.4byte	.LBB29
 3078 002c 8E030000 		.4byte	.LBE29
 3079 0030 00000000 		.4byte	0
 3080 0034 00000000 		.4byte	0
 3081 0038 1C000000 		.4byte	.LBB13
 3082 003c 24000000 		.4byte	.LBE13
 3083 0040 2E000000 		.4byte	.LBB20
 3084 0044 30000000 		.4byte	.LBE20
 3085 0048 18030000 		.4byte	.LBB21
 3086 004c 1C030000 		.4byte	.LBE21
 3087 0050 22030000 		.4byte	.LBB22
 3088 0054 24030000 		.4byte	.LBE22
 3089 0058 26030000 		.4byte	.LBB23
 3090 005c 56030000 		.4byte	.LBE23
 3091 0060 5A030000 		.4byte	.LBB24
 3092 0064 8E030000 		.4byte	.LBE24
 3093 0068 00000000 		.4byte	0
 3094 006c 00000000 		.4byte	0
 3095 0070 1C000000 		.4byte	.LBB14
 3096 0074 24000000 		.4byte	.LBE14
 3097 0078 2E000000 		.4byte	.LBB15
 3098 007c 30000000 		.4byte	.LBE15
 3099 0080 18030000 		.4byte	.LBB16
 3100 0084 1C030000 		.4byte	.LBE16
 3101 0088 22030000 		.4byte	.LBB17
 3102 008c 24030000 		.4byte	.LBE17
 3103 0090 26030000 		.4byte	.LBB18
 3104 0094 56030000 		.4byte	.LBE18
 3105 0098 5A030000 		.4byte	.LBB19
 3106 009c 8E030000 		.4byte	.LBE19
 3107 00a0 00000000 		.4byte	0
 3108 00a4 00000000 		.4byte	0
 3109 00a8 AE030000 		.4byte	.LBB30
 3110 00ac E8030000 		.4byte	.LBE30
 3111 00b0 EC030000 		.4byte	.LBB35
 3112 00b4 16040000 		.4byte	.LBE35
 3113 00b8 00000000 		.4byte	0
 3114 00bc 00000000 		.4byte	0
 3115 00c0 AE030000 		.4byte	.LBB31
 3116 00c4 E8030000 		.4byte	.LBE31
 3117 00c8 EC030000 		.4byte	.LBB34
 3118 00cc 16040000 		.4byte	.LBE34
 3119 00d0 00000000 		.4byte	0
 3120 00d4 00000000 		.4byte	0
 3121 00d8 AE030000 		.4byte	.LBB32
 3122 00dc E8030000 		.4byte	.LBE32
 3123 00e0 EC030000 		.4byte	.LBB33
 3124 00e4 16040000 		.4byte	.LBE33
 3125 00e8 00000000 		.4byte	0
 3126 00ec 00000000 		.4byte	0
 3127 00f0 00000000 		.4byte	.LFB10
 3128 00f4 78040000 		.4byte	.LFE10
 3129 00f8 00000000 		.4byte	.LFB11
 3130 00fc 36000000 		.4byte	.LFE11
 3131 0100 00000000 		.4byte	0
ARM GAS  /tmp/ccghjEXC.s 			page 56


 3132 0104 00000000 		.4byte	0
 3133              		.section	.debug_line,"",%progbits
 3134              	.Ldebug_line0:
 3135 0000 17030000 		.section	.debug_str,"MS",%progbits,1
 3135      02007801 
 3135      00000201 
 3135      FB0E0D00 
 3135      01010101 
 3136              	.LASF2:
 3137 0000 73697A65 		.ascii	"size_t\000"
 3137      5F7400
 3138              	.LASF43:
 3139 0007 5F5F6170 		.ascii	"__ap\000"
 3139      00
 3140              	.LASF35:
 3141 000c 69735F6C 		.ascii	"is_long\000"
 3141      6F6E6700 
 3142              	.LASF0:
 3143 0014 756E7369 		.ascii	"unsigned int\000"
 3143      676E6564 
 3143      20696E74 
 3143      00
 3144              	.LASF12:
 3145 0021 626F6F6C 		.ascii	"bool_t\000"
 3145      5F7400
 3146              	.LASF23:
 3147 0028 4D656D53 		.ascii	"MemStreamVMT\000"
 3147      74726561 
 3147      6D564D54 
 3147      00
 3148              	.LASF30:
 3149 0035 6C6F6E67 		.ascii	"long_to_string_with_divisor\000"
 3149      5F746F5F 
 3149      73747269 
 3149      6E675F77 
 3149      6974685F 
 3150              	.LASF3:
 3151 0051 75696E74 		.ascii	"uint8_t\000"
 3151      385F7400 
 3152              	.LASF18:
 3153 0059 42617365 		.ascii	"BaseSequentialStream\000"
 3153      53657175 
 3153      656E7469 
 3153      616C5374 
 3153      7265616D 
 3154              	.LASF25:
 3155 006e 73697A65 		.ascii	"size\000"
 3155      00
 3156              	.LASF9:
 3157 0073 6C6F6E67 		.ascii	"long unsigned int\000"
 3157      20756E73 
 3157      69676E65 
 3157      6420696E 
 3157      7400
 3158              	.LASF42:
 3159 0085 2F686F6D 		.ascii	"/home/lithium/Downloads/ChibiOS_2.6.8_PodioVirtual/"
 3159      652F6C69 
ARM GAS  /tmp/ccghjEXC.s 			page 57


 3159      74686975 
 3159      6D2F446F 
 3159      776E6C6F 
 3160 00b8 506F6469 		.ascii	"PodioVirtual/src\000"
 3160      6F566972 
 3160      7475616C 
 3160      2F737263 
 3160      00
 3161              	.LASF6:
 3162 00c9 73686F72 		.ascii	"short unsigned int\000"
 3162      7420756E 
 3162      7369676E 
 3162      65642069 
 3162      6E7400
 3163              	.LASF16:
 3164 00dc 77726974 		.ascii	"write\000"
 3164      6500
 3165              	.LASF22:
 3166 00e2 76615F6C 		.ascii	"va_list\000"
 3166      69737400 
 3167              	.LASF34:
 3168 00ea 77696474 		.ascii	"width\000"
 3168      6800
 3169              	.LASF4:
 3170 00f0 756E7369 		.ascii	"unsigned char\000"
 3170      676E6564 
 3170      20636861 
 3170      7200
 3171              	.LASF19:
 3172 00fe 5F5F676E 		.ascii	"__gnuc_va_list\000"
 3172      75635F76 
 3172      615F6C69 
 3172      737400
 3173              	.LASF17:
 3174 010d 72656164 		.ascii	"read\000"
 3174      00
 3175              	.LASF38:
 3176 0112 63687670 		.ascii	"chvprintf\000"
 3176      72696E74 
 3176      6600
 3177              	.LASF32:
 3178 011c 66696C6C 		.ascii	"filler\000"
 3178      657200
 3179              	.LASF41:
 3180 0123 2E2E2F2E 		.ascii	"../../os/various/chprintf.c\000"
 3180      2E2F6F73 
 3180      2F766172 
 3180      696F7573 
 3180      2F636870 
 3181              	.LASF14:
 3182 013f 6D73675F 		.ascii	"msg_t\000"
 3182      7400
 3183              	.LASF11:
 3184 0145 6C6F6E67 		.ascii	"long long unsigned int\000"
 3184      206C6F6E 
 3184      6720756E 
 3184      7369676E 
ARM GAS  /tmp/ccghjEXC.s 			page 58


 3184      65642069 
 3185              	.LASF29:
 3186 015c 64697669 		.ascii	"divisor\000"
 3186      736F7200 
 3187              	.LASF28:
 3188 0164 72616469 		.ascii	"radix\000"
 3188      7800
 3189              	.LASF39:
 3190 016a 6368736E 		.ascii	"chsnprintf\000"
 3190      7072696E 
 3190      746600
 3191              	.LASF27:
 3192 0175 4D656D6F 		.ascii	"MemoryStream\000"
 3192      72795374 
 3192      7265616D 
 3192      00
 3193              	.LASF7:
 3194 0182 696E7433 		.ascii	"int32_t\000"
 3194      325F7400 
 3195              	.LASF37:
 3196 018a 746D7062 		.ascii	"tmpbuf\000"
 3196      756600
 3197              	.LASF21:
 3198 0191 5F5F7661 		.ascii	"__va_list\000"
 3198      5F6C6973 
 3198      7400
 3199              	.LASF10:
 3200 019b 6C6F6E67 		.ascii	"long long int\000"
 3200      206C6F6E 
 3200      6720696E 
 3200      7400
 3201              	.LASF33:
 3202 01a9 70726563 		.ascii	"precision\000"
 3202      6973696F 
 3202      6E00
 3203              	.LASF15:
 3204 01b3 63686172 		.ascii	"char\000"
 3204      00
 3205              	.LASF40:
 3206 01b8 474E5520 		.ascii	"GNU C 4.6.1\000"
 3206      4320342E 
 3206      362E3100 
 3207              	.LASF36:
 3208 01c4 6C656674 		.ascii	"left_align\000"
 3208      5F616C69 
 3208      676E00
 3209              	.LASF26:
 3210 01cf 6F666673 		.ascii	"offset\000"
 3210      657400
 3211              	.LASF5:
 3212 01d6 73686F72 		.ascii	"short int\000"
 3212      7420696E 
 3212      7400
 3213              	.LASF24:
 3214 01e0 62756666 		.ascii	"buffer\000"
 3214      657200
 3215              	.LASF44:
ARM GAS  /tmp/ccghjEXC.s 			page 59


 3216 01e7 756E7369 		.ascii	"unsigned_common\000"
 3216      676E6564 
 3216      5F636F6D 
 3216      6D6F6E00 
 3217              	.LASF8:
 3218 01f7 6C6F6E67 		.ascii	"long int\000"
 3218      20696E74 
 3218      00
 3219              	.LASF1:
 3220 0200 7369676E 		.ascii	"signed char\000"
 3220      65642063 
 3220      68617200 
 3221              	.LASF31:
 3222 020c 6C746F61 		.ascii	"ltoa\000"
 3222      00
 3223              	.LASF13:
 3224 0211 5F426F6F 		.ascii	"_Bool\000"
 3224      6C00
 3225              	.LASF20:
 3226 0217 42617365 		.ascii	"BaseSequentialStreamVMT\000"
 3226      53657175 
 3226      656E7469 
 3226      616C5374 
 3226      7265616D 
 3227              		.ident	"GCC: (Sourcery CodeBench Lite 2011.09-69) 4.6.1"
ARM GAS  /tmp/ccghjEXC.s 			page 60


DEFINED SYMBOLS
                            *ABS*:00000000 chprintf.c
     /tmp/ccghjEXC.s:19     .text.chvprintf:00000000 $t
     /tmp/ccghjEXC.s:25     .text.chvprintf:00000000 chvprintf
     /tmp/ccghjEXC.s:941    .rodata.str1.4:00000000 .LC0
     /tmp/ccghjEXC.s:222    .text.chvprintf:000000dc $d
     /tmp/ccghjEXC.s:278    .text.chvprintf:00000146 $t
     /tmp/ccghjEXC.s:878    .text.chsnprintf:00000000 $t
     /tmp/ccghjEXC.s:884    .text.chsnprintf:00000000 chsnprintf
     /tmp/ccghjEXC.s:940    .rodata.str1.4:00000000 $d
                     .debug_frame:00000010 $d

UNDEFINED SYMBOLS
msObjectInit
