ARM GAS  /tmp/ccW4vDoT.s 			page 1


   1              		.syntax unified
   2              		.cpu cortex-m4
   3              		.fpu softvfp
   4              		.eabi_attribute 20, 1
   5              		.eabi_attribute 21, 1
   6              		.eabi_attribute 23, 3
   7              		.eabi_attribute 24, 1
   8              		.eabi_attribute 25, 1
   9              		.eabi_attribute 26, 1
  10              		.eabi_attribute 30, 2
  11              		.eabi_attribute 34, 1
  12              		.eabi_attribute 18, 4
  13              		.thumb
  14              		.file	"nvic.c"
  15              		.text
  16              	.Ltext0:
  17              		.cfi_sections	.debug_frame
  18              		.section	.text.nvicEnableVector,"ax",%progbits
  19              		.align	2
  20              		.p2align 4,,15
  21              		.global	nvicEnableVector
  22              		.thumb
  23              		.thumb_func
  24              		.type	nvicEnableVector, %function
  25              	nvicEnableVector:
  26              	.LFB7:
  27              		.file 1 "../../os/ports/common/ARMCMx/nvic.c"
  28              		.loc 1 46 0
  29              		.cfi_startproc
  30              		@ args = 0, pretend = 0, frame = 0
  31              		@ frame_needed = 0, uses_anonymous_args = 0
  32              		@ link register save eliminated.
  33              	.LVL0:
  34 0000 F0B4     		push	{r4, r5, r6, r7}
  35              	.LCFI0:
  36              		.cfi_def_cfa_offset 16
  37              		.cfi_offset 7, -4
  38              		.cfi_offset 6, -8
  39              		.cfi_offset 5, -12
  40              		.cfi_offset 4, -16
  41              		.loc 1 49 0
  42 0002 4FF46143 		mov	r3, #57600
  43 0006 8408     		lsrs	r4, r0, #2
  44 0008 CEF20003 		movt	r3, 57344
  45 000c C034     		adds	r4, r4, #192
  46              		.loc 1 47 0
  47 000e 00F00302 		and	r2, r0, #3
  48              		.loc 1 49 0
  49 0012 53F82470 		ldr	r7, [r3, r4, lsl #2]
  50              		.loc 1 47 0
  51 0016 D500     		lsls	r5, r2, #3
  52              		.loc 1 49 0
  53 0018 FF26     		movs	r6, #255
  54              		.loc 1 50 0
  55 001a 4209     		lsrs	r2, r0, #5
  56              		.loc 1 49 0
  57 001c AE40     		lsls	r6, r6, r5
ARM GAS  /tmp/ccW4vDoT.s 			page 2


  58 001e 27EA0606 		bic	r6, r7, r6
  59 0022 11FA05F5 		lsls	r5, r1, r5
  60              		.loc 1 50 0
  61 0026 00F01F00 		and	r0, r0, #31
  62              	.LVL1:
  63 002a 02F16007 		add	r7, r2, #96
  64 002e 0121     		movs	r1, #1
  65              	.LVL2:
  66 0030 11FA00F0 		lsls	r0, r1, r0
  67              		.loc 1 49 0
  68 0034 2E43     		orrs	r6, r6, r5
  69 0036 43F82460 		str	r6, [r3, r4, lsl #2]
  70              		.loc 1 50 0
  71 003a 43F82700 		str	r0, [r3, r7, lsl #2]
  72              		.loc 1 51 0
  73 003e 43F82200 		str	r0, [r3, r2, lsl #2]
  74              		.loc 1 52 0
  75 0042 F0BC     		pop	{r4, r5, r6, r7}
  76 0044 7047     		bx	lr
  77              		.cfi_endproc
  78              	.LFE7:
  79              		.size	nvicEnableVector, .-nvicEnableVector
  80 0046 00BFAFF3 		.section	.text.nvicDisableVector,"ax",%progbits
  80      0080AFF3 
  80      0080
  81              		.align	2
  82              		.p2align 4,,15
  83              		.global	nvicDisableVector
  84              		.thumb
  85              		.thumb_func
  86              		.type	nvicDisableVector, %function
  87              	nvicDisableVector:
  88              	.LFB8:
  89              		.loc 1 60 0
  90              		.cfi_startproc
  91              		@ args = 0, pretend = 0, frame = 0
  92              		@ frame_needed = 0, uses_anonymous_args = 0
  93              		@ link register save eliminated.
  94              	.LVL3:
  95              		.loc 1 63 0
  96 0000 4109     		lsrs	r1, r0, #5
  97 0002 4FF46143 		mov	r3, #57600
  98              		.loc 1 60 0
  99 0006 10B4     		push	{r4}
 100              	.LCFI1:
 101              		.cfi_def_cfa_offset 4
 102              		.cfi_offset 4, -4
 103              		.loc 1 63 0
 104 0008 CEF20003 		movt	r3, 57344
 105 000c 00F01F02 		and	r2, r0, #31
 106 0010 2031     		adds	r1, r1, #32
 107 0012 0124     		movs	r4, #1
 108 0014 9440     		lsls	r4, r4, r2
 109              		.loc 1 64 0
 110 0016 8208     		lsrs	r2, r0, #2
 111              		.loc 1 63 0
 112 0018 43F82140 		str	r4, [r3, r1, lsl #2]
ARM GAS  /tmp/ccW4vDoT.s 			page 3


 113              		.loc 1 64 0
 114 001c C032     		adds	r2, r2, #192
 115              		.loc 1 61 0
 116 001e 00F00304 		and	r4, r0, #3
 117              		.loc 1 64 0
 118 0022 53F82210 		ldr	r1, [r3, r2, lsl #2]
 119              		.loc 1 61 0
 120 0026 E000     		lsls	r0, r4, #3
 121              	.LVL4:
 122              		.loc 1 64 0
 123 0028 FF24     		movs	r4, #255
 124 002a 14FA00F0 		lsls	r0, r4, r0
 125              	.LVL5:
 126 002e 21EA0000 		bic	r0, r1, r0
 127 0032 43F82200 		str	r0, [r3, r2, lsl #2]
 128              		.loc 1 65 0
 129 0036 10BC     		pop	{r4}
 130 0038 7047     		bx	lr
 131              		.cfi_endproc
 132              	.LFE8:
 133              		.size	nvicDisableVector, .-nvicDisableVector
 134 003a 00BFAFF3 		.section	.text.nvicSetSystemHandlerPriority,"ax",%progbits
 134      0080
 135              		.align	2
 136              		.p2align 4,,15
 137              		.global	nvicSetSystemHandlerPriority
 138              		.thumb
 139              		.thumb_func
 140              		.type	nvicSetSystemHandlerPriority, %function
 141              	nvicSetSystemHandlerPriority:
 142              	.LFB9:
 143              		.loc 1 74 0
 144              		.cfi_startproc
 145              		@ args = 0, pretend = 0, frame = 0
 146              		@ frame_needed = 0, uses_anonymous_args = 0
 147              		@ link register save eliminated.
 148              	.LVL6:
 149 0000 30B4     		push	{r4, r5}
 150              	.LCFI2:
 151              		.cfi_def_cfa_offset 8
 152              		.cfi_offset 5, -4
 153              		.cfi_offset 4, -8
 154              		.loc 1 77 0
 155 0002 4FF46D43 		mov	r3, #60672
 156 0006 8508     		lsrs	r5, r0, #2
 157 0008 CEF20003 		movt	r3, 57344
 158 000c AA1D     		adds	r2, r5, #6
 159              		.loc 1 75 0
 160 000e 00F00300 		and	r0, r0, #3
 161              	.LVL7:
 162              		.loc 1 77 0
 163 0012 53F82250 		ldr	r5, [r3, r2, lsl #2]
 164              		.loc 1 75 0
 165 0016 C000     		lsls	r0, r0, #3
 166              		.loc 1 78 0
 167 0018 FF24     		movs	r4, #255
 168 001a 8440     		lsls	r4, r4, r0
ARM GAS  /tmp/ccW4vDoT.s 			page 4


 169              		.loc 1 77 0
 170 001c 25EA0404 		bic	r4, r5, r4
 171              		.loc 1 78 0
 172 0020 11FA00F0 		lsls	r0, r1, r0
 173 0024 0443     		orrs	r4, r4, r0
 174              		.loc 1 77 0
 175 0026 43F82240 		str	r4, [r3, r2, lsl #2]
 176              		.loc 1 79 0
 177 002a 30BC     		pop	{r4, r5}
 178 002c 7047     		bx	lr
 179              		.cfi_endproc
 180              	.LFE9:
 181              		.size	nvicSetSystemHandlerPriority, .-nvicSetSystemHandlerPriority
 182 002e 00BF     		.text
 183              	.Letext0:
 184              		.file 2 "../../os/ports/common/ARMCMx/nvic.h"
 185              		.file 3 "/home/lithium/Documents/arm-2011q3/bin/../lib/gcc/arm-none-eabi/4.6.1/../../../../arm-non