ARM GAS  /tmp/ccbHMixV.s 			page 1


   1              		.syntax unified
   2              		.cpu cortex-m4
   3              		.fpu softvfp
   4              		.eabi_attribute 20, 1
   5              		.eabi_attribute 21, 1
   6              		.eabi_attribute 23, 3
   7              		.eabi_attribute 24, 1
   8              		.eabi_attribute 25, 1
   9              		.eabi_attribute 26, 1
  10              		.eabi_attribute 30, 2
  11              		.eabi_attribute 34, 1
  12              		.eabi_attribute 18, 4
  13              		.thumb
  14              		.file	"pwm.c"
  15              		.text
  16              	.Ltext0:
  17              		.cfi_sections	.debug_frame
  18              		.section	.text.pwmInit,"ax",%progbits
  19              		.align	2
  20              		.p2align 4,,15
  21              		.global	pwmInit
  22              		.thumb
  23              		.thumb_func
  24              		.type	pwmInit, %function
  25              	pwmInit:
  26              	.LFB118:
  27              		.file 1 "../../os/hal/src/pwm.c"
  28              		.loc 1 68 0
  29              		.cfi_startproc
  30              		@ args = 0, pretend = 0, frame = 0
  31              		@ frame_needed = 0, uses_anonymous_args = 0
  32              		@ link register save eliminated.
  33              		.loc 1 71 0
  34              		.loc 1 70 0
  35 0000 FFF7FEBF 		b	pwm_lld_init
  36              		.cfi_endproc
  37              	.LFE118:
  38              		.size	pwmInit, .-pwmInit
  39 0004 AFF30080 		.section	.text.pwmObjectInit,"ax",%progbits
  39      AFF30080 
  39      AFF30080 
  40              		.align	2
  41              		.p2align 4,,15
  42              		.global	pwmObjectInit
  43              		.thumb
  44              		.thumb_func
  45              		.type	pwmObjectInit, %function
  46              	pwmObjectInit:
  47              	.LFB119:
  48              		.loc 1 80 0
  49              		.cfi_startproc
  50              		@ args = 0, pretend = 0, frame = 0
  51              		@ frame_needed = 0, uses_anonymous_args = 0
  52              		@ link register save eliminated.
  53              	.LVL0:
  54              		.loc 1 82 0
  55 0000 0121     		movs	r1, #1
ARM GAS  /tmp/ccbHMixV.s 			page 2


  56              		.loc 1 83 0
  57 0002 0023     		movs	r3, #0
  58              		.loc 1 82 0
  59 0004 0170     		strb	r1, [r0, #0]
  60              		.loc 1 83 0
  61 0006 4360     		str	r3, [r0, #4]
  62              		.loc 1 87 0
  63 0008 7047     		bx	lr
  64              		.cfi_endproc
  65              	.LFE119:
  66              		.size	pwmObjectInit, .-pwmObjectInit
  67 000a 00BFAFF3 		.section	.text.pwmStart,"ax",%progbits
  67      0080
  68              		.align	2
  69              		.p2align 4,,15
  70              		.global	pwmStart
  71              		.thumb
  72              		.thumb_func
  73              		.type	pwmStart, %function
  74              	pwmStart:
  75              	.LFB120:
  76              		.loc 1 99 0
  77              		.cfi_startproc
  78              		@ args = 0, pretend = 0, frame = 0
  79              		@ frame_needed = 0, uses_anonymous_args = 0
  80              	.LVL1:
  81 0000 10B5     		push	{r4, lr}
  82              	.LCFI0:
  83              		.cfi_def_cfa_offset 8
  84              		.cfi_offset 14, -4
  85              		.cfi_offset 4, -8
  86              	.LBB2:
  87              		.loc 1 103 0
  88 0002 2023     		movs	r3, #32
  89              	.LVL2:
  90              	.LBE2:
  91              		.loc 1 99 0
  92 0004 0446     		mov	r4, r0
  93              	.LBB3:
  94              		.loc 1 103 0
  95              	@ 103 "../../os/hal/src/pwm.c" 1
  96 0006 83F31188 		msr     BASEPRI, r3
  97              	@ 0 "" 2
  98              	.LVL3:
  99              		.thumb
 100              	.LBE3:
 101              		.loc 1 106 0
 102 000a 4160     		str	r1, [r0, #4]
 103              		.loc 1 107 0
 104 000c 8988     		ldrh	r1, [r1, #4]
 105              	.LVL4:
 106 000e 0181     		strh	r1, [r0, #8]	@ movhi
 107              		.loc 1 108 0
 108 0010 FFF7FEFF 		bl	pwm_lld_start
 109              	.LVL5:
 110              		.loc 1 109 0
 111 0014 0223     		movs	r3, #2
ARM GAS  /tmp/ccbHMixV.s 			page 3


 112 0016 2370     		strb	r3, [r4, #0]
 113              	.LBB4:
 114              		.loc 1 110 0
 115 0018 0023     		movs	r3, #0
 116              	.LVL6:
 117              	@ 110 "../../os/hal/src/pwm.c" 1
 118 001a 83F31188 		msr     BASEPRI, r3
 119              	@ 0 "" 2
 120              	.LVL7:
 121              		.thumb
 122              	.LBE4:
 123              		.loc 1 111 0
 124 001e 10BD     		pop	{r4, pc}
 125              		.cfi_endproc
 126              	.LFE120:
 127              		.size	pwmStart, .-pwmStart
 128              		.section	.text.pwmStop,"ax",%progbits
 129              		.align	2
 130              		.p2align 4,,15
 131              		.global	pwmStop
 132              		.thumb
 133              		.thumb_func
 134              		.type	pwmStop, %function
 135              	pwmStop:
 136              	.LFB121:
 137              		.loc 1 120 0
 138              		.cfi_startproc
 139              		@ args = 0, pretend = 0, frame = 0
 140              		@ frame_needed = 0, uses_anonymous_args = 0
 141              	.LVL8:
 142 0000 10B5     		push	{r4, lr}
 143              	.LCFI1:
 144              		.cfi_def_cfa_offset 8
 145              		.cfi_offset 14, -4
 146              		.cfi_offset 4, -8
 147              	.LBB5:
 148              		.loc 1 124 0
 149 0002 2023     		movs	r3, #32
 150              	.LVL9:
 151              	.LBE5:
 152              		.loc 1 120 0
 153 0004 0446     		mov	r4, r0
 154              	.LBB6:
 155              		.loc 1 124 0
 156              	@ 124 "../../os/hal/src/pwm.c" 1
 157 0006 83F31188 		msr     BASEPRI, r3
 158              	@ 0 "" 2
 159              	.LVL10:
 160              		.thumb
 161              	.LBE6:
 162              		.loc 1 127 0
 163 000a FFF7FEFF 		bl	pwm_lld_stop
 164              	.LVL11:
 165              		.loc 1 128 0
 166 000e 0123     		movs	r3, #1
 167 0010 2370     		strb	r3, [r4, #0]
 168              	.LBB7:
ARM GAS  /tmp/ccbHMixV.s 			page 4


 169              		.loc 1 129 0
 170 0012 0023     		movs	r3, #0
 171              	.LVL12:
 172              	@ 129 "../../os/hal/src/pwm.c" 1
 173 0014 83F31188 		msr     BASEPRI, r3
 174              	@ 0 "" 2
 175              	.LVL13:
 176              		.thumb
 177              	.LBE7:
 178              		.loc 1 130 0
 179 0018 10BD     		pop	{r4, pc}
 180              		.cfi_endproc
 181              	.LFE121:
 182              		.size	pwmStop, .-pwmStop
 183 001a 00BFAFF3 		.section	.text.pwmChangePeriod,"ax",%progbits
 183      0080
 184              		.align	2
 185              		.p2align 4,,15
 186              		.global	pwmChangePeriod
 187              		.thumb
 188              		.thumb_func
 189              		.type	pwmChangePeriod, %function
 190              	pwmChangePeriod:
 191              	.LFB122:
 192              		.loc 1 147 0
 193              		.cfi_startproc
 194              		@ args = 0, pretend = 0, frame = 0
 195              		@ frame_needed = 0, uses_anonymous_args = 0
 196              		@ link register save eliminated.
 197              	.LVL14:
 198              	.LBB8:
 199              		.loc 1 151 0
 200 0000 2023     		movs	r3, #32
 201              	.LVL15:
 202              	@ 151 "../../os/hal/src/pwm.c" 1
 203 0002 83F31188 		msr     BASEPRI, r3
 204              	@ 0 "" 2
 205              	.LVL16:
 206              		.thumb
 207              	.LBE8:
 208              		.loc 1 154 0
 209 0006 0369     		ldr	r3, [r0, #16]
 210              	.LVL17:
 211 0008 0181     		strh	r1, [r0, #8]	@ movhi
 212 000a 481E     		subs	r0, r1, #1
 213              	.LVL18:
 214 000c 81B2     		uxth	r1, r0
 215              	.LVL19:
 216 000e D962     		str	r1, [r3, #44]
 217              	.LBB9:
 218              		.loc 1 155 0
 219 0010 0023     		movs	r3, #0
 220              	.LVL20:
 221              	@ 155 "../../os/hal/src/pwm.c" 1
 222 0012 83F31188 		msr     BASEPRI, r3
 223              	@ 0 "" 2
 224              	.LVL21:
ARM GAS  /tmp/ccbHMixV.s 			page 5


 225              		.thumb
 226              	.LBE9:
 227              		.loc 1 156 0
 228 0016 7047     		bx	lr
 229              		.cfi_endproc
 230              	.LFE122:
 231              		.size	pwmChangePeriod, .-pwmChangePeriod
 232 0018 AFF30080 		.section	.text.pwmEnableChannel,"ax",%progbits
 232      AFF30080 
 233              		.align	2
 234              		.p2align 4,,15
 235              		.global	pwmEnableChannel
 236              		.thumb
 237              		.thumb_func
 238              		.type	pwmEnableChannel, %function
 239              	pwmEnableChannel:
 240              	.LFB123:
 241              		.loc 1 174 0
 242              		.cfi_startproc
 243              		@ args = 0, pretend = 0, frame = 0
 244              		@ frame_needed = 0, uses_anonymous_args = 0
 245              	.LVL22:
 246 0000 08B5     		push	{r3, lr}
 247              	.LCFI2:
 248              		.cfi_def_cfa_offset 8
 249              		.cfi_offset 14, -4
 250              		.cfi_offset 3, -8
 251              	.LBB10:
 252              		.loc 1 179 0
 253 0002 2023     		movs	r3, #32
 254              	.LVL23:
 255              	@ 179 "../../os/hal/src/pwm.c" 1
 256 0004 83F31188 		msr     BASEPRI, r3
 257              	@ 0 "" 2
 258              	.LVL24:
 259              		.thumb
 260              	.LBE10:
 261              		.loc 1 182 0
 262 0008 FFF7FEFF 		bl	pwm_lld_enable_channel
 263              	.LVL25:
 264              	.LBB11:
 265              		.loc 1 183 0
 266 000c 0023     		movs	r3, #0
 267              	.LVL26:
 268              	@ 183 "../../os/hal/src/pwm.c" 1
 269 000e 83F31188 		msr     BASEPRI, r3
 270              	@ 0 "" 2
 271              	.LVL27:
 272              		.thumb
 273              	.LBE11:
 274              		.loc 1 184 0
 275 0012 08BD     		pop	{r3, pc}
 276              		.cfi_endproc
 277              	.LFE123:
 278              		.size	pwmEnableChannel, .-pwmEnableChannel
 279 0014 AFF30080 		.section	.text.pwmDisableChannel,"ax",%progbits
 279      AFF30080 
ARM GAS  /tmp/ccbHMixV.s 			page 6


 279      AFF30080 
 280              		.align	2
 281              		.p2align 4,,15
 282              		.global	pwmDisableChannel
 283              		.thumb
 284              		.thumb_func
 285              		.type	pwmDisableChannel, %function
 286              	pwmDisableChannel:
 287              	.LFB124:
 288              		.loc 1 200 0
 289              		.cfi_startproc
 290              		@ args = 0, pretend = 0, frame = 0
 291              		@ frame_needed = 0, uses_anonymous_args = 0
 292              	.LVL28:
 293 0000 08B5     		push	{r3, lr}
 294              	.LCFI3:
 295              		.cfi_def_cfa_offset 8
 296              		.cfi_offset 14, -4
 297              		.cfi_offset 3, -8
 298              	.LBB12:
 299              		.loc 1 205 0
 300 0002 2023     		movs	r3, #32
 301              	.LVL29:
 302              	@ 205 "../../os/hal/src/pwm.c" 1
 303 0004 83F31188 		msr     BASEPRI, r3
 304              	@ 0 "" 2
 305              	.LVL30:
 306              		.thumb
 307              	.LBE12:
 308              		.loc 1 208 0
 309 0008 FFF7FEFF 		bl	pwm_lld_disable_channel
 310              	.LVL31:
 311              	.LBB13:
 312              		.loc 1 209 0
 313 000c 0023     		movs	r3, #0
 314              	.LVL32:
 315              	@ 209 "../../os/hal/src/pwm.c" 1
 316 000e 83F31188 		msr     BASEPRI, r3
 317              	@ 0 "" 2
 318              	.LVL33:
 319              		.thumb
 320              	.LBE13:
 321              		.loc 1 210 0
 322 0012 08BD     		pop	{r3, pc}
 323              		.cfi_endproc
 324              	.LFE124:
 325              		.size	pwmDisableChannel, .-pwmDisableChannel
 326 0014 AFF30080 		.text
 326      AFF30080 
 326      AFF30080 
 327              	.Letext0:
 328              		.file 2 "/home/lithium/Documents/arm-2011q3/bin/../lib/gcc/arm-none-eabi/4.6.1/../../../../arm-non
 329              		.file 3 "../../os/hal/include/pwm.h"
 330              		.file 4 "../../os/hal/platforms/STM32/TIMv1/pwm_lld.h"
 331              		.file 5 "../../os/hal/platforms/STM32/TIMv1/stm32_tim.h"
 332              		.file 6 "../../os/ports/common/ARMCMx/CMSIS/include/core_cm4.h"