ARM GAS  /tmp/ccjbH0lk.s 			page 1


   1              		.syntax unified
   2              		.cpu cortex-m4
   3              		.fpu softvfp
   4              		.eabi_attribute 20, 1
   5              		.eabi_attribute 21, 1
   6              		.eabi_attribute 23, 3
   7              		.eabi_attribute 24, 1
   8              		.eabi_attribute 25, 1
   9              		.eabi_attribute 26, 1
  10              		.eabi_attribute 30, 2
  11              		.eabi_attribute 34, 1
  12              		.eabi_attribute 18, 4
  13              		.thumb
  14              		.file	"spi.c"
  15              		.text
  16              	.Ltext0:
  17              		.cfi_sections	.debug_frame
  18              		.section	.text.spiInit,"ax",%progbits
  19              		.align	2
  20              		.p2align 4,,15
  21              		.global	spiInit
  22              		.thumb
  23              		.thumb_func
  24              		.type	spiInit, %function
  25              	spiInit:
  26              	.LFB118:
  27              		.file 1 "../../os/hal/src/spi.c"
  28              		.loc 1 68 0
  29              		.cfi_startproc
  30              		@ args = 0, pretend = 0, frame = 0
  31              		@ frame_needed = 0, uses_anonymous_args = 0
  32              		@ link register save eliminated.
  33              		.loc 1 71 0
  34              		.loc 1 70 0
  35 0000 FFF7FEBF 		b	spi_lld_init
  36              		.cfi_endproc
  37              	.LFE118:
  38              		.size	spiInit, .-spiInit
  39 0004 AFF30080 		.section	.text.spiObjectInit,"ax",%progbits
  39      AFF30080 
  39      AFF30080 
  40              		.align	2
  41              		.p2align 4,,15
  42              		.global	spiObjectInit
  43              		.thumb
  44              		.thumb_func
  45              		.type	spiObjectInit, %function
  46              	spiObjectInit:
  47              	.LFB119:
  48              		.loc 1 80 0
  49              		.cfi_startproc
  50              		@ args = 0, pretend = 0, frame = 0
  51              		@ frame_needed = 0, uses_anonymous_args = 0
  52              		@ link register save eliminated.
  53              	.LVL0:
  54              		.loc 1 83 0
  55 0000 0023     		movs	r3, #0
ARM GAS  /tmp/ccjbH0lk.s 			page 2


  56              		.loc 1 82 0
  57 0002 0122     		movs	r2, #1
  58 0004 0270     		strb	r2, [r0, #0]
  59              		.loc 1 83 0
  60 0006 4360     		str	r3, [r0, #4]
  61              		.loc 1 85 0
  62 0008 8360     		str	r3, [r0, #8]
  63              		.loc 1 89 0
  64 000a 0C30     		adds	r0, r0, #12
  65              	.LVL1:
  66              		.loc 1 97 0
  67              		.loc 1 89 0
  68 000c FFF7FEBF 		b	chMtxInit
  69              	.LVL2:
  70              		.cfi_endproc
  71              	.LFE119:
  72              		.size	spiObjectInit, .-spiObjectInit
  73              		.section	.text.spiStart,"ax",%progbits
  74              		.align	2
  75              		.p2align 4,,15
  76              		.global	spiStart
  77              		.thumb
  78              		.thumb_func
  79              		.type	spiStart, %function
  80              	spiStart:
  81              	.LFB120:
  82              		.loc 1 107 0
  83              		.cfi_startproc
  84              		@ args = 0, pretend = 0, frame = 0
  85              		@ frame_needed = 0, uses_anonymous_args = 0
  86              	.LVL3:
  87 0000 10B5     		push	{r4, lr}
  88              	.LCFI0:
  89              		.cfi_def_cfa_offset 8
  90              		.cfi_offset 14, -4
  91              		.cfi_offset 4, -8
  92              	.LBB2:
  93              		.loc 1 111 0
  94 0002 2023     		movs	r3, #32
  95              	.LVL4:
  96              	.LBE2:
  97              		.loc 1 107 0
  98 0004 0446     		mov	r4, r0
  99              	.LBB3:
 100              		.loc 1 111 0
 101              	@ 111 "../../os/hal/src/spi.c" 1
 102 0006 83F31188 		msr     BASEPRI, r3
 103              	@ 0 "" 2
 104              	.LVL5:
 105              		.thumb
 106              	.LBE3:
 107              		.loc 1 114 0
 108 000a 4160     		str	r1, [r0, #4]
 109              		.loc 1 115 0
 110 000c FFF7FEFF 		bl	spi_lld_start
 111              	.LVL6:
 112              		.loc 1 116 0
ARM GAS  /tmp/ccjbH0lk.s 			page 3


 113 0010 0223     		movs	r3, #2
 114 0012 2370     		strb	r3, [r4, #0]
 115              	.LBB4:
 116              		.loc 1 117 0
 117 0014 0023     		movs	r3, #0
 118              	.LVL7:
 119              	@ 117 "../../os/hal/src/spi.c" 1
 120 0016 83F31188 		msr     BASEPRI, r3
 121              	@ 0 "" 2
 122              	.LVL8:
 123              		.thumb
 124              	.LBE4:
 125              		.loc 1 118 0
 126 001a 10BD     		pop	{r4, pc}
 127              		.cfi_endproc
 128              	.LFE120:
 129              		.size	spiStart, .-spiStart
 130 001c AFF30080 		.section	.text.spiStop,"ax",%progbits
 131              		.align	2
 132              		.p2align 4,,15
 133              		.global	spiStop
 134              		.thumb
 135              		.thumb_func
 136              		.type	spiStop, %function
 137              	spiStop:
 138              	.LFB121:
 139              		.loc 1 129 0
 140              		.cfi_startproc
 141              		@ args = 0, pretend = 0, frame = 0
 142              		@ frame_needed = 0, uses_anonymous_args = 0
 143              	.LVL9:
 144 0000 10B5     		push	{r4, lr}
 145              	.LCFI1:
 146              		.cfi_def_cfa_offset 8
 147              		.cfi_offset 14, -4
 148              		.cfi_offset 4, -8
 149              	.LBB5:
 150              		.loc 1 133 0
 151 0002 2023     		movs	r3, #32
 152              	.LVL10:
 153              	.LBE5:
 154              		.loc 1 129 0
 155 0004 0446     		mov	r4, r0
 156              	.LBB6:
 157              		.loc 1 133 0
 158              	@ 133 "../../os/hal/src/spi.c" 1
 159 0006 83F31188 		msr     BASEPRI, r3
 160              	@ 0 "" 2
 161              	.LVL11:
 162              		.thumb
 163              	.LBE6:
 164              		.loc 1 136 0
 165 000a FFF7FEFF 		bl	spi_lld_unselect
 166              	.LVL12:
 167              		.loc 1 137 0
 168 000e 2046     		mov	r0, r4
 169 0010 FFF7FEFF 		bl	spi_lld_stop
ARM GAS  /tmp/ccjbH0lk.s 			page 4


 170              		.loc 1 138 0
 171 0014 0123     		movs	r3, #1
 172 0016 2370     		strb	r3, [r4, #0]
 173              	.LBB7:
 174              		.loc 1 139 0
 175 0018 0023     		movs	r3, #0
 176              	.LVL13:
 177              	@ 139 "../../os/hal/src/spi.c" 1
 178 001a 83F31188 		msr     BASEPRI, r3
 179              	@ 0 "" 2
 180              	.LVL14:
 181              		.thumb
 182              	.LBE7:
 183              		.loc 1 140 0
 184 001e 10BD     		pop	{r4, pc}
 185              		.cfi_endproc
 186              	.LFE121:
 187              		.size	spiStop, .-spiStop
 188              		.section	.text.spiSelect,"ax",%progbits
 189              		.align	2
 190              		.p2align 4,,15
 191              		.global	spiSelect
 192              		.thumb
 193              		.thumb_func
 194              		.type	spiSelect, %function
 195              	spiSelect:
 196              	.LFB122:
 197              		.loc 1 149 0
 198              		.cfi_startproc
 199              		@ args = 0, pretend = 0, frame = 0
 200              		@ frame_needed = 0, uses_anonymous_args = 0
 201              	.LVL15:
 202 0000 08B5     		push	{r3, lr}
 203              	.LCFI2:
 204              		.cfi_def_cfa_offset 8
 205              		.cfi_offset 14, -4
 206              		.cfi_offset 3, -8
 207              	.LBB8:
 208              		.loc 1 153 0
 209 0002 2023     		movs	r3, #32
 210              	.LVL16:
 211              	@ 153 "../../os/hal/src/spi.c" 1
 212 0004 83F31188 		msr     BASEPRI, r3
 213              	@ 0 "" 2
 214              	.LVL17:
 215              		.thumb
 216              	.LBE8:
 217              		.loc 1 155 0
 218 0008 FFF7FEFF 		bl	spi_lld_select
 219              	.LVL18:
 220              	.LBB9:
 221              		.loc 1 156 0
 222 000c 0023     		movs	r3, #0
 223              	.LVL19:
 224              	@ 156 "../../os/hal/src/spi.c" 1
 225 000e 83F31188 		msr     BASEPRI, r3
 226              	@ 0 "" 2
ARM GAS  /tmp/ccjbH0lk.s 			page 5


 227              	.LVL20:
 228              		.thumb
 229              	.LBE9:
 230              		.loc 1 157 0
 231 0012 08BD     		pop	{r3, pc}
 232              		.cfi_endproc
 233              	.LFE122:
 234              		.size	spiSelect, .-spiSelect
 235 0014 AFF30080 		.section	.text.spiUnselect,"ax",%progbits
 235      AFF30080 
 235      AFF30080 
 236              		.align	2
 237              		.p2align 4,,15
 238              		.global	spiUnselect
 239              		.thumb
 240              		.thumb_func
 241              		.type	spiUnselect, %function
 242              	spiUnselect:
 243              	.LFB123:
 244              		.loc 1 167 0
 245              		.cfi_startproc
 246              		@ args = 0, pretend = 0, frame = 0
 247              		@ frame_needed = 0, uses_anonymous_args = 0
 248              	.LVL21:
 249 0000 08B5     		push	{r3, lr}
 250              	.LCFI3:
 251              		.cfi_def_cfa_offset 8
 252              		.cfi_offset 14, -4
 253              		.cfi_offset 3, -8
 254              	.LBB10:
 255              		.loc 1 171 0
 256 0002 2023     		movs	r3, #32
 257              	.LVL22:
 258              	@ 171 "../../os/hal/src/spi.c" 1
 259 0004 83F31188 		msr     BASEPRI, r3
 260              	@ 0 "" 2
 261              	.LVL23:
 262              		.thumb
 263              	.LBE10:
 264              		.loc 1 173 0
 265 0008 FFF7FEFF 		bl	spi_lld_unselect
 266              	.LVL24:
 267              	.LBB11:
 268              		.loc 1 174 0
 269 000c 0023     		movs	r3, #0
 270              	.LVL25:
 271              	@ 174 "../../os/hal/src/spi.c" 1
 272 000e 83F31188 		msr     BASEPRI, r3
 273              	@ 0 "" 2
 274              	.LVL26:
 275              		.thumb
 276              	.LBE11:
 277              		.loc 1 175 0
 278 0012 08BD     		pop	{r3, pc}
 279              		.cfi_endproc
 280              	.LFE123:
 281              		.size	spiUnselect, .-spiUnselect
ARM GAS  /tmp/ccjbH0lk.s 			page 6


 282 0014 AFF30080 		.section	.text.spiStartIgnore,"ax",%progbits
 282      AFF30080 
 282      AFF30080 
 283              		.align	2
 284              		.p2align 4,,15
 285              		.global	spiStartIgnore
 286              		.thumb
 287              		.thumb_func
 288              		.type	spiStartIgnore, %function
 289              	spiStartIgnore:
 290              	.LFB124:
 291              		.loc 1 190 0
 292              		.cfi_startproc
 293              		@ args = 0, pretend = 0, frame = 0
 294              		@ frame_needed = 0, uses_anonymous_args = 0
 295              	.LVL27:
 296 0000 08B5     		push	{r3, lr}
 297              	.LCFI4:
 298              		.cfi_def_cfa_offset 8
 299              		.cfi_offset 14, -4
 300              		.cfi_offset 3, -8
 301              	.LBB12:
 302              		.loc 1 194 0
 303 0002 2023     		movs	r3, #32
 304              	.LVL28:
 305              	@ 194 "../../os/hal/src/spi.c" 1
 306 0004 83F31188 		msr     BASEPRI, r3
 307              	@ 0 "" 2
 308              	.LVL29:
 309              		.thumb
 310              	.LBE12:
 311              		.loc 1 196 0
 312 0008 0323     		movs	r3, #3
 313              	.LVL30:
 314 000a 0370     		strb	r3, [r0, #0]
 315 000c FFF7FEFF 		bl	spi_lld_ignore
 316              	.LVL31:
 317              	.LBB13:
 318              		.loc 1 197 0
 319 0010 0023     		movs	r3, #0
 320              	.LVL32:
 321              	@ 197 "../../os/hal/src/spi.c" 1
 322 0012 83F31188 		msr     BASEPRI, r3
 323              	@ 0 "" 2
 324              	.LVL33:
 325              		.thumb
 326              	.LBE13:
 327              		.loc 1 198 0
 328 0016 08BD     		pop	{r3, pc}
 329              		.cfi_endproc
 330              	.LFE124:
 331              		.size	spiStartIgnore, .-spiStartIgnore
 332 0018 AFF30080 		.section	.text.spiStartExchange,"ax",%progbits
 332      AFF30080 
 333              		.align	2
 334              		.p2align 4,,15
 335              		.global	spiStartExchange
ARM GAS  /tmp/ccjbH0lk.s 			page 7


 336              		.thumb
 337              		.thumb_func
 338              		.type	spiStartExchange, %function
 339              	spiStartExchange:
 340              	.LFB125:
 341              		.loc 1 218 0
 342              		.cfi_startproc
 343              		@ args = 0, pretend = 0, frame = 0
 344              		@ frame_needed = 0, uses_anonymous_args = 0
 345              	.LVL34:
 346 0000 38B5     		push	{r3, r4, r5, lr}
 347              	.LCFI5:
 348              		.cfi_def_cfa_offset 16
 349              		.cfi_offset 14, -4
 350              		.cfi_offset 5, -8
 351              		.cfi_offset 4, -12
 352              		.cfi_offset 3, -16
 353              		.loc 1 218 0
 354 0002 1D46     		mov	r5, r3
 355              	.LBB14:
 356              		.loc 1 223 0
 357 0004 2023     		movs	r3, #32
 358              	.LVL35:
 359              	@ 223 "../../os/hal/src/spi.c" 1
 360 0006 83F31188 		msr     BASEPRI, r3
 361              	@ 0 "" 2
 362              	.LVL36:
 363              		.thumb
 364              	.LBE14:
 365              		.loc 1 225 0
 366 000a 2B46     		mov	r3, r5
 367              	.LVL37:
 368 000c 0325     		movs	r5, #3
 369              	.LVL38:
 370 000e 0570     		strb	r5, [r0, #0]
 371 0010 FFF7FEFF 		bl	spi_lld_exchange
 372              	.LVL39:
 373              	.LBB15:
 374              		.loc 1 226 0
 375 0014 0023     		movs	r3, #0
 376              	.LVL40:
 377              	@ 226 "../../os/hal/src/spi.c" 1
 378 0016 83F31188 		msr     BASEPRI, r3
 379              	@ 0 "" 2
 380              	.LVL41:
 381              		.thumb
 382              	.LBE15:
 383              		.loc 1 227 0
 384 001a 38BD     		pop	{r3, r4, r5, pc}
 385              		.cfi_endproc
 386              	.LFE125:
 387              		.size	spiStartExchange, .-spiStartExchange
 388 001c AFF30080 		.section	.text.spiStartSend,"ax",%progbits
 389              		.align	2
 390              		.p2align 4,,15
 391              		.global	spiStartSend
 392              		.thumb
ARM GAS  /tmp/ccjbH0lk.s 			page 8


 393              		.thumb_func
 394              		.type	spiStartSend, %function
 395              	spiStartSend:
 396              	.LFB126:
 397              		.loc 1 244 0
 398              		.cfi_startproc
 399              		@ args = 0, pretend = 0, frame = 0
 400              		@ frame_needed = 0, uses_anonymous_args = 0
 401              	.LVL42:
 402 0000 10B5     		push	{r4, lr}
 403              	.LCFI6:
 404              		.cfi_def_cfa_offset 8
 405              		.cfi_offset 14, -4
 406              		.cfi_offset 4, -8
 407              	.LBB16:
 408              		.loc 1 249 0
 409 0002 2023     		movs	r3, #32
 410              	.LVL43:
 411              	@ 249 "../../os/hal/src/spi.c" 1
 412 0004 83F31188 		msr     BASEPRI, r3
 413              	@ 0 "" 2
 414              	.LVL44:
 415              		.thumb
 416              	.LBE16:
 417              		.loc 1 251 0
 418 0008 0323     		movs	r3, #3
 419              	.LVL45:
 420 000a 0370     		strb	r3, [r0, #0]
 421 000c FFF7FEFF 		bl	spi_lld_send
 422              	.LVL46:
 423              	.LBB17:
 424              		.loc 1 252 0
 425 0010 0023     		movs	r3, #0
 426              	.LVL47:
 427              	@ 252 "../../os/hal/src/spi.c" 1
 428 0012 83F31188 		msr     BASEPRI, r3
 429              	@ 0 "" 2
 430              	.LVL48:
 431              		.thumb
 432              	.LBE17:
 433              		.loc 1 253 0
 434 0016 10BD     		pop	{r4, pc}
 435              		.cfi_endproc
 436              	.LFE126:
 437              		.size	spiStartSend, .-spiStartSend
 438 0018 AFF30080 		.section	.text.spiStartReceive,"ax",%progbits
 438      AFF30080 
 439              		.align	2
 440              		.p2align 4,,15
 441              		.global	spiStartReceive
 442              		.thumb
 443              		.thumb_func
 444              		.type	spiStartReceive, %function
 445              	spiStartReceive:
 446              	.LFB127:
 447              		.loc 1 270 0
 448              		.cfi_startproc
ARM GAS  /tmp/ccjbH0lk.s 			page 9


 449              		@ args = 0, pretend = 0, frame = 0
 450              		@ frame_needed = 0, uses_anonymous_args = 0
 451              	.LVL49:
 452 0000 10B5     		push	{r4, lr}
 453              	.LCFI7:
 454              		.cfi_def_cfa_offset 8
 455              		.cfi_offset 14, -4
 456              		.cfi_offset 4, -8
 457              	.LBB18:
 458              		.loc 1 275 0
 459 0002 2023     		movs	r3, #32
 460              	.LVL50:
 461              	@ 275 "../../os/hal/src/spi.c" 1
 462 0004 83F31188 		msr     BASEPRI, r3
 463              	@ 0 "" 2
 464              	.LVL51:
 465              		.thumb
 466              	.LBE18:
 467              		.loc 1 277 0
 468 0008 0323     		movs	r3, #3
 469              	.LVL52:
 470 000a 0370     		strb	r3, [r0, #0]
 471 000c FFF7FEFF 		bl	spi_lld_receive
 472              	.LVL53:
 473              	.LBB19:
 474              		.loc 1 278 0
 475 0010 0023     		movs	r3, #0
 476              	.LVL54:
 477              	@ 278 "../../os/hal/src/spi.c" 1
 478 0012 83F31188 		msr     BASEPRI, r3
 479              	@ 0 "" 2
 480              	.LVL55:
 481              		.thumb
 482              	.LBE19:
 483              		.loc 1 279 0
 484 0016 10BD     		pop	{r4, pc}
 485              		.cfi_endproc
 486              	.LFE127:
 487              		.size	spiStartReceive, .-spiStartReceive
 488 0018 AFF30080 		.section	.text.spiIgnore,"ax",%progbits
 488      AFF30080 
 489              		.align	2
 490              		.p2align 4,,15
 491              		.global	spiIgnore
 492              		.thumb
 493              		.thumb_func
 494              		.type	spiIgnore, %function
 495              	spiIgnore:
 496              	.LFB128:
 497              		.loc 1 296 0
 498              		.cfi_startproc
 499              		@ args = 0, pretend = 0, frame = 0
 500              		@ frame_needed = 0, uses_anonymous_args = 0
 501              	.LVL56:
 502 0000 10B5     		push	{r4, lr}
 503              	.LCFI8:
 504              		.cfi_def_cfa_offset 8
ARM GAS  /tmp/ccjbH0lk.s 			page 10


 505              		.cfi_offset 14, -4
 506              		.cfi_offset 4, -8
 507              	.LBB20:
 508              		.loc 1 300 0
 509 0002 2023     		movs	r3, #32
 510              	.LVL57:
 511              	.LBE20:
 512              		.loc 1 296 0
 513 0004 0446     		mov	r4, r0
 514              	.LBB21:
 515              		.loc 1 300 0
 516              	@ 300 "../../os/hal/src/spi.c" 1
 517 0006 83F31188 		msr     BASEPRI, r3
 518              	@ 0 "" 2
 519              	.LVL58:
 520              		.thumb
 521              	.LBE21:
 522              		.loc 1 303 0
 523 000a 0322     		movs	r2, #3
 524 000c 0270     		strb	r2, [r0, #0]
 525 000e FFF7FEFF 		bl	spi_lld_ignore
 526              	.LVL59:
 527              		.loc 1 304 0
 528 0012 40F20001 		movw	r1, #:lower16:rlist
 529 0016 C0F20001 		movt	r1, #:upper16:rlist
 530 001a 0220     		movs	r0, #2
 531 001c 8B69     		ldr	r3, [r1, #24]
 532 001e A360     		str	r3, [r4, #8]
 533 0020 FFF7FEFF 		bl	chSchGoSleepS
 534              	.LBB22:
 535              		.loc 1 305 0
 536 0024 0023     		movs	r3, #0
 537              	.LVL60:
 538              	@ 305 "../../os/hal/src/spi.c" 1
 539 0026 83F31188 		msr     BASEPRI, r3
 540              	@ 0 "" 2
 541              	.LVL61:
 542              		.thumb
 543              	.LBE22:
 544              		.loc 1 306 0
 545 002a 10BD     		pop	{r4, pc}
 546              		.cfi_endproc
 547              	.LFE128:
 548              		.size	spiIgnore, .-spiIgnore
 549 002c AFF30080 		.section	.text.spiExchange,"ax",%progbits
 550              		.align	2
 551              		.p2align 4,,15
 552              		.global	spiExchange
 553              		.thumb
 554              		.thumb_func
 555              		.type	spiExchange, %function
 556              	spiExchange:
 557              	.LFB129:
 558              		.loc 1 327 0
 559              		.cfi_startproc
 560              		@ args = 0, pretend = 0, frame = 0
 561              		@ frame_needed = 0, uses_anonymous_args = 0
ARM GAS  /tmp/ccjbH0lk.s 			page 11


 562              	.LVL62:
 563 0000 38B5     		push	{r3, r4, r5, lr}
 564              	.LCFI9:
 565              		.cfi_def_cfa_offset 16
 566              		.cfi_offset 14, -4
 567              		.cfi_offset 5, -8
 568              		.cfi_offset 4, -12
 569              		.cfi_offset 3, -16
 570              		.loc 1 327 0
 571 0002 1D46     		mov	r5, r3
 572 0004 0446     		mov	r4, r0
 573              	.LBB23:
 574              		.loc 1 332 0
 575 0006 2023     		movs	r3, #32
 576              	.LVL63:
 577              	@ 332 "../../os/hal/src/spi.c" 1
 578 0008 83F31188 		msr     BASEPRI, r3
 579              	@ 0 "" 2
 580              	.LVL64:
 581              		.thumb
 582              	.LBE23:
 583              		.loc 1 336 0
 584 000c 2B46     		mov	r3, r5
 585              	.LVL65:
 586 000e 0325     		movs	r5, #3
 587              	.LVL66:
 588 0010 0570     		strb	r5, [r0, #0]
 589 0012 FFF7FEFF 		bl	spi_lld_exchange
 590              	.LVL67:
 591              		.loc 1 337 0
 592 0016 40F20001 		movw	r1, #:lower16:rlist
 593 001a C0F20001 		movt	r1, #:upper16:rlist
 594 001e 0220     		movs	r0, #2
 595 0020 8B69     		ldr	r3, [r1, #24]
 596 0022 A360     		str	r3, [r4, #8]
 597 0024 FFF7FEFF 		bl	chSchGoSleepS
 598              	.LBB24:
 599              		.loc 1 338 0
 600 0028 0023     		movs	r3, #0
 601              	.LVL68:
 602              	@ 338 "../../os/hal/src/spi.c" 1
 603 002a 83F31188 		msr     BASEPRI, r3
 604              	@ 0 "" 2
 605              	.LVL69:
 606              		.thumb
 607              	.LBE24:
 608              		.loc 1 339 0
 609 002e 38BD     		pop	{r3, r4, r5, pc}
 610              		.cfi_endproc
 611              	.LFE129:
 612              		.size	spiExchange, .-spiExchange
 613              		.section	.text.spiSend,"ax",%progbits
 614              		.align	2
 615              		.p2align 4,,15
 616              		.global	spiSend
 617              		.thumb
 618              		.thumb_func
ARM GAS  /tmp/ccjbH0lk.s 			page 12


 619              		.type	spiSend, %function
 620              	spiSend:
 621              	.LFB130:
 622              		.loc 1 357 0
 623              		.cfi_startproc
 624              		@ args = 0, pretend = 0, frame = 0
 625              		@ frame_needed = 0, uses_anonymous_args = 0
 626              	.LVL70:
 627 0000 10B5     		push	{r4, lr}
 628              	.LCFI10:
 629              		.cfi_def_cfa_offset 8
 630              		.cfi_offset 14, -4
 631              		.cfi_offset 4, -8
 632              	.LBB25:
 633              		.loc 1 361 0
 634 0002 2023     		movs	r3, #32
 635              	.LVL71:
 636              	.LBE25:
 637              		.loc 1 357 0
 638 0004 0446     		mov	r4, r0
 639              	.LBB26:
 640              		.loc 1 361 0
 641              	@ 361 "../../os/hal/src/spi.c" 1
 642 0006 83F31188 		msr     BASEPRI, r3
 643              	@ 0 "" 2
 644              	.LVL72:
 645              		.thumb
 646              	.LBE26:
 647              		.loc 1 364 0
 648 000a 0323     		movs	r3, #3
 649              	.LVL73:
 650 000c 0370     		strb	r3, [r0, #0]
 651 000e FFF7FEFF 		bl	spi_lld_send
 652              	.LVL74:
 653              		.loc 1 365 0
 654 0012 40F20001 		movw	r1, #:lower16:rlist
 655 0016 C0F20001 		movt	r1, #:upper16:rlist
 656 001a 0220     		movs	r0, #2
 657 001c 8B69     		ldr	r3, [r1, #24]
 658 001e A360     		str	r3, [r4, #8]
 659 0020 FFF7FEFF 		bl	chSchGoSleepS
 660              	.LBB27:
 661              		.loc 1 366 0
 662 0024 0023     		movs	r3, #0
 663              	.LVL75:
 664              	@ 366 "../../os/hal/src/spi.c" 1
 665 0026 83F31188 		msr     BASEPRI, r3
 666              	@ 0 "" 2
 667              	.LVL76:
 668              		.thumb
 669              	.LBE27:
 670              		.loc 1 367 0
 671 002a 10BD     		pop	{r4, pc}
 672              		.cfi_endproc
 673              	.LFE130:
 674              		.size	spiSend, .-spiSend
 675 002c AFF30080 		.section	.text.spiReceive,"ax",%progbits
ARM GAS  /tmp/ccjbH0lk.s 			page 13


 676              		.align	2
 677              		.p2align 4,,15
 678              		.global	spiReceive
 679              		.thumb
 680              		.thumb_func
 681              		.type	spiReceive, %function
 682              	spiReceive:
 683              	.LFB131:
 684              		.loc 1 385 0
 685              		.cfi_startproc
 686              		@ args = 0, pretend = 0, frame = 0
 687              		@ frame_needed = 0, uses_anonymous_args = 0
 688              	.LVL77:
 689 0000 10B5     		push	{r4, lr}
 690              	.LCFI11:
 691              		.cfi_def_cfa_offset 8
 692              		.cfi_offset 14, -4
 693              		.cfi_offset 4, -8
 694              	.LBB28:
 695              		.loc 1 390 0
 696 0002 2023     		movs	r3, #32
 697              	.LVL78:
 698              	.LBE28:
 699              		.loc 1 385 0
 700 0004 0446     		mov	r4, r0
 701              	.LBB29:
 702              		.loc 1 390 0
 703              	@ 390 "../../os/hal/src/spi.c" 1
 704 0006 83F31188 		msr     BASEPRI, r3
 705              	@ 0 "" 2
 706              	.LVL79:
 707              		.thumb
 708              	.LBE29:
 709              		.loc 1 394 0
 710 000a 0323     		movs	r3, #3
 711              	.LVL80:
 712 000c 0370     		strb	r3, [r0, #0]
 713 000e FFF7FEFF 		bl	spi_lld_receive
 714              	.LVL81:
 715              		.loc 1 395 0
 716 0012 40F20001 		movw	r1, #:lower16:rlist
 717 0016 C0F20001 		movt	r1, #:upper16:rlist
 718 001a 0220     		movs	r0, #2
 719 001c 8B69     		ldr	r3, [r1, #24]
 720 001e A360     		str	r3, [r4, #8]
 721 0020 FFF7FEFF 		bl	chSchGoSleepS
 722              	.LBB30:
 723              		.loc 1 396 0
 724 0024 0023     		movs	r3, #0
 725              	.LVL82:
 726              	@ 396 "../../os/hal/src/spi.c" 1
 727 0026 83F31188 		msr     BASEPRI, r3
 728              	@ 0 "" 2
 729              	.LVL83:
 730              		.thumb
 731              	.LBE30:
 732              		.loc 1 397 0
ARM GAS  /tmp/ccjbH0lk.s 			page 14


 733 002a 10BD     		pop	{r4, pc}
 734              		.cfi_endproc
 735              	.LFE131:
 736              		.size	spiReceive, .-spiReceive
 737 002c AFF30080 		.section	.text.spiAcquireBus,"ax",%progbits
 738              		.align	2
 739              		.p2align 4,,15
 740              		.global	spiAcquireBus
 741              		.thumb
 742              		.thumb_func
 743              		.type	spiAcquireBus, %function
 744              	spiAcquireBus:
 745              	.LFB132:
 746              		.loc 1 412 0
 747              		.cfi_startproc
 748              		@ args = 0, pretend = 0, frame = 0
 749              		@ frame_needed = 0, uses_anonymous_args = 0
 750              		@ link register save eliminated.
 751              	.LVL84:
 752              		.loc 1 417 0
 753 0000 0C30     		adds	r0, r0, #12
 754              	.LVL85:
 755              		.loc 1 421 0
 756              		.loc 1 417 0
 757 0002 FFF7FEBF 		b	chMtxLock
 758              	.LVL86:
 759              		.cfi_endproc
 760              	.LFE132:
 761              		.size	spiAcquireBus, .-spiAcquireBus
 762 0006 00BFAFF3 		.section	.text.spiReleaseBus,"ax",%progbits
 762      0080AFF3 
 762      0080
 763              		.align	2
 764              		.p2align 4,,15
 765              		.global	spiReleaseBus
 766              		.thumb
 767              		.thumb_func
 768              		.type	spiReleaseBus, %function
 769              	spiReleaseBus:
 770              	.LFB133:
 771              		.loc 1 432 0
 772              		.cfi_startproc
 773              		@ args = 0, pretend = 0, frame = 0
 774              		@ frame_needed = 0, uses_anonymous_args = 0
 775              		@ link register save eliminated.
 776              	.LVL87:
 777              		.loc 1 442 0
 778              		.loc 1 438 0
 779 0000 FFF7FEBF 		b	chMtxUnlock
 780              	.LVL88:
 781              		.cfi_endproc
 782              	.LFE133:
 783              		.size	spiReleaseBus, .-spiReleaseBus
 784 0004 AFF30080 		.text
 784      AFF30080 
 784      AFF30080 
 785              	.Letext0:
ARM GAS  /tmp/ccjbH0lk.s 			page 15


 786              		.file 2 "/home/lithium/Documents/arm-2011q3/bin/../lib/gcc/arm-none-eabi/4.6.1/include/stddef.h"
 787              		.file 3 "/home/lithium/Documents/arm-2011q3/bin/../lib/gcc/arm-none-eabi/4.6.1/../../../../arm-non
 788              		.file 4 "../../os/ports/GCC/ARMCMx/chtypes.h"
 789              		.file 5 "../../os/kernel/include/chlists.h"
 790              		.file 6 "../../os/kernel/include/chthreads.h"
 791              		.file 7 "../../os/ports/GCC/ARMCMx/chcore_v7m.h"
 792              		.file 8 "../../os/kernel/include/chschd.h"
 793              		.file 9 "../../os/kernel/include/chmtx.h"
 794              		.file 10 "../../os/hal/platforms/STM32F4xx/stm32f4xx.h"
 795              		.file 11 "../../os/hal/platforms/STM32F4xx/stm32_dma.h"
 796              		.file 12 "../../os/hal/platforms/STM32/GPIOv2/pal_lld.h"
 797              		.file 13 "../../os/hal/include/spi.h"
 798              		.file 14 "../../os/hal/platforms/STM32/SPIv1/spi_lld.h"
 799              		.file 15 "../../os/ports/common/ARMCMx/CMSIS/include/core_cm4.h"