ARM GAS  /tmp/cczy9E7S.s 			page 1


   1              		.syntax unified
   2              		.cpu cortex-m4
   3              		.fpu softvfp
   4              		.eabi_attribute 20, 1
   5              		.eabi_attribute 21, 1
   6              		.eabi_attribute 23, 3
   7              		.eabi_attribute 24, 1
   8              		.eabi_attribute 25, 1
   9              		.eabi_attribute 26, 1
  10              		.eabi_attribute 30, 2
  11              		.eabi_attribute 34, 1
  12              		.eabi_attribute 18, 4
  13              		.thumb
  14              		.file	"spi_lld.c"
  15              		.text
  16              	.Ltext0:
  17              		.cfi_sections	.debug_frame
  18              		.section	.text.spi_lld_serve_tx_interrupt,"ax",%progbits
  19              		.align	2
  20              		.p2align 4,,15
  21              		.thumb
  22              		.thumb_func
  23              		.type	spi_lld_serve_tx_interrupt, %function
  24              	spi_lld_serve_tx_interrupt:
  25              	.LFB119:
  26              		.file 1 "../../os/hal/platforms/STM32/SPIv1/spi_lld.c"
  27              		.loc 1 159 0
  28              		.cfi_startproc
  29              		@ args = 0, pretend = 0, frame = 0
  30              		@ frame_needed = 0, uses_anonymous_args = 0
  31              		@ link register save eliminated.
  32              	.LVL0:
  33              		.loc 1 164 0
  34 0000 11F00C0F 		tst	r1, #12
  35 0004 00D1     		bne	.L4
  36 0006 7047     		bx	lr
  37              	.L4:
  38              		.loc 1 171 0
  39              		.loc 1 165 0
  40 0008 FFF7FEBF 		b	port_halt
  41              	.LVL1:
  42              	.LVL2:
  43              		.cfi_endproc
  44              	.LFE119:
  45              		.size	spi_lld_serve_tx_interrupt, .-spi_lld_serve_tx_interrupt
  46 000c AFF30080 		.section	.text.spi_lld_serve_rx_interrupt,"ax",%progbits
  47              		.align	2
  48              		.p2align 4,,15
  49              		.thumb
  50              		.thumb_func
  51              		.type	spi_lld_serve_rx_interrupt, %function
  52              	spi_lld_serve_rx_interrupt:
  53              	.LFB118:
  54              		.loc 1 133 0
  55              		.cfi_startproc
  56              		@ args = 0, pretend = 0, frame = 0
  57              		@ frame_needed = 0, uses_anonymous_args = 0
ARM GAS  /tmp/cczy9E7S.s 			page 2


  58              	.LVL3:
  59              		.loc 1 137 0
  60 0000 11F00C0F 		tst	r1, #12
  61              		.loc 1 133 0
  62 0004 38B5     		push	{r3, r4, r5, lr}
  63              	.LCFI0:
  64              		.cfi_def_cfa_offset 16
  65              		.cfi_offset 14, -4
  66              		.cfi_offset 5, -8
  67              		.cfi_offset 4, -12
  68              		.cfi_offset 3, -16
  69              		.loc 1 133 0
  70 0006 0446     		mov	r4, r0
  71              		.loc 1 137 0
  72 0008 37D1     		bne	.L14
  73              	.LVL4:
  74              	.L6:
  75              		.loc 1 145 0
  76 000a 606A     		ldr	r0, [r4, #36]
  77 000c 0268     		ldr	r2, [r0, #0]
  78 000e 1168     		ldr	r1, [r2, #0]
  79 0010 21F01F03 		bic	r3, r1, #31
  80 0014 1360     		str	r3, [r2, #0]
  81              	.L7:
  82              		.loc 1 145 0 is_stmt 0 discriminator 1
  83 0016 1568     		ldr	r5, [r2, #0]
  84 0018 E907     		lsls	r1, r5, #31
  85 001a FCD4     		bmi	.L7
  86              		.loc 1 145 0 discriminator 2
  87 001c 057A     		ldrb	r5, [r0, #8]	@ zero_extendqisi2
  88              		.loc 1 146 0 is_stmt 1 discriminator 2
  89 001e 216A     		ldr	r1, [r4, #32]
  90              		.loc 1 145 0 discriminator 2
  91 0020 4368     		ldr	r3, [r0, #4]
  92              		.loc 1 146 0 discriminator 2
  93 0022 0A68     		ldr	r2, [r1, #0]
  94              		.loc 1 145 0 discriminator 2
  95 0024 3D20     		movs	r0, #61
  96 0026 A840     		lsls	r0, r0, r5
  97 0028 1860     		str	r0, [r3, #0]
  98              		.loc 1 146 0 discriminator 2
  99 002a 1368     		ldr	r3, [r2, #0]
 100 002c 23F01F00 		bic	r0, r3, #31
 101 0030 1060     		str	r0, [r2, #0]
 102              	.L8:
 103              		.loc 1 146 0 is_stmt 0 discriminator 1
 104 0032 1368     		ldr	r3, [r2, #0]
 105 0034 DB07     		lsls	r3, r3, #31
 106 0036 FCD4     		bmi	.L8
 107              		.loc 1 150 0 is_stmt 1 discriminator 2
 108 0038 6368     		ldr	r3, [r4, #4]
 109              		.loc 1 146 0 discriminator 2
 110 003a 087A     		ldrb	r0, [r1, #8]	@ zero_extendqisi2
 111 003c 4A68     		ldr	r2, [r1, #4]
 112              		.loc 1 150 0 discriminator 2
 113 003e 1B68     		ldr	r3, [r3, #0]
 114              		.loc 1 146 0 discriminator 2
ARM GAS  /tmp/cczy9E7S.s 			page 3


 115 0040 3D21     		movs	r1, #61
 116 0042 8140     		lsls	r1, r1, r0
 117 0044 1160     		str	r1, [r2, #0]
 118              		.loc 1 150 0 discriminator 2
 119 0046 ABB1     		cbz	r3, .L9
 120              		.loc 1 150 0 is_stmt 0 discriminator 1
 121 0048 0421     		movs	r1, #4
 122 004a 2170     		strb	r1, [r4, #0]
 123 004c 2046     		mov	r0, r4
 124 004e 9847     		blx	r3
 125 0050 2278     		ldrb	r2, [r4, #0]	@ zero_extendqisi2
 126 0052 042A     		cmp	r2, #4
 127 0054 0ED0     		beq	.L9
 128              	.L10:
 129              	.LBB2:
 130              		.loc 1 150 0 discriminator 4
 131 0056 2023     		movs	r3, #32
 132              	.LVL5:
 133              	@ 150 "../../os/hal/platforms/STM32/SPIv1/spi_lld.c" 1
 134 0058 83F31188 		msr     BASEPRI, r3
 135              	@ 0 "" 2
 136              	.LVL6:
 137              		.thumb
 138              	.LBE2:
 139 005c A368     		ldr	r3, [r4, #8]
 140              	.LVL7:
 141 005e 2BB1     		cbz	r3, .L11
 142              	.LVL8:
 143              	.LBB3:
 144              		.loc 1 150 0 discriminator 5
 145 0060 0022     		movs	r2, #0
 146 0062 A260     		str	r2, [r4, #8]
 147 0064 1846     		mov	r0, r3
 148 0066 5A62     		str	r2, [r3, #36]
 149 0068 FFF7FEFF 		bl	chSchReadyI
 150              	.LVL9:
 151              	.L11:
 152              	.LBE3:
 153              	.LBB4:
 154              		.loc 1 150 0 discriminator 6
 155 006c 0023     		movs	r3, #0
 156              	.LVL10:
 157              	@ 150 "../../os/hal/platforms/STM32/SPIv1/spi_lld.c" 1
 158 006e 83F31188 		msr     BASEPRI, r3
 159              	@ 0 "" 2
 160              	.LVL11:
 161              		.thumb
 162              	.LBE4:
 163              		.loc 1 151 0 is_stmt 1 discriminator 6
 164 0072 38BD     		pop	{r3, r4, r5, pc}
 165              	.LVL12:
 166              	.L9:
 167              		.loc 1 150 0 discriminator 2
 168 0074 0220     		movs	r0, #2
 169 0076 2070     		strb	r0, [r4, #0]
 170 0078 EDE7     		b	.L10
 171              	.LVL13:
ARM GAS  /tmp/cczy9E7S.s 			page 4


 172              	.L14:
 173              		.loc 1 138 0
 174 007a FFF7FEFF 		bl	port_halt
 175              	.LVL14:
 176 007e C4E7     		b	.L6
 177              		.cfi_endproc
 178              	.LFE118:
 179              		.size	spi_lld_serve_rx_interrupt, .-spi_lld_serve_rx_interrupt
 180              		.section	.text.spi_lld_init,"ax",%progbits
 181              		.align	2
 182              		.p2align 4,,15
 183              		.global	spi_lld_init
 184              		.thumb
 185              		.thumb_func
 186              		.type	spi_lld_init, %function
 187              	spi_lld_init:
 188              	.LFB120:
 189              		.loc 1 186 0
 190              		.cfi_startproc
 191              		@ args = 0, pretend = 0, frame = 0
 192              		@ frame_needed = 0, uses_anonymous_args = 0
 193 0000 38B5     		push	{r3, r4, r5, lr}
 194              	.LCFI1:
 195              		.cfi_def_cfa_offset 16
 196              		.cfi_offset 14, -4
 197              		.cfi_offset 5, -8
 198              		.cfi_offset 4, -12
 199              		.cfi_offset 3, -16
 200              		.loc 1 188 0
 201 0002 40F2000C 		movw	ip, #:lower16:.LANCHOR0
 202              		.loc 1 209 0
 203 0006 40F20004 		movw	r4, #:lower16:.LANCHOR1
 204 000a C0F20004 		movt	r4, #:upper16:.LANCHOR1
 205              		.loc 1 188 0
 206 000e C0F2000C 		movt	ip, #:upper16:.LANCHOR0
 207              		.loc 1 209 0
 208 0012 2046     		mov	r0, r4
 209              		.loc 1 188 0
 210 0014 4FF0FF35 		mov	r5, #-1	@ movhi
 211 0018 ACF80050 		strh	r5, [ip, #0]	@ movhi
 212              		.loc 1 209 0
 213 001c FFF7FEFF 		bl	spiObjectInit
 214              		.loc 1 211 0
 215 0020 0949     		ldr	r1, .L16
 216              		.loc 1 210 0
 217 0022 4FF46050 		mov	r0, #14336
 218              		.loc 1 213 0
 219 0026 1622     		movs	r2, #22
 220              		.loc 1 219 0
 221 0028 4623     		movs	r3, #70
 222              		.loc 1 210 0
 223 002a C4F20000 		movt	r0, 16384
 224              		.loc 1 212 0
 225 002e 01F10C05 		add	r5, r1, #12
 226              		.loc 1 213 0
 227 0032 C0F20102 		movt	r2, 1
 228              		.loc 1 219 0
ARM GAS  /tmp/cczy9E7S.s 			page 5


 229 0036 C0F20103 		movt	r3, 1
 230              		.loc 1 210 0
 231 003a E061     		str	r0, [r4, #28]
 232              		.loc 1 211 0
 233 003c 2162     		str	r1, [r4, #32]
 234              		.loc 1 212 0
 235 003e 6562     		str	r5, [r4, #36]
 236              		.loc 1 213 0
 237 0040 A262     		str	r2, [r4, #40]
 238              		.loc 1 219 0
 239 0042 E362     		str	r3, [r4, #44]
 240              		.loc 1 297 0
 241 0044 38BD     		pop	{r3, r4, r5, pc}
 242              	.L17:
 243 0046 00BF     		.align	2
 244              	.L16:
 245 0048 24000000 		.word	_stm32_dma_streams+36
 246              		.cfi_endproc
 247              	.LFE120:
 248              		.size	spi_lld_init, .-spi_lld_init
 249 004c AFF30080 		.section	.text.spi_lld_start,"ax",%progbits
 250              		.align	2
 251              		.p2align 4,,15
 252              		.global	spi_lld_start
 253              		.thumb
 254              		.thumb_func
 255              		.type	spi_lld_start, %function
 256              	spi_lld_start:
 257              	.LFB121:
 258              		.loc 1 306 0
 259              		.cfi_startproc
 260              		@ args = 0, pretend = 0, frame = 0
 261              		@ frame_needed = 0, uses_anonymous_args = 0
 262              	.LVL15:
 263              		.loc 1 309 0
 264 0000 0378     		ldrb	r3, [r0, #0]	@ zero_extendqisi2
 265 0002 012B     		cmp	r3, #1
 266              		.loc 1 306 0
 267 0004 10B5     		push	{r4, lr}
 268              	.LCFI2:
 269              		.cfi_def_cfa_offset 8
 270              		.cfi_offset 14, -4
 271              		.cfi_offset 4, -8
 272 0006 18BF     		it	ne
 273 0008 C369     		ldrne	r3, [r0, #28]
 274              		.loc 1 306 0
 275 000a 0446     		mov	r4, r0
 276              		.loc 1 309 0
 277 000c 1FD0     		beq	.L26
 278              	.LVL16:
 279              	.L19:
 280              		.loc 1 413 0
 281 000e 6068     		ldr	r0, [r4, #4]
 282              		.loc 1 416 0
 283 0010 A16A     		ldr	r1, [r4, #40]
 284              		.loc 1 413 0
 285 0012 B0F80AC0 		ldrh	ip, [r0, #10]
ARM GAS  /tmp/cczy9E7S.s 			page 6


 286              		.loc 1 418 0
 287 0016 E26A     		ldr	r2, [r4, #44]
 288              		.loc 1 413 0
 289 0018 1CF4006F 		tst	ip, #2048
 290              		.loc 1 416 0
 291 001c 21F4F040 		bic	r0, r1, #30720
 292              		.loc 1 418 0
 293 0020 22F4F041 		bic	r1, r2, #30720
 294              		.loc 1 423 0
 295 0024 1CBF     		itt	ne
 296 0026 40F42050 		orrne	r0, r0, #10240
 297              		.loc 1 425 0
 298 002a 41F42051 		orrne	r1, r1, #10240
 299              		.loc 1 422 0
 300 002e A062     		str	r0, [r4, #40]
 301              		.loc 1 424 0
 302 0030 E162     		str	r1, [r4, #44]
 303              		.loc 1 429 0
 304 0032 4CF44170 		orr	r0, ip, #772
 305              		.loc 1 428 0
 306 0036 0022     		movs	r2, #0
 307              		.loc 1 431 0
 308 0038 0721     		movs	r1, #7
 309              		.loc 1 428 0
 310 003a 1A80     		strh	r2, [r3, #0]	@ movhi
 311              		.loc 1 429 0
 312 003c 1880     		strh	r0, [r3, #0]	@ movhi
 313              		.loc 1 431 0
 314 003e 9980     		strh	r1, [r3, #4]	@ movhi
 315              		.loc 1 432 0
 316 0040 1A88     		ldrh	r2, [r3, #0]
 317 0042 1FFA82FC 		uxth	ip, r2
 318 0046 4CF04000 		orr	r0, ip, #64
 319 004a 1880     		strh	r0, [r3, #0]	@ movhi
 320              		.loc 1 433 0
 321 004c 10BD     		pop	{r4, pc}
 322              	.L26:
 323              		.loc 1 327 0
 324 004e 40F20003 		movw	r3, #:lower16:.LANCHOR1
 325 0052 C0F20003 		movt	r3, #:upper16:.LANCHOR1
 326 0056 9842     		cmp	r0, r3
 327 0058 09D0     		beq	.L27
 328              	.L20:
 329              		.loc 1 408 0
 330 005a 216A     		ldr	r1, [r4, #32]
 331              		.loc 1 409 0
 332 005c 626A     		ldr	r2, [r4, #36]
 333              		.loc 1 408 0
 334 005e E369     		ldr	r3, [r4, #28]
 335 0060 0868     		ldr	r0, [r1, #0]
 336              		.loc 1 409 0
 337 0062 1168     		ldr	r1, [r2, #0]
 338              		.loc 1 408 0
 339 0064 03F10C02 		add	r2, r3, #12
 340 0068 8260     		str	r2, [r0, #8]
 341              		.loc 1 409 0
 342 006a 8A60     		str	r2, [r1, #8]
ARM GAS  /tmp/cczy9E7S.s 			page 7


 343 006c CFE7     		b	.L19
 344              	.L27:
 345              	.LBB5:
 346              		.loc 1 329 0
 347 006e 40F20002 		movw	r2, #:lower16:spi_lld_serve_rx_interrupt
 348 0072 0346     		mov	r3, r0
 349 0074 0A21     		movs	r1, #10
 350 0076 C0F20002 		movt	r2, #:upper16:spi_lld_serve_rx_interrupt
 351 007a 006A     		ldr	r0, [r0, #32]
 352 007c FFF7FEFF 		bl	dmaStreamAllocate
 353              		.loc 1 334 0
 354 0080 40F20002 		movw	r2, #:lower16:spi_lld_serve_tx_interrupt
 355 0084 0A21     		movs	r1, #10
 356 0086 C0F20002 		movt	r2, #:upper16:spi_lld_serve_tx_interrupt
 357 008a 606A     		ldr	r0, [r4, #36]
 358 008c 2346     		mov	r3, r4
 359 008e FFF7FEFF 		bl	dmaStreamAllocate
 360              		.loc 1 339 0
 361 0092 4FF46050 		mov	r0, #14336
 362 0096 C4F20200 		movt	r0, 16386
 363 009a 016C     		ldr	r1, [r0, #64]
 364 009c 41F48042 		orr	r2, r1, #16384
 365 00a0 0264     		str	r2, [r0, #64]
 366 00a2 DAE7     		b	.L20
 367              	.LBE5:
 368              		.cfi_endproc
 369              	.LFE121:
 370              		.size	spi_lld_start, .-spi_lld_start
 371 00a4 AFF30080 		.section	.text.spi_lld_stop,"ax",%progbits
 371      AFF30080 
 371      AFF30080 
 372              		.align	2
 373              		.p2align 4,,15
 374              		.global	spi_lld_stop
 375              		.thumb
 376              		.thumb_func
 377              		.type	spi_lld_stop, %function
 378              	spi_lld_stop:
 379              	.LFB122:
 380              		.loc 1 442 0
 381              		.cfi_startproc
 382              		@ args = 0, pretend = 0, frame = 0
 383              		@ frame_needed = 0, uses_anonymous_args = 0
 384              	.LVL17:
 385              		.loc 1 445 0
 386 0000 0378     		ldrb	r3, [r0, #0]	@ zero_extendqisi2
 387 0002 022B     		cmp	r3, #2
 388              		.loc 1 442 0
 389 0004 10B5     		push	{r4, lr}
 390              	.LCFI3:
 391              		.cfi_def_cfa_offset 8
 392              		.cfi_offset 14, -4
 393              		.cfi_offset 4, -8
 394              		.loc 1 442 0
 395 0006 0446     		mov	r4, r0
 396              		.loc 1 445 0
 397 0008 00D0     		beq	.L30
ARM GAS  /tmp/cczy9E7S.s 			page 8


 398 000a 10BD     		pop	{r4, pc}
 399              	.L30:
 400              		.loc 1 448 0
 401 000c C369     		ldr	r3, [r0, #28]
 402              		.loc 1 450 0
 403 000e 006A     		ldr	r0, [r0, #32]
 404              	.LVL18:
 405              		.loc 1 448 0
 406 0010 0021     		movs	r1, #0
 407 0012 1980     		strh	r1, [r3, #0]	@ movhi
 408              		.loc 1 449 0
 409 0014 9980     		strh	r1, [r3, #4]	@ movhi
 410              		.loc 1 450 0
 411 0016 FFF7FEFF 		bl	dmaStreamRelease
 412              		.loc 1 451 0
 413 001a 606A     		ldr	r0, [r4, #36]
 414 001c FFF7FEFF 		bl	dmaStreamRelease
 415              		.loc 1 458 0
 416 0020 40F20000 		movw	r0, #:lower16:.LANCHOR1
 417 0024 C0F20000 		movt	r0, #:upper16:.LANCHOR1
 418 0028 8442     		cmp	r4, r0
 419              		.loc 1 459 0
 420 002a 01BF     		itttt	eq
 421 002c 4FF46050 		moveq	r0, #14336
 422 0030 C4F20200 		movteq	r0, 16386
 423 0034 026C     		ldreq	r2, [r0, #64]
 424 0036 22F48042 		biceq	r2, r2, #16384
 425 003a 08BF     		it	eq
 426 003c 0264     		streq	r2, [r0, #64]
 427 003e 10BD     		pop	{r4, pc}
 428              		.cfi_endproc
 429              	.LFE122:
 430              		.size	spi_lld_stop, .-spi_lld_stop
 431              		.section	.text.spi_lld_select,"ax",%progbits
 432              		.align	2
 433              		.p2align 4,,15
 434              		.global	spi_lld_select
 435              		.thumb
 436              		.thumb_func
 437              		.type	spi_lld_select, %function
 438              	spi_lld_select:
 439              	.LFB123:
 440              		.loc 1 487 0
 441              		.cfi_startproc
 442              		@ args = 0, pretend = 0, frame = 0
 443              		@ frame_needed = 0, uses_anonymous_args = 0
 444              		@ link register save eliminated.
 445              	.LVL19:
 446              		.loc 1 489 0
 447 0000 4268     		ldr	r2, [r0, #4]
 448 0002 1089     		ldrh	r0, [r2, #8]
 449              	.LVL20:
 450 0004 5368     		ldr	r3, [r2, #4]
 451 0006 0121     		movs	r1, #1
 452 0008 11FA00F2 		lsls	r2, r1, r0
 453 000c 5A83     		strh	r2, [r3, #26]	@ movhi
 454              		.loc 1 490 0
ARM GAS  /tmp/cczy9E7S.s 			page 9


 455 000e 7047     		bx	lr
 456              		.cfi_endproc
 457              	.LFE123:
 458              		.size	spi_lld_select, .-spi_lld_select
 459              		.section	.text.spi_lld_unselect,"ax",%progbits
 460              		.align	2
 461              		.p2align 4,,15
 462              		.global	spi_lld_unselect
 463              		.thumb
 464              		.thumb_func
 465              		.type	spi_lld_unselect, %function
 466              	spi_lld_unselect:
 467              	.LFB124:
 468              		.loc 1 500 0
 469              		.cfi_startproc
 470              		@ args = 0, pretend = 0, frame = 0
 471              		@ frame_needed = 0, uses_anonymous_args = 0
 472              		@ link register save eliminated.
 473              	.LVL21:
 474              		.loc 1 502 0
 475 0000 4268     		ldr	r2, [r0, #4]
 476 0002 1089     		ldrh	r0, [r2, #8]
 477              	.LVL22:
 478 0004 5368     		ldr	r3, [r2, #4]
 479 0006 0121     		movs	r1, #1
 480 0008 11FA00F2 		lsls	r2, r1, r0
 481 000c 1A83     		strh	r2, [r3, #24]	@ movhi
 482              		.loc 1 503 0
 483 000e 7047     		bx	lr
 484              		.cfi_endproc
 485              	.LFE124:
 486              		.size	spi_lld_unselect, .-spi_lld_unselect
 487              		.section	.text.spi_lld_ignore,"ax",%progbits
 488              		.align	2
 489              		.p2align 4,,15
 490              		.global	spi_lld_ignore
 491              		.thumb
 492              		.thumb_func
 493              		.type	spi_lld_ignore, %function
 494              	spi_lld_ignore:
 495              	.LFB125:
 496              		.loc 1 516 0
 497              		.cfi_startproc
 498              		@ args = 0, pretend = 0, frame = 0
 499              		@ frame_needed = 0, uses_anonymous_args = 0
 500              		@ link register save eliminated.
 501              	.LVL23:
 502 0000 70B4     		push	{r4, r5, r6}
 503              	.LCFI4:
 504              		.cfi_def_cfa_offset 12
 505              		.cfi_offset 6, -4
 506              		.cfi_offset 5, -8
 507              		.cfi_offset 4, -12
 508              		.loc 1 518 0
 509 0002 066A     		ldr	r6, [r0, #32]
 510              		.loc 1 522 0
 511 0004 456A     		ldr	r5, [r0, #36]
ARM GAS  /tmp/cczy9E7S.s 			page 10


 512              		.loc 1 518 0
 513 0006 3268     		ldr	r2, [r6, #0]
 514              		.loc 1 522 0
 515 0008 2B68     		ldr	r3, [r5, #0]
 516              		.loc 1 520 0
 517 000a 866A     		ldr	r6, [r0, #40]
 518              		.loc 1 524 0
 519 000c C56A     		ldr	r5, [r0, #44]
 520              		.loc 1 518 0
 521 000e 40F20004 		movw	r4, #:lower16:.LANCHOR2
 522              		.loc 1 522 0
 523 0012 40F20000 		movw	r0, #:lower16:.LANCHOR0
 524              	.LVL24:
 525 0016 C0F20000 		movt	r0, #:upper16:.LANCHOR0
 526              		.loc 1 518 0
 527 001a C0F20004 		movt	r4, #:upper16:.LANCHOR2
 528 001e D460     		str	r4, [r2, #12]
 529              		.loc 1 519 0
 530 0020 5160     		str	r1, [r2, #4]
 531              		.loc 1 520 0
 532 0022 1660     		str	r6, [r2, #0]
 533              		.loc 1 522 0
 534 0024 D860     		str	r0, [r3, #12]
 535              		.loc 1 523 0
 536 0026 5960     		str	r1, [r3, #4]
 537              		.loc 1 524 0
 538 0028 1D60     		str	r5, [r3, #0]
 539              		.loc 1 526 0
 540 002a 1068     		ldr	r0, [r2, #0]
 541 002c 40F00101 		orr	r1, r0, #1
 542              	.LVL25:
 543 0030 1160     		str	r1, [r2, #0]
 544              		.loc 1 527 0
 545 0032 1868     		ldr	r0, [r3, #0]
 546 0034 40F00102 		orr	r2, r0, #1
 547              	.LVL26:
 548 0038 1A60     		str	r2, [r3, #0]
 549              		.loc 1 528 0
 550 003a 70BC     		pop	{r4, r5, r6}
 551 003c 7047     		bx	lr
 552              		.cfi_endproc
 553              	.LFE125:
 554              		.size	spi_lld_ignore, .-spi_lld_ignore
 555 003e 00BF     		.section	.text.spi_lld_exchange,"ax",%progbits
 556              		.align	2
 557              		.p2align 4,,15
 558              		.global	spi_lld_exchange
 559              		.thumb
 560              		.thumb_func
 561              		.type	spi_lld_exchange, %function
 562              	spi_lld_exchange:
 563              	.LFB126:
 564              		.loc 1 546 0
 565              		.cfi_startproc
 566              		@ args = 0, pretend = 0, frame = 0
 567              		@ frame_needed = 0, uses_anonymous_args = 0
 568              		@ link register save eliminated.
ARM GAS  /tmp/cczy9E7S.s 			page 11


 569              	.LVL27:
 570 0000 F0B4     		push	{r4, r5, r6, r7}
 571              	.LCFI5:
 572              		.cfi_def_cfa_offset 16
 573              		.cfi_offset 7, -4
 574              		.cfi_offset 6, -8
 575              		.cfi_offset 5, -12
 576              		.cfi_offset 4, -16
 577              		.loc 1 548 0
 578 0002 046A     		ldr	r4, [r0, #32]
 579              		.loc 1 552 0
 580 0004 476A     		ldr	r7, [r0, #36]
 581              		.loc 1 550 0
 582 0006 866A     		ldr	r6, [r0, #40]
 583              		.loc 1 554 0
 584 0008 C56A     		ldr	r5, [r0, #44]
 585              		.loc 1 548 0
 586 000a 2468     		ldr	r4, [r4, #0]
 587              		.loc 1 552 0
 588 000c 3868     		ldr	r0, [r7, #0]
 589              	.LVL28:
 590              		.loc 1 548 0
 591 000e E360     		str	r3, [r4, #12]
 592              		.loc 1 550 0
 593 0010 46F48066 		orr	r6, r6, #1024
 594              		.loc 1 554 0
 595 0014 45F48065 		orr	r5, r5, #1024
 596              		.loc 1 549 0
 597 0018 6160     		str	r1, [r4, #4]
 598              		.loc 1 550 0
 599 001a 2660     		str	r6, [r4, #0]
 600              		.loc 1 552 0
 601 001c C260     		str	r2, [r0, #12]
 602              		.loc 1 553 0
 603 001e 4160     		str	r1, [r0, #4]
 604              		.loc 1 554 0
 605 0020 0560     		str	r5, [r0, #0]
 606              		.loc 1 556 0
 607 0022 2368     		ldr	r3, [r4, #0]
 608              	.LVL29:
 609 0024 43F00102 		orr	r2, r3, #1
 610              	.LVL30:
 611 0028 2260     		str	r2, [r4, #0]
 612              		.loc 1 557 0
 613 002a 0168     		ldr	r1, [r0, #0]
 614              	.LVL31:
 615 002c 41F00103 		orr	r3, r1, #1
 616 0030 0360     		str	r3, [r0, #0]
 617              		.loc 1 558 0
 618 0032 F0BC     		pop	{r4, r5, r6, r7}
 619 0034 7047     		bx	lr
 620              		.cfi_endproc
 621              	.LFE126:
 622              		.size	spi_lld_exchange, .-spi_lld_exchange
 623 0036 00BFAFF3 		.section	.text.spi_lld_send,"ax",%progbits
 623      0080AFF3 
 623      0080
ARM GAS  /tmp/cczy9E7S.s 			page 12


 624              		.align	2
 625              		.p2align 4,,15
 626              		.global	spi_lld_send
 627              		.thumb
 628              		.thumb_func
 629              		.type	spi_lld_send, %function
 630              	spi_lld_send:
 631              	.LFB127:
 632              		.loc 1 573 0
 633              		.cfi_startproc
 634              		@ args = 0, pretend = 0, frame = 0
 635              		@ frame_needed = 0, uses_anonymous_args = 0
 636              		@ link register save eliminated.
 637              	.LVL32:
 638 0000 70B4     		push	{r4, r5, r6}
 639              	.LCFI6:
 640              		.cfi_def_cfa_offset 12
 641              		.cfi_offset 6, -4
 642              		.cfi_offset 5, -8
 643              		.cfi_offset 4, -12
 644              		.loc 1 579 0
 645 0002 436A     		ldr	r3, [r0, #36]
 646              		.loc 1 575 0
 647 0004 046A     		ldr	r4, [r0, #32]
 648              		.loc 1 581 0
 649 0006 C66A     		ldr	r6, [r0, #44]
 650              		.loc 1 575 0
 651 0008 2468     		ldr	r4, [r4, #0]
 652              		.loc 1 577 0
 653 000a 806A     		ldr	r0, [r0, #40]
 654              	.LVL33:
 655              		.loc 1 579 0
 656 000c 1B68     		ldr	r3, [r3, #0]
 657              		.loc 1 575 0
 658 000e 40F20005 		movw	r5, #:lower16:.LANCHOR2
 659 0012 C0F20005 		movt	r5, #:upper16:.LANCHOR2
 660              		.loc 1 581 0
 661 0016 46F48066 		orr	r6, r6, #1024
 662              		.loc 1 575 0
 663 001a E560     		str	r5, [r4, #12]
 664              		.loc 1 576 0
 665 001c 6160     		str	r1, [r4, #4]
 666              		.loc 1 577 0
 667 001e 2060     		str	r0, [r4, #0]
 668              		.loc 1 579 0
 669 0020 DA60     		str	r2, [r3, #12]
 670              		.loc 1 580 0
 671 0022 5960     		str	r1, [r3, #4]
 672              		.loc 1 581 0
 673 0024 1E60     		str	r6, [r3, #0]
 674              		.loc 1 583 0
 675 0026 2268     		ldr	r2, [r4, #0]
 676              	.LVL34:
 677 0028 42F00101 		orr	r1, r2, #1
 678              	.LVL35:
 679 002c 2160     		str	r1, [r4, #0]
 680              		.loc 1 584 0
ARM GAS  /tmp/cczy9E7S.s 			page 13


 681 002e 1868     		ldr	r0, [r3, #0]
 682 0030 40F00102 		orr	r2, r0, #1
 683 0034 1A60     		str	r2, [r3, #0]
 684              		.loc 1 585 0
 685 0036 70BC     		pop	{r4, r5, r6}
 686 0038 7047     		bx	lr
 687              		.cfi_endproc
 688              	.LFE127:
 689              		.size	spi_lld_send, .-spi_lld_send
 690 003a 00BFAFF3 		.section	.text.spi_lld_receive,"ax",%progbits
 690      0080
 691              		.align	2
 692              		.p2align 4,,15
 693              		.global	spi_lld_receive
 694              		.thumb
 695              		.thumb_func
 696              		.type	spi_lld_receive, %function
 697              	spi_lld_receive:
 698              	.LFB128:
 699              		.loc 1 600 0
 700              		.cfi_startproc
 701              		@ args = 0, pretend = 0, frame = 0
 702              		@ frame_needed = 0, uses_anonymous_args = 0
 703              		@ link register save eliminated.
 704              	.LVL36:
 705 0000 70B4     		push	{r4, r5, r6}
 706              	.LCFI7:
 707              		.cfi_def_cfa_offset 12
 708              		.cfi_offset 6, -4
 709              		.cfi_offset 5, -8
 710              		.cfi_offset 4, -12
 711              		.loc 1 606 0
 712 0002 436A     		ldr	r3, [r0, #36]
 713              		.loc 1 602 0
 714 0004 046A     		ldr	r4, [r0, #32]
 715              		.loc 1 604 0
 716 0006 866A     		ldr	r6, [r0, #40]
 717              		.loc 1 602 0
 718 0008 2468     		ldr	r4, [r4, #0]
 719              		.loc 1 606 0
 720 000a 1B68     		ldr	r3, [r3, #0]
 721              		.loc 1 608 0
 722 000c C06A     		ldr	r0, [r0, #44]
 723              	.LVL37:
 724              		.loc 1 602 0
 725 000e E260     		str	r2, [r4, #12]
 726              		.loc 1 606 0
 727 0010 40F20005 		movw	r5, #:lower16:.LANCHOR0
 728              		.loc 1 604 0
 729 0014 46F48066 		orr	r6, r6, #1024
 730              		.loc 1 606 0
 731 0018 C0F20005 		movt	r5, #:upper16:.LANCHOR0
 732              		.loc 1 603 0
 733 001c 6160     		str	r1, [r4, #4]
 734              		.loc 1 604 0
 735 001e 2660     		str	r6, [r4, #0]
 736              		.loc 1 606 0
ARM GAS  /tmp/cczy9E7S.s 			page 14


 737 0020 DD60     		str	r5, [r3, #12]
 738              		.loc 1 607 0
 739 0022 5960     		str	r1, [r3, #4]
 740              		.loc 1 608 0
 741 0024 1860     		str	r0, [r3, #0]
 742              		.loc 1 610 0
 743 0026 2268     		ldr	r2, [r4, #0]
 744              	.LVL38:
 745 0028 42F00101 		orr	r1, r2, #1
 746              	.LVL39:
 747 002c 2160     		str	r1, [r4, #0]
 748              		.loc 1 611 0
 749 002e 1868     		ldr	r0, [r3, #0]
 750 0030 40F00102 		orr	r2, r0, #1
 751 0034 1A60     		str	r2, [r3, #0]
 752              		.loc 1 612 0
 753 0036 70BC     		pop	{r4, r5, r6}
 754 0038 7047     		bx	lr
 755              		.cfi_endproc
 756              	.LFE128:
 757              		.size	spi_lld_receive, .-spi_lld_receive
 758 003a 00BFAFF3 		.section	.text.spi_lld_polled_exchange,"ax",%progbits
 758      0080
 759              		.align	2
 760              		.p2align 4,,15
 761              		.global	spi_lld_polled_exchange
 762              		.thumb
 763              		.thumb_func
 764              		.type	spi_lld_polled_exchange, %function
 765              	spi_lld_polled_exchange:
 766              	.LFB129:
 767              		.loc 1 626 0
 768              		.cfi_startproc
 769              		@ args = 0, pretend = 0, frame = 0
 770              		@ frame_needed = 0, uses_anonymous_args = 0
 771              		@ link register save eliminated.
 772              	.LVL40:
 773              		.loc 1 628 0
 774 0000 C369     		ldr	r3, [r0, #28]
 775 0002 9981     		strh	r1, [r3, #12]	@ movhi
 776              	.L38:
 777              		.loc 1 629 0 discriminator 1
 778 0004 1A89     		ldrh	r2, [r3, #8]
 779 0006 D207     		lsls	r2, r2, #31
 780 0008 FCD5     		bpl	.L38
 781              		.loc 1 631 0
 782 000a 9889     		ldrh	r0, [r3, #12]
 783              	.LVL41:
 784              		.loc 1 632 0
 785 000c 80B2     		uxth	r0, r0
 786 000e 7047     		bx	lr
 787              		.cfi_endproc
 788              	.LFE129:
 789              		.size	spi_lld_polled_exchange, .-spi_lld_polled_exchange
 790              		.global	SPID2
 791              		.section	.bss.dummytx,"aw",%nobits
 792              		.align	1
ARM GAS  /tmp/cczy9E7S.s 			page 15


 793              		.set	.LANCHOR0,. + 0
 794              		.type	dummytx, %object
 795              		.size	dummytx, 2
 796              	dummytx:
 797 0000 0000     		.space	2
 798              		.section	.bss.SPID2,"aw",%nobits
 799              		.align	2
 800              		.set	.LANCHOR1,. + 0
 801              		.type	SPID2, %object
 802              		.size	SPID2, 48
 803              	SPID2:
 804 0000 00000000 		.space	48
 804      00000000 
 804      00000000 
 804      00000000 
 804      00000000 
 805              		.section	.bss.dummyrx,"aw",%nobits
 806              		.align	1
 807              		.set	.LANCHOR2,. + 0
 808              		.type	dummyrx, %object
 809              		.size	dummyrx, 2
 810              	dummyrx:
 811 0000 0000     		.space	2
 812              		.text
 813              	.Letext0:
 814              		.file 2 "/home/lithium/Documents/arm-2011q3/bin/../lib/gcc/arm-none-eabi/4.6.1/include/stddef.h"
 815              		.file 3 "/home/lithium/Documents/arm-2011q3/bin/../lib/gcc/arm-none-eabi/4.6.1/../../../../arm-non
 816              		.file 4 "../../os/ports/GCC/ARMCMx/chtypes.h"
 817              		.file 5 "../../os/kernel/include/chlists.h"
 818              		.file 6 "../../os/kernel/include/chthreads.h"
 819              		.file 7 "../../os/ports/GCC/ARMCMx/chcore_v7m.h"
 820              		.file 8 "../../os/kernel/include/chmtx.h"
 821              		.file 9 "../../os/hal/platforms/STM32F4xx/stm32f4xx.h"
 822              		.file 10 "../../os/hal/platforms/STM32F4xx/stm32_dma.h"
 823              		.file 11 "../../os/hal/platforms/STM32/GPIOv2/pal_lld.h"
 824              		.file 12 "../../os/hal/include/spi.h"
 825              		.file 13 "../../os/hal/platforms/STM32/SPIv1/spi_lld.h"
 826              		.file 14 "../../os/ports/common/ARMCMx/CMSIS/include/core_cm4.h"