ARM GAS  /tmp/cceNd3kL.s 			page 1


   1              		.syntax unified
   2              		.cpu cortex-m4
   3              		.fpu softvfp
   4              		.eabi_attribute 20, 1
   5              		.eabi_attribute 21, 1
   6              		.eabi_attribute 23, 3
   7              		.eabi_attribute 24, 1
   8              		.eabi_attribute 25, 1
   9              		.eabi_attribute 26, 1
  10              		.eabi_attribute 30, 2
  11              		.eabi_attribute 34, 1
  12              		.eabi_attribute 18, 4
  13              		.thumb
  14              		.file	"stm32_dma.c"
  15              		.text
  16              	.Ltext0:
  17              		.cfi_sections	.debug_frame
  18              		.section	.text.Vector6C,"ax",%progbits
  19              		.align	2
  20              		.p2align 4,,15
  21              		.global	Vector6C
  22              		.thumb
  23              		.thumb_func
  24              		.type	Vector6C, %function
  25              	Vector6C:
  26              	.LFB118:
  27              		.file 1 "../../os/hal/platforms/STM32F4xx/stm32_dma.c"
  28              		.loc 1 128 0
  29              		.cfi_startproc
  30              		@ args = 0, pretend = 0, frame = 0
  31              		@ frame_needed = 0, uses_anonymous_args = 0
  32              		.loc 1 133 0
  33 0000 4FF4C040 		mov	r0, #24576
  34 0004 C4F20200 		movt	r0, 16386
  35              		.loc 1 135 0
  36 0008 40F20002 		movw	r2, #:lower16:.LANCHOR0
  37 000c C0F20002 		movt	r2, #:upper16:.LANCHOR0
  38              		.loc 1 133 0
  39 0010 0168     		ldr	r1, [r0, #0]
  40              		.loc 1 128 0
  41 0012 08B5     		push	{r3, lr}
  42              	.LCFI0:
  43              		.cfi_def_cfa_offset 8
  44              		.cfi_offset 14, -4
  45              		.cfi_offset 3, -8
  46              		.loc 1 135 0
  47 0014 1368     		ldr	r3, [r2, #0]
  48              		.loc 1 133 0
  49 0016 01F03D01 		and	r1, r1, #61
  50              	.LVL0:
  51              		.loc 1 134 0
  52 001a 8160     		str	r1, [r0, #8]
  53              		.loc 1 135 0
  54 001c 0BB1     		cbz	r3, .L2
  55              		.loc 1 136 0
  56 001e 5068     		ldr	r0, [r2, #4]
  57 0020 9847     		blx	r3
ARM GAS  /tmp/cceNd3kL.s 			page 2


  58              	.LVL1:
  59              	.L2:
  60              		.loc 1 139 0
  61 0022 BDE80840 		pop	{r3, lr}
  62              		.loc 1 138 0
  63 0026 FFF7FEBF 		b	_port_irq_epilogue
  64              		.cfi_endproc
  65              	.LFE118:
  66              		.size	Vector6C, .-Vector6C
  67 002a 00BFAFF3 		.section	.text.Vector70,"ax",%progbits
  67      0080
  68              		.align	2
  69              		.p2align 4,,15
  70              		.global	Vector70
  71              		.thumb
  72              		.thumb_func
  73              		.type	Vector70, %function
  74              	Vector70:
  75              	.LFB119:
  76              		.loc 1 146 0
  77              		.cfi_startproc
  78              		@ args = 0, pretend = 0, frame = 0
  79              		@ frame_needed = 0, uses_anonymous_args = 0
  80              		.loc 1 151 0
  81 0000 4FF4C040 		mov	r0, #24576
  82 0004 C4F20200 		movt	r0, 16386
  83              		.loc 1 153 0
  84 0008 40F20002 		movw	r2, #:lower16:.LANCHOR0
  85              		.loc 1 151 0
  86 000c 0368     		ldr	r3, [r0, #0]
  87              		.loc 1 153 0
  88 000e C0F20002 		movt	r2, #:upper16:.LANCHOR0
  89              		.loc 1 151 0
  90 0012 9909     		lsrs	r1, r3, #6
  91 0014 01F03D01 		and	r1, r1, #61
  92              	.LVL2:
  93              		.loc 1 153 0
  94 0018 9368     		ldr	r3, [r2, #8]
  95              		.loc 1 146 0
  96 001a 10B5     		push	{r4, lr}
  97              	.LCFI1:
  98              		.cfi_def_cfa_offset 8
  99              		.cfi_offset 14, -4
 100              		.cfi_offset 4, -8
 101              		.loc 1 152 0
 102 001c 8C01     		lsls	r4, r1, #6
 103 001e 8460     		str	r4, [r0, #8]
 104              		.loc 1 153 0
 105 0020 0BB1     		cbz	r3, .L5
 106              		.loc 1 154 0
 107 0022 D068     		ldr	r0, [r2, #12]
 108 0024 9847     		blx	r3
 109              	.LVL3:
 110              	.L5:
 111              		.loc 1 157 0
 112 0026 BDE81040 		pop	{r4, lr}
 113              		.loc 1 156 0
ARM GAS  /tmp/cceNd3kL.s 			page 3


 114 002a FFF7FEBF 		b	_port_irq_epilogue
 115              		.cfi_endproc
 116              	.LFE119:
 117              		.size	Vector70, .-Vector70
 118 002e 00BF     		.section	.text.Vector74,"ax",%progbits
 119              		.align	2
 120              		.p2align 4,,15
 121              		.global	Vector74
 122              		.thumb
 123              		.thumb_func
 124              		.type	Vector74, %function
 125              	Vector74:
 126              	.LFB120:
 127              		.loc 1 164 0
 128              		.cfi_startproc
 129              		@ args = 0, pretend = 0, frame = 0
 130              		@ frame_needed = 0, uses_anonymous_args = 0
 131              		.loc 1 169 0
 132 0000 4FF4C040 		mov	r0, #24576
 133 0004 C4F20200 		movt	r0, 16386
 134              		.loc 1 171 0
 135 0008 40F20002 		movw	r2, #:lower16:.LANCHOR0
 136              		.loc 1 169 0
 137 000c 0368     		ldr	r3, [r0, #0]
 138              		.loc 1 171 0
 139 000e C0F20002 		movt	r2, #:upper16:.LANCHOR0
 140              		.loc 1 169 0
 141 0012 190C     		lsrs	r1, r3, #16
 142 0014 01F03D01 		and	r1, r1, #61
 143              	.LVL4:
 144              		.loc 1 171 0
 145 0018 1369     		ldr	r3, [r2, #16]
 146              		.loc 1 164 0
 147 001a 10B5     		push	{r4, lr}
 148              	.LCFI2:
 149              		.cfi_def_cfa_offset 8
 150              		.cfi_offset 14, -4
 151              		.cfi_offset 4, -8
 152              		.loc 1 170 0
 153 001c 0C04     		lsls	r4, r1, #16
 154 001e 8460     		str	r4, [r0, #8]
 155              		.loc 1 171 0
 156 0020 0BB1     		cbz	r3, .L7
 157              		.loc 1 172 0
 158 0022 5069     		ldr	r0, [r2, #20]
 159 0024 9847     		blx	r3
 160              	.LVL5:
 161              	.L7:
 162              		.loc 1 175 0
 163 0026 BDE81040 		pop	{r4, lr}
 164              		.loc 1 174 0
 165 002a FFF7FEBF 		b	_port_irq_epilogue
 166              		.cfi_endproc
 167              	.LFE120:
 168              		.size	Vector74, .-Vector74
 169 002e 00BF     		.section	.text.Vector78,"ax",%progbits
 170              		.align	2
ARM GAS  /tmp/cceNd3kL.s 			page 4


 171              		.p2align 4,,15
 172              		.global	Vector78
 173              		.thumb
 174              		.thumb_func
 175              		.type	Vector78, %function
 176              	Vector78:
 177              	.LFB121:
 178              		.loc 1 182 0
 179              		.cfi_startproc
 180              		@ args = 0, pretend = 0, frame = 0
 181              		@ frame_needed = 0, uses_anonymous_args = 0
 182              		.loc 1 187 0
 183 0000 4FF4C040 		mov	r0, #24576
 184 0004 C4F20200 		movt	r0, 16386
 185              		.loc 1 189 0
 186 0008 40F20002 		movw	r2, #:lower16:.LANCHOR0
 187              		.loc 1 187 0
 188 000c 0368     		ldr	r3, [r0, #0]
 189              		.loc 1 189 0
 190 000e C0F20002 		movt	r2, #:upper16:.LANCHOR0
 191              		.loc 1 187 0
 192 0012 990D     		lsrs	r1, r3, #22
 193 0014 01F03D01 		and	r1, r1, #61
 194              	.LVL6:
 195              		.loc 1 189 0
 196 0018 9369     		ldr	r3, [r2, #24]
 197              		.loc 1 182 0
 198 001a 10B5     		push	{r4, lr}
 199              	.LCFI3:
 200              		.cfi_def_cfa_offset 8
 201              		.cfi_offset 14, -4
 202              		.cfi_offset 4, -8
 203              		.loc 1 188 0
 204 001c 8C05     		lsls	r4, r1, #22
 205 001e 8460     		str	r4, [r0, #8]
 206              		.loc 1 189 0
 207 0020 0BB1     		cbz	r3, .L9
 208              		.loc 1 190 0
 209 0022 D069     		ldr	r0, [r2, #28]
 210 0024 9847     		blx	r3
 211              	.LVL7:
 212              	.L9:
 213              		.loc 1 193 0
 214 0026 BDE81040 		pop	{r4, lr}
 215              		.loc 1 192 0
 216 002a FFF7FEBF 		b	_port_irq_epilogue
 217              		.cfi_endproc
 218              	.LFE121:
 219              		.size	Vector78, .-Vector78
 220 002e 00BF     		.section	.text.Vector7C,"ax",%progbits
 221              		.align	2
 222              		.p2align 4,,15
 223              		.global	Vector7C
 224              		.thumb
 225              		.thumb_func
 226              		.type	Vector7C, %function
 227              	Vector7C:
ARM GAS  /tmp/cceNd3kL.s 			page 5


 228              	.LFB122:
 229              		.loc 1 200 0
 230              		.cfi_startproc
 231              		@ args = 0, pretend = 0, frame = 0
 232              		@ frame_needed = 0, uses_anonymous_args = 0
 233              		.loc 1 205 0
 234 0000 4FF4C040 		mov	r0, #24576
 235 0004 C4F20200 		movt	r0, 16386
 236              		.loc 1 207 0
 237 0008 40F20002 		movw	r2, #:lower16:.LANCHOR0
 238 000c C0F20002 		movt	r2, #:upper16:.LANCHOR0
 239              		.loc 1 205 0
 240 0010 4168     		ldr	r1, [r0, #4]
 241              		.loc 1 200 0
 242 0012 08B5     		push	{r3, lr}
 243              	.LCFI4:
 244              		.cfi_def_cfa_offset 8
 245              		.cfi_offset 14, -4
 246              		.cfi_offset 3, -8
 247              		.loc 1 207 0
 248 0014 136A     		ldr	r3, [r2, #32]
 249              		.loc 1 205 0
 250 0016 01F03D01 		and	r1, r1, #61
 251              	.LVL8:
 252              		.loc 1 206 0
 253 001a C160     		str	r1, [r0, #12]
 254              		.loc 1 207 0
 255 001c 0BB1     		cbz	r3, .L11
 256              		.loc 1 208 0
 257 001e 506A     		ldr	r0, [r2, #36]
 258 0020 9847     		blx	r3
 259              	.LVL9:
 260              	.L11:
 261              		.loc 1 211 0
 262 0022 BDE80840 		pop	{r3, lr}
 263              		.loc 1 210 0
 264 0026 FFF7FEBF 		b	_port_irq_epilogue
 265              		.cfi_endproc
 266              	.LFE122:
 267              		.size	Vector7C, .-Vector7C
 268 002a 00BFAFF3 		.section	.text.Vector80,"ax",%progbits
 268      0080
 269              		.align	2
 270              		.p2align 4,,15
 271              		.global	Vector80
 272              		.thumb
 273              		.thumb_func
 274              		.type	Vector80, %function
 275              	Vector80:
 276              	.LFB123:
 277              		.loc 1 218 0
 278              		.cfi_startproc
 279              		@ args = 0, pretend = 0, frame = 0
 280              		@ frame_needed = 0, uses_anonymous_args = 0
 281              		.loc 1 223 0
 282 0000 4FF4C040 		mov	r0, #24576
 283 0004 C4F20200 		movt	r0, 16386
ARM GAS  /tmp/cceNd3kL.s 			page 6


 284              		.loc 1 225 0
 285 0008 40F20002 		movw	r2, #:lower16:.LANCHOR0
 286              		.loc 1 223 0
 287 000c 4368     		ldr	r3, [r0, #4]
 288              		.loc 1 225 0
 289 000e C0F20002 		movt	r2, #:upper16:.LANCHOR0
 290              		.loc 1 223 0
 291 0012 9909     		lsrs	r1, r3, #6
 292 0014 01F03D01 		and	r1, r1, #61
 293              	.LVL10:
 294              		.loc 1 225 0
 295 0018 936A     		ldr	r3, [r2, #40]
 296              		.loc 1 218 0
 297 001a 10B5     		push	{r4, lr}
 298              	.LCFI5:
 299              		.cfi_def_cfa_offset 8
 300              		.cfi_offset 14, -4
 301              		.cfi_offset 4, -8
 302              		.loc 1 224 0
 303 001c 8C01     		lsls	r4, r1, #6
 304 001e C460     		str	r4, [r0, #12]
 305              		.loc 1 225 0
 306 0020 0BB1     		cbz	r3, .L13
 307              		.loc 1 226 0
 308 0022 D06A     		ldr	r0, [r2, #44]
 309 0024 9847     		blx	r3
 310              	.LVL11:
 311              	.L13:
 312              		.loc 1 229 0
 313 0026 BDE81040 		pop	{r4, lr}
 314              		.loc 1 228 0
 315 002a FFF7FEBF 		b	_port_irq_epilogue
 316              		.cfi_endproc
 317              	.LFE123:
 318              		.size	Vector80, .-Vector80
 319 002e 00BF     		.section	.text.Vector84,"ax",%progbits
 320              		.align	2
 321              		.p2align 4,,15
 322              		.global	Vector84
 323              		.thumb
 324              		.thumb_func
 325              		.type	Vector84, %function
 326              	Vector84:
 327              	.LFB124:
 328              		.loc 1 236 0
 329              		.cfi_startproc
 330              		@ args = 0, pretend = 0, frame = 0
 331              		@ frame_needed = 0, uses_anonymous_args = 0
 332              		.loc 1 241 0
 333 0000 4FF4C040 		mov	r0, #24576
 334 0004 C4F20200 		movt	r0, 16386
 335              		.loc 1 243 0
 336 0008 40F20002 		movw	r2, #:lower16:.LANCHOR0
 337              		.loc 1 241 0
 338 000c 4368     		ldr	r3, [r0, #4]
 339              		.loc 1 243 0
 340 000e C0F20002 		movt	r2, #:upper16:.LANCHOR0
ARM GAS  /tmp/cceNd3kL.s 			page 7


 341              		.loc 1 241 0
 342 0012 190C     		lsrs	r1, r3, #16
 343 0014 01F03D01 		and	r1, r1, #61
 344              	.LVL12:
 345              		.loc 1 243 0
 346 0018 136B     		ldr	r3, [r2, #48]
 347              		.loc 1 236 0
 348 001a 10B5     		push	{r4, lr}
 349              	.LCFI6:
 350              		.cfi_def_cfa_offset 8
 351              		.cfi_offset 14, -4
 352              		.cfi_offset 4, -8
 353              		.loc 1 242 0
 354 001c 0C04     		lsls	r4, r1, #16
 355 001e C460     		str	r4, [r0, #12]
 356              		.loc 1 243 0
 357 0020 0BB1     		cbz	r3, .L15
 358              		.loc 1 244 0
 359 0022 506B     		ldr	r0, [r2, #52]
 360 0024 9847     		blx	r3
 361              	.LVL13:
 362              	.L15:
 363              		.loc 1 247 0
 364 0026 BDE81040 		pop	{r4, lr}
 365              		.loc 1 246 0
 366 002a FFF7FEBF 		b	_port_irq_epilogue
 367              		.cfi_endproc
 368              	.LFE124:
 369              		.size	Vector84, .-Vector84
 370 002e 00BF     		.section	.text.VectorFC,"ax",%progbits
 371              		.align	2
 372              		.p2align 4,,15
 373              		.global	VectorFC
 374              		.thumb
 375              		.thumb_func
 376              		.type	VectorFC, %function
 377              	VectorFC:
 378              	.LFB125:
 379              		.loc 1 254 0
 380              		.cfi_startproc
 381              		@ args = 0, pretend = 0, frame = 0
 382              		@ frame_needed = 0, uses_anonymous_args = 0
 383              		.loc 1 259 0
 384 0000 4FF4C040 		mov	r0, #24576
 385 0004 C4F20200 		movt	r0, 16386
 386              		.loc 1 261 0
 387 0008 40F20002 		movw	r2, #:lower16:.LANCHOR0
 388              		.loc 1 259 0
 389 000c 4368     		ldr	r3, [r0, #4]
 390              		.loc 1 261 0
 391 000e C0F20002 		movt	r2, #:upper16:.LANCHOR0
 392              		.loc 1 259 0
 393 0012 990D     		lsrs	r1, r3, #22
 394 0014 01F03D01 		and	r1, r1, #61
 395              	.LVL14:
 396              		.loc 1 261 0
 397 0018 936B     		ldr	r3, [r2, #56]
ARM GAS  /tmp/cceNd3kL.s 			page 8


 398              		.loc 1 254 0
 399 001a 10B5     		push	{r4, lr}
 400              	.LCFI7:
 401              		.cfi_def_cfa_offset 8
 402              		.cfi_offset 14, -4
 403              		.cfi_offset 4, -8
 404              		.loc 1 260 0
 405 001c 8C05     		lsls	r4, r1, #22
 406 001e C460     		str	r4, [r0, #12]
 407              		.loc 1 261 0
 408 0020 0BB1     		cbz	r3, .L17
 409              		.loc 1 262 0
 410 0022 D06B     		ldr	r0, [r2, #60]
 411 0024 9847     		blx	r3
 412              	.LVL15:
 413              	.L17:
 414              		.loc 1 265 0
 415 0026 BDE81040 		pop	{r4, lr}
 416              		.loc 1 264 0
 417 002a FFF7FEBF 		b	_port_irq_epilogue
 418              		.cfi_endproc
 419              	.LFE125:
 420              		.size	VectorFC, .-VectorFC
 421 002e 00BF     		.section	.text.Vector120,"ax",%progbits
 422              		.align	2
 423              		.p2align 4,,15
 424              		.global	Vector120
 425              		.thumb
 426              		.thumb_func
 427              		.type	Vector120, %function
 428              	Vector120:
 429              	.LFB126:
 430              		.loc 1 272 0
 431              		.cfi_startproc
 432              		@ args = 0, pretend = 0, frame = 0
 433              		@ frame_needed = 0, uses_anonymous_args = 0
 434              		.loc 1 277 0
 435 0000 4FF4C840 		mov	r0, #25600
 436 0004 C4F20200 		movt	r0, 16386
 437              		.loc 1 279 0
 438 0008 40F20002 		movw	r2, #:lower16:.LANCHOR0
 439 000c C0F20002 		movt	r2, #:upper16:.LANCHOR0
 440              		.loc 1 277 0
 441 0010 0168     		ldr	r1, [r0, #0]
 442              		.loc 1 272 0
 443 0012 08B5     		push	{r3, lr}
 444              	.LCFI8:
 445              		.cfi_def_cfa_offset 8
 446              		.cfi_offset 14, -4
 447              		.cfi_offset 3, -8
 448              		.loc 1 279 0
 449 0014 136C     		ldr	r3, [r2, #64]
 450              		.loc 1 277 0
 451 0016 01F03D01 		and	r1, r1, #61
 452              	.LVL16:
 453              		.loc 1 278 0
 454 001a 8160     		str	r1, [r0, #8]
ARM GAS  /tmp/cceNd3kL.s 			page 9


 455              		.loc 1 279 0
 456 001c 0BB1     		cbz	r3, .L19
 457              		.loc 1 280 0
 458 001e 506C     		ldr	r0, [r2, #68]
 459 0020 9847     		blx	r3
 460              	.LVL17:
 461              	.L19:
 462              		.loc 1 283 0
 463 0022 BDE80840 		pop	{r3, lr}
 464              		.loc 1 282 0
 465 0026 FFF7FEBF 		b	_port_irq_epilogue
 466              		.cfi_endproc
 467              	.LFE126:
 468              		.size	Vector120, .-Vector120
 469 002a 00BFAFF3 		.section	.text.Vector124,"ax",%progbits
 469      0080
 470              		.align	2
 471              		.p2align 4,,15
 472              		.global	Vector124
 473              		.thumb
 474              		.thumb_func
 475              		.type	Vector124, %function
 476              	Vector124:
 477              	.LFB127:
 478              		.loc 1 290 0
 479              		.cfi_startproc
 480              		@ args = 0, pretend = 0, frame = 0
 481              		@ frame_needed = 0, uses_anonymous_args = 0
 482              		.loc 1 295 0
 483 0000 4FF4C840 		mov	r0, #25600
 484 0004 C4F20200 		movt	r0, 16386
 485              		.loc 1 297 0
 486 0008 40F20002 		movw	r2, #:lower16:.LANCHOR0
 487              		.loc 1 295 0
 488 000c 0368     		ldr	r3, [r0, #0]
 489              		.loc 1 297 0
 490 000e C0F20002 		movt	r2, #:upper16:.LANCHOR0
 491              		.loc 1 295 0
 492 0012 9909     		lsrs	r1, r3, #6
 493 0014 01F03D01 		and	r1, r1, #61
 494              	.LVL18:
 495              		.loc 1 297 0
 496 0018 936C     		ldr	r3, [r2, #72]
 497              		.loc 1 290 0
 498 001a 10B5     		push	{r4, lr}
 499              	.LCFI9:
 500              		.cfi_def_cfa_offset 8
 501              		.cfi_offset 14, -4
 502              		.cfi_offset 4, -8
 503              		.loc 1 296 0
 504 001c 8C01     		lsls	r4, r1, #6
 505 001e 8460     		str	r4, [r0, #8]
 506              		.loc 1 297 0
 507 0020 0BB1     		cbz	r3, .L21
 508              		.loc 1 298 0
 509 0022 D06C     		ldr	r0, [r2, #76]
 510 0024 9847     		blx	r3
ARM GAS  /tmp/cceNd3kL.s 			page 10


 511              	.LVL19:
 512              	.L21:
 513              		.loc 1 301 0
 514 0026 BDE81040 		pop	{r4, lr}
 515              		.loc 1 300 0
 516 002a FFF7FEBF 		b	_port_irq_epilogue
 517              		.cfi_endproc
 518              	.LFE127:
 519              		.size	Vector124, .-Vector124
 520 002e 00BF     		.section	.text.Vector128,"ax",%progbits
 521              		.align	2
 522              		.p2align 4,,15
 523              		.global	Vector128
 524              		.thumb
 525              		.thumb_func
 526              		.type	Vector128, %function
 527              	Vector128:
 528              	.LFB128:
 529              		.loc 1 308 0
 530              		.cfi_startproc
 531              		@ args = 0, pretend = 0, frame = 0
 532              		@ frame_needed = 0, uses_anonymous_args = 0
 533              		.loc 1 313 0
 534 0000 4FF4C840 		mov	r0, #25600
 535 0004 C4F20200 		movt	r0, 16386
 536              		.loc 1 315 0
 537 0008 40F20002 		movw	r2, #:lower16:.LANCHOR0
 538              		.loc 1 313 0
 539 000c 0368     		ldr	r3, [r0, #0]
 540              		.loc 1 315 0
 541 000e C0F20002 		movt	r2, #:upper16:.LANCHOR0
 542              		.loc 1 313 0
 543 0012 190C     		lsrs	r1, r3, #16
 544 0014 01F03D01 		and	r1, r1, #61
 545              	.LVL20:
 546              		.loc 1 315 0
 547 0018 136D     		ldr	r3, [r2, #80]
 548              		.loc 1 308 0
 549 001a 10B5     		push	{r4, lr}
 550              	.LCFI10:
 551              		.cfi_def_cfa_offset 8
 552              		.cfi_offset 14, -4
 553              		.cfi_offset 4, -8
 554              		.loc 1 314 0
 555 001c 0C04     		lsls	r4, r1, #16
 556 001e 8460     		str	r4, [r0, #8]
 557              		.loc 1 315 0
 558 0020 0BB1     		cbz	r3, .L23
 559              		.loc 1 316 0
 560 0022 506D     		ldr	r0, [r2, #84]
 561 0024 9847     		blx	r3
 562              	.LVL21:
 563              	.L23:
 564              		.loc 1 319 0
 565 0026 BDE81040 		pop	{r4, lr}
 566              		.loc 1 318 0
 567 002a FFF7FEBF 		b	_port_irq_epilogue
ARM GAS  /tmp/cceNd3kL.s 			page 11


 568              		.cfi_endproc
 569              	.LFE128:
 570              		.size	Vector128, .-Vector128
 571 002e 00BF     		.section	.text.Vector12C,"ax",%progbits
 572              		.align	2
 573              		.p2align 4,,15
 574              		.global	Vector12C
 575              		.thumb
 576              		.thumb_func
 577              		.type	Vector12C, %function
 578              	Vector12C:
 579              	.LFB129:
 580              		.loc 1 326 0
 581              		.cfi_startproc
 582              		@ args = 0, pretend = 0, frame = 0
 583              		@ frame_needed = 0, uses_anonymous_args = 0
 584              		.loc 1 331 0
 585 0000 4FF4C840 		mov	r0, #25600
 586 0004 C4F20200 		movt	r0, 16386
 587              		.loc 1 333 0
 588 0008 40F20002 		movw	r2, #:lower16:.LANCHOR0
 589              		.loc 1 331 0
 590 000c 0368     		ldr	r3, [r0, #0]
 591              		.loc 1 333 0
 592 000e C0F20002 		movt	r2, #:upper16:.LANCHOR0
 593              		.loc 1 331 0
 594 0012 990D     		lsrs	r1, r3, #22
 595 0014 01F03D01 		and	r1, r1, #61
 596              	.LVL22:
 597              		.loc 1 333 0
 598 0018 936D     		ldr	r3, [r2, #88]
 599              		.loc 1 326 0
 600 001a 10B5     		push	{r4, lr}
 601              	.LCFI11:
 602              		.cfi_def_cfa_offset 8
 603              		.cfi_offset 14, -4
 604              		.cfi_offset 4, -8
 605              		.loc 1 332 0
 606 001c 8C05     		lsls	r4, r1, #22
 607 001e 8460     		str	r4, [r0, #8]
 608              		.loc 1 333 0
 609 0020 0BB1     		cbz	r3, .L25
 610              		.loc 1 334 0
 611 0022 D06D     		ldr	r0, [r2, #92]
 612 0024 9847     		blx	r3
 613              	.LVL23:
 614              	.L25:
 615              		.loc 1 337 0
 616 0026 BDE81040 		pop	{r4, lr}
 617              		.loc 1 336 0
 618 002a FFF7FEBF 		b	_port_irq_epilogue
 619              		.cfi_endproc
 620              	.LFE129:
 621              		.size	Vector12C, .-Vector12C
 622 002e 00BF     		.section	.text.Vector130,"ax",%progbits
 623              		.align	2
 624              		.p2align 4,,15
ARM GAS  /tmp/cceNd3kL.s 			page 12


 625              		.global	Vector130
 626              		.thumb
 627              		.thumb_func
 628              		.type	Vector130, %function
 629              	Vector130:
 630              	.LFB130:
 631              		.loc 1 344 0
 632              		.cfi_startproc
 633              		@ args = 0, pretend = 0, frame = 0
 634              		@ frame_needed = 0, uses_anonymous_args = 0
 635              		.loc 1 349 0
 636 0000 4FF4C840 		mov	r0, #25600
 637 0004 C4F20200 		movt	r0, 16386
 638              		.loc 1 351 0
 639 0008 40F20002 		movw	r2, #:lower16:.LANCHOR0
 640 000c C0F20002 		movt	r2, #:upper16:.LANCHOR0
 641              		.loc 1 349 0
 642 0010 4168     		ldr	r1, [r0, #4]
 643              		.loc 1 344 0
 644 0012 08B5     		push	{r3, lr}
 645              	.LCFI12:
 646              		.cfi_def_cfa_offset 8
 647              		.cfi_offset 14, -4
 648              		.cfi_offset 3, -8
 649              		.loc 1 351 0
 650 0014 136E     		ldr	r3, [r2, #96]
 651              		.loc 1 349 0
 652 0016 01F03D01 		and	r1, r1, #61
 653              	.LVL24:
 654              		.loc 1 350 0
 655 001a C160     		str	r1, [r0, #12]
 656              		.loc 1 351 0
 657 001c 0BB1     		cbz	r3, .L27
 658              		.loc 1 352 0
 659 001e 506E     		ldr	r0, [r2, #100]
 660 0020 9847     		blx	r3
 661              	.LVL25:
 662              	.L27:
 663              		.loc 1 355 0
 664 0022 BDE80840 		pop	{r3, lr}
 665              		.loc 1 354 0
 666 0026 FFF7FEBF 		b	_port_irq_epilogue
 667              		.cfi_endproc
 668              	.LFE130:
 669              		.size	Vector130, .-Vector130
 670 002a 00BFAFF3 		.section	.text.Vector150,"ax",%progbits
 670      0080
 671              		.align	2
 672              		.p2align 4,,15
 673              		.global	Vector150
 674              		.thumb
 675              		.thumb_func
 676              		.type	Vector150, %function
 677              	Vector150:
 678              	.LFB131:
 679              		.loc 1 362 0
 680              		.cfi_startproc
ARM GAS  /tmp/cceNd3kL.s 			page 13


 681              		@ args = 0, pretend = 0, frame = 0
 682              		@ frame_needed = 0, uses_anonymous_args = 0
 683              		.loc 1 367 0
 684 0000 4FF4C840 		mov	r0, #25600
 685 0004 C4F20200 		movt	r0, 16386
 686              		.loc 1 369 0
 687 0008 40F20002 		movw	r2, #:lower16:.LANCHOR0
 688              		.loc 1 367 0
 689 000c 4368     		ldr	r3, [r0, #4]
 690              		.loc 1 369 0
 691 000e C0F20002 		movt	r2, #:upper16:.LANCHOR0
 692              		.loc 1 367 0
 693 0012 9909     		lsrs	r1, r3, #6
 694 0014 01F03D01 		and	r1, r1, #61
 695              	.LVL26:
 696              		.loc 1 369 0
 697 0018 936E     		ldr	r3, [r2, #104]
 698              		.loc 1 362 0
 699 001a 10B5     		push	{r4, lr}
 700              	.LCFI13:
 701              		.cfi_def_cfa_offset 8
 702              		.cfi_offset 14, -4
 703              		.cfi_offset 4, -8
 704              		.loc 1 368 0
 705 001c 8C01     		lsls	r4, r1, #6
 706 001e C460     		str	r4, [r0, #12]
 707              		.loc 1 369 0
 708 0020 0BB1     		cbz	r3, .L29
 709              		.loc 1 370 0
 710 0022 D06E     		ldr	r0, [r2, #108]
 711 0024 9847     		blx	r3
 712              	.LVL27:
 713              	.L29:
 714              		.loc 1 373 0
 715 0026 BDE81040 		pop	{r4, lr}
 716              		.loc 1 372 0
 717 002a FFF7FEBF 		b	_port_irq_epilogue
 718              		.cfi_endproc
 719              	.LFE131:
 720              		.size	Vector150, .-Vector150
 721 002e 00BF     		.section	.text.Vector154,"ax",%progbits
 722              		.align	2
 723              		.p2align 4,,15
 724              		.global	Vector154
 725              		.thumb
 726              		.thumb_func
 727              		.type	Vector154, %function
 728              	Vector154:
 729              	.LFB132:
 730              		.loc 1 380 0
 731              		.cfi_startproc
 732              		@ args = 0, pretend = 0, frame = 0
 733              		@ frame_needed = 0, uses_anonymous_args = 0
 734              		.loc 1 385 0
 735 0000 4FF4C840 		mov	r0, #25600
 736 0004 C4F20200 		movt	r0, 16386
 737              		.loc 1 387 0
ARM GAS  /tmp/cceNd3kL.s 			page 14


 738 0008 40F20002 		movw	r2, #:lower16:.LANCHOR0
 739              		.loc 1 385 0
 740 000c 4368     		ldr	r3, [r0, #4]
 741              		.loc 1 387 0
 742 000e C0F20002 		movt	r2, #:upper16:.LANCHOR0
 743              		.loc 1 385 0
 744 0012 190C     		lsrs	r1, r3, #16
 745 0014 01F03D01 		and	r1, r1, #61
 746              	.LVL28:
 747              		.loc 1 387 0
 748 0018 136F     		ldr	r3, [r2, #112]
 749              		.loc 1 380 0
 750 001a 10B5     		push	{r4, lr}
 751              	.LCFI14:
 752              		.cfi_def_cfa_offset 8
 753              		.cfi_offset 14, -4
 754              		.cfi_offset 4, -8
 755              		.loc 1 386 0
 756 001c 0C04     		lsls	r4, r1, #16
 757 001e C460     		str	r4, [r0, #12]
 758              		.loc 1 387 0
 759 0020 0BB1     		cbz	r3, .L31
 760              		.loc 1 388 0
 761 0022 506F     		ldr	r0, [r2, #116]
 762 0024 9847     		blx	r3
 763              	.LVL29:
 764              	.L31:
 765              		.loc 1 391 0
 766 0026 BDE81040 		pop	{r4, lr}
 767              		.loc 1 390 0
 768 002a FFF7FEBF 		b	_port_irq_epilogue
 769              		.cfi_endproc
 770              	.LFE132:
 771              		.size	Vector154, .-Vector154
 772 002e 00BF     		.section	.text.Vector158,"ax",%progbits
 773              		.align	2
 774              		.p2align 4,,15
 775              		.global	Vector158
 776              		.thumb
 777              		.thumb_func
 778              		.type	Vector158, %function
 779              	Vector158:
 780              	.LFB133:
 781              		.loc 1 398 0
 782              		.cfi_startproc
 783              		@ args = 0, pretend = 0, frame = 0
 784              		@ frame_needed = 0, uses_anonymous_args = 0
 785              		.loc 1 403 0
 786 0000 4FF4C840 		mov	r0, #25600
 787 0004 C4F20200 		movt	r0, 16386
 788              		.loc 1 405 0
 789 0008 40F20002 		movw	r2, #:lower16:.LANCHOR0
 790              		.loc 1 403 0
 791 000c 4368     		ldr	r3, [r0, #4]
 792              		.loc 1 405 0
 793 000e C0F20002 		movt	r2, #:upper16:.LANCHOR0
 794              		.loc 1 403 0
ARM GAS  /tmp/cceNd3kL.s 			page 15


 795 0012 990D     		lsrs	r1, r3, #22
 796 0014 01F03D01 		and	r1, r1, #61
 797              	.LVL30:
 798              		.loc 1 405 0
 799 0018 936F     		ldr	r3, [r2, #120]
 800              		.loc 1 398 0
 801 001a 10B5     		push	{r4, lr}
 802              	.LCFI15:
 803              		.cfi_def_cfa_offset 8
 804              		.cfi_offset 14, -4
 805              		.cfi_offset 4, -8
 806              		.loc 1 404 0
 807 001c 8C05     		lsls	r4, r1, #22
 808 001e C460     		str	r4, [r0, #12]
 809              		.loc 1 405 0
 810 0020 0BB1     		cbz	r3, .L33
 811              		.loc 1 406 0
 812 0022 D06F     		ldr	r0, [r2, #124]
 813 0024 9847     		blx	r3
 814              	.LVL31:
 815              	.L33:
 816              		.loc 1 409 0
 817 0026 BDE81040 		pop	{r4, lr}
 818              		.loc 1 408 0
 819 002a FFF7FEBF 		b	_port_irq_epilogue
 820              		.cfi_endproc
 821              	.LFE133:
 822              		.size	Vector158, .-Vector158
 823 002e 00BF     		.section	.text.dmaInit,"ax",%progbits
 824              		.align	2
 825              		.p2align 4,,15
 826              		.global	dmaInit
 827              		.thumb
 828              		.thumb_func
 829              		.type	dmaInit, %function
 830              	dmaInit:
 831              	.LFB134:
 832              		.loc 1 420 0
 833              		.cfi_startproc
 834              		@ args = 0, pretend = 0, frame = 40
 835              		@ frame_needed = 0, uses_anonymous_args = 0
 836              		@ link register save eliminated.
 837 0000 2DE9F00F 		push	{r4, r5, r6, r7, r8, r9, sl, fp}
 838              	.LCFI16:
 839              		.cfi_def_cfa_offset 32
 840              		.cfi_offset 11, -4
 841              		.cfi_offset 10, -8
 842              		.cfi_offset 9, -12
 843              		.cfi_offset 8, -16
 844              		.cfi_offset 7, -20
 845              		.cfi_offset 6, -24
 846              		.cfi_offset 5, -28
 847              		.cfi_offset 4, -32
 848              		.loc 1 423 0
 849 0004 40F20004 		movw	r4, #:lower16:.LANCHOR1
 850              		.loc 1 420 0
 851 0008 8AB0     		sub	sp, sp, #40
ARM GAS  /tmp/cceNd3kL.s 			page 16


 852              	.LCFI17:
 853              		.cfi_def_cfa_offset 72
 854              		.loc 1 423 0
 855 000a C0F20004 		movt	r4, #:upper16:.LANCHOR1
 856              		.loc 1 425 0
 857 000e 46F2B800 		movw	r0, #24760
 858              		.loc 1 423 0
 859 0012 0394     		str	r4, [sp, #12]
 860              		.loc 1 425 0
 861 0014 C4F20200 		movt	r0, 16386
 862 0018 46F21044 		movw	r4, #25616
 863 001c 0290     		str	r0, [sp, #8]
 864 001e C4F20204 		movt	r4, 16386
 865 0022 46F24040 		movw	r0, #25664
 866 0026 0194     		str	r4, [sp, #4]
 867 0028 C4F20200 		movt	r0, 16386
 868 002c 46F25844 		movw	r4, #25688
 869 0030 0490     		str	r0, [sp, #16]
 870 0032 C4F20204 		movt	r4, 16386
 871 0036 46F27040 		movw	r0, #25712
 872 003a 0594     		str	r4, [sp, #20]
 873 003c C4F20200 		movt	r0, 16386
 874 0040 46F28844 		movw	r4, #25736
 875 0044 0690     		str	r0, [sp, #24]
 876 0046 C4F20204 		movt	r4, 16386
 877 004a 46F2A040 		movw	r0, #25760
 878 004e 0794     		str	r4, [sp, #28]
 879 0050 C4F20200 		movt	r0, 16386
 880 0054 46F2B844 		movw	r4, #25784
 881 0058 0890     		str	r0, [sp, #32]
 882 005a C4F20204 		movt	r4, 16386
 883              		.loc 1 423 0
 884 005e 0398     		ldr	r0, [sp, #12]
 885              		.loc 1 425 0
 886 0060 0994     		str	r4, [sp, #36]
 887 0062 46F2100A 		movw	sl, #24592
 888              		.loc 1 423 0
 889 0066 0024     		movs	r4, #0
 890              		.loc 1 426 0
 891 0068 40F20003 		movw	r3, #:lower16:.LANCHOR0
 892              		.loc 1 425 0
 893 006c 46F22809 		movw	r9, #24616
 894 0070 46F24008 		movw	r8, #24640
 895 0074 46F2580C 		movw	ip, #24664
 896 0078 46F27007 		movw	r7, #24688
 897 007c 46F28806 		movw	r6, #24712
 898 0080 46F2A005 		movw	r5, #24736
 899              		.loc 1 426 0
 900 0084 C0F20003 		movt	r3, #:upper16:.LANCHOR0
 901              		.loc 1 423 0
 902 0088 0460     		str	r4, [r0, #0]
 903              	.LVL32:
 904              		.loc 1 425 0
 905 008a C4F2020A 		movt	sl, 16386
 906 008e 0298     		ldr	r0, [sp, #8]
 907 0090 CAF80040 		str	r4, [sl, #0]
 908 0094 C4F20209 		movt	r9, 16386
ARM GAS  /tmp/cceNd3kL.s 			page 17


 909 0098 C4F20208 		movt	r8, 16386
 910 009c C4F2020C 		movt	ip, 16386
 911 00a0 C4F20207 		movt	r7, 16386
 912 00a4 C4F20206 		movt	r6, 16386
 913 00a8 C4F20205 		movt	r5, 16386
 914 00ac 46F2284B 		movw	fp, #25640
 915              		.loc 1 426 0
 916 00b0 1C60     		str	r4, [r3, #0]
 917              	.LVL33:
 918              		.loc 1 425 0
 919 00b2 C4F2020B 		movt	fp, 16386
 920 00b6 C9F80040 		str	r4, [r9, #0]
 921              		.loc 1 426 0
 922 00ba 9C60     		str	r4, [r3, #8]
 923              	.LVL34:
 924              		.loc 1 425 0
 925 00bc C8F80040 		str	r4, [r8, #0]
 926              		.loc 1 426 0
 927 00c0 1C61     		str	r4, [r3, #16]
 928              	.LVL35:
 929              		.loc 1 425 0
 930 00c2 CCF80040 		str	r4, [ip, #0]
 931              		.loc 1 426 0
 932 00c6 9C61     		str	r4, [r3, #24]
 933              	.LVL36:
 934              		.loc 1 425 0
 935 00c8 3C60     		str	r4, [r7, #0]
 936              		.loc 1 426 0
 937 00ca 1C62     		str	r4, [r3, #32]
 938              	.LVL37:
 939              		.loc 1 425 0
 940 00cc 3460     		str	r4, [r6, #0]
 941              		.loc 1 426 0
 942 00ce 9C62     		str	r4, [r3, #40]
 943              	.LVL38:
 944              		.loc 1 425 0
 945 00d0 2C60     		str	r4, [r5, #0]
 946              		.loc 1 426 0
 947 00d2 1C63     		str	r4, [r3, #48]
 948              	.LVL39:
 949              		.loc 1 425 0
 950 00d4 0460     		str	r4, [r0, #0]
 951 00d6 0198     		ldr	r0, [sp, #4]
 952              		.loc 1 426 0
 953 00d8 9C63     		str	r4, [r3, #56]
 954              	.LVL40:
 955              		.loc 1 425 0
 956 00da 0460     		str	r4, [r0, #0]
 957              		.loc 1 426 0
 958 00dc 1C64     		str	r4, [r3, #64]
 959              	.LVL41:
 960              		.loc 1 425 0
 961 00de CBF80040 		str	r4, [fp, #0]
 962              		.loc 1 426 0
 963 00e2 9C64     		str	r4, [r3, #72]
 964              	.LVL42:
 965              		.loc 1 425 0
ARM GAS  /tmp/cceNd3kL.s 			page 18


 966 00e4 0498     		ldr	r0, [sp, #16]
 967 00e6 0460     		str	r4, [r0, #0]
 968 00e8 0598     		ldr	r0, [sp, #20]
 969              		.loc 1 426 0
 970 00ea 1C65     		str	r4, [r3, #80]
 971              	.LVL43:
 972              		.loc 1 425 0
 973 00ec 0460     		str	r4, [r0, #0]
 974 00ee 0698     		ldr	r0, [sp, #24]
 975              		.loc 1 426 0
 976 00f0 9C65     		str	r4, [r3, #88]
 977              	.LVL44:
 978              		.loc 1 425 0
 979 00f2 0460     		str	r4, [r0, #0]
 980 00f4 0798     		ldr	r0, [sp, #28]
 981              		.loc 1 426 0
 982 00f6 1C66     		str	r4, [r3, #96]
 983              	.LVL45:
 984              		.loc 1 425 0
 985 00f8 0460     		str	r4, [r0, #0]
 986 00fa 0898     		ldr	r0, [sp, #32]
 987              		.loc 1 426 0
 988 00fc 9C66     		str	r4, [r3, #104]
 989              	.LVL46:
 990              		.loc 1 428 0
 991 00fe 4FF4C041 		mov	r1, #24576
 992              		.loc 1 425 0
 993 0102 0460     		str	r4, [r0, #0]
 994              		.loc 1 430 0
 995 0104 4FF4C842 		mov	r2, #25600
 996              		.loc 1 425 0
 997 0108 0998     		ldr	r0, [sp, #36]
 998              		.loc 1 426 0
 999 010a 1C67     		str	r4, [r3, #112]
 1000              	.LVL47:
 1001              		.loc 1 428 0
 1002 010c C4F20201 		movt	r1, 16386
 1003              		.loc 1 430 0
 1004 0110 C4F20202 		movt	r2, 16386
 1005              		.loc 1 425 0
 1006 0114 0460     		str	r4, [r0, #0]
 1007              		.loc 1 426 0
 1008 0116 9C67     		str	r4, [r3, #120]
 1009              	.LVL48:
 1010              		.loc 1 428 0
 1011 0118 4FF0FF33 		mov	r3, #-1
 1012 011c 8B60     		str	r3, [r1, #8]
 1013              		.loc 1 429 0
 1014 011e CB60     		str	r3, [r1, #12]
 1015              		.loc 1 430 0
 1016 0120 9360     		str	r3, [r2, #8]
 1017              		.loc 1 431 0
 1018 0122 D360     		str	r3, [r2, #12]
 1019              		.loc 1 432 0
 1020 0124 0AB0     		add	sp, sp, #40
 1021 0126 BDE8F00F 		pop	{r4, r5, r6, r7, r8, r9, sl, fp}
 1022 012a 7047     		bx	lr
ARM GAS  /tmp/cceNd3kL.s 			page 19


 1023              		.cfi_endproc
 1024              	.LFE134:
 1025              		.size	dmaInit, .-dmaInit
 1026 012c AFF30080 		.section	.text.dmaStreamAllocate,"ax",%progbits
 1027              		.align	2
 1028              		.p2align 4,,15
 1029              		.global	dmaStreamAllocate
 1030              		.thumb
 1031              		.thumb_func
 1032              		.type	dmaStreamAllocate, %function
 1033              	dmaStreamAllocate:
 1034              	.LFB135:
 1035              		.loc 1 461 0
 1036              		.cfi_startproc
 1037              		@ args = 0, pretend = 0, frame = 0
 1038              		@ frame_needed = 0, uses_anonymous_args = 0
 1039              	.LVL49:
 1040 0000 2DE9F041 		push	{r4, r5, r6, r7, r8, lr}
 1041              	.LCFI18:
 1042              		.cfi_def_cfa_offset 24
 1043              		.cfi_offset 14, -4
 1044              		.cfi_offset 8, -8
 1045              		.cfi_offset 7, -12
 1046              		.cfi_offset 6, -16
 1047              		.cfi_offset 5, -20
 1048              		.cfi_offset 4, -24
 1049              		.loc 1 466 0
 1050 0004 40F20004 		movw	r4, #:lower16:.LANCHOR1
 1051 0008 C0F20004 		movt	r4, #:upper16:.LANCHOR1
 1052 000c 457A     		ldrb	r5, [r0, #9]	@ zero_extendqisi2
 1053 000e 2668     		ldr	r6, [r4, #0]
 1054 0010 4FF0010C 		mov	ip, #1
 1055 0014 0CFA05F7 		lsl	r7, ip, r5
 1056 0018 3742     		tst	r7, r6
 1057 001a 3ED1     		bne	.L40
 1058              		.loc 1 470 0
 1059 001c 40F2000C 		movw	ip, #:lower16:.LANCHOR0
 1060 0020 C0F2000C 		movt	ip, #:upper16:.LANCHOR0
 1061              		.loc 1 472 0
 1062 0024 3E43     		orrs	r6, r6, r7
 1063              		.loc 1 471 0
 1064 0026 0CEBC508 		add	r8, ip, r5, lsl #3
 1065              		.loc 1 475 0
 1066 002a 16F0FF0F 		tst	r6, #255
 1067              		.loc 1 471 0
 1068 002e C8F80430 		str	r3, [r8, #4]
 1069              		.loc 1 476 0
 1070 0032 1CBF     		itt	ne
 1071 0034 4FF46053 		movne	r3, #14336
 1072              	.LVL50:
 1073 0038 C4F20203 		movtne	r3, 16386
 1074              		.loc 1 472 0
 1075 003c 2660     		str	r6, [r4, #0]
 1076              		.loc 1 476 0
 1077 003e 18BF     		it	ne
 1078 0040 1C6B     		ldrne	r4, [r3, #48]
 1079              		.loc 1 470 0
ARM GAS  /tmp/cceNd3kL.s 			page 20


 1080 0042 4CF83520 		str	r2, [ip, r5, lsl #3]
 1081              		.loc 1 476 0
 1082 0046 1CBF     		itt	ne
 1083 0048 44F40014 		orrne	r4, r4, #2097152
 1084 004c 1C63     		strne	r4, [r3, #48]
 1085              		.loc 1 477 0
 1086 004e 16F47F4F 		tst	r6, #65280
 1087              		.loc 1 478 0
 1088 0052 1FBF     		itttt	ne
 1089 0054 4FF46053 		movne	r3, #14336
 1090 0058 C4F20203 		movtne	r3, 16386
 1091 005c 1C6B     		ldrne	r4, [r3, #48]
 1092 005e 44F48004 		orrne	r4, r4, #4194304
 1093 0062 18BF     		it	ne
 1094 0064 1C63     		strne	r4, [r3, #48]
 1095              		.loc 1 481 0
 1096 0066 0368     		ldr	r3, [r0, #0]
 1097 0068 1D68     		ldr	r5, [r3, #0]
 1098 006a 25F01F04 		bic	r4, r5, #31
 1099 006e 1C60     		str	r4, [r3, #0]
 1100              	.L39:
 1101              		.loc 1 481 0 is_stmt 0 discriminator 1
 1102 0070 1F68     		ldr	r7, [r3, #0]
 1103 0072 17F00104 		ands	r4, r7, #1
 1104 0076 FBD1     		bne	.L39
 1105              		.loc 1 481 0 discriminator 2
 1106 0078 067A     		ldrb	r6, [r0, #8]	@ zero_extendqisi2
 1107 007a 4568     		ldr	r5, [r0, #4]
 1108 007c 3D27     		movs	r7, #61
 1109 007e 17FA06F6 		lsls	r6, r7, r6
 1110 0082 2E60     		str	r6, [r5, #0]
 1111              		.loc 1 483 0 is_stmt 1 discriminator 2
 1112 0084 2125     		movs	r5, #33
 1113              		.loc 1 482 0 discriminator 2
 1114 0086 1C60     		str	r4, [r3, #0]
 1115              		.loc 1 483 0 discriminator 2
 1116 0088 5D61     		str	r5, [r3, #20]
 1117              		.loc 1 486 0 discriminator 2
 1118 008a 4AB1     		cbz	r2, .L41
 1119              		.loc 1 487 0
 1120 008c 807A     		ldrb	r0, [r0, #10]	@ zero_extendqisi2
 1121              	.LVL51:
 1122 008e 0901     		lsls	r1, r1, #4
 1123              	.LVL52:
 1124 0090 FFF7FEFF 		bl	nvicEnableVector
 1125              	.LVL53:
 1126              		.loc 1 489 0
 1127 0094 2046     		mov	r0, r4
 1128 0096 BDE8F081 		pop	{r4, r5, r6, r7, r8, pc}
 1129              	.LVL54:
 1130              	.L40:
 1131              		.loc 1 467 0
 1132 009a 6046     		mov	r0, ip
 1133              	.LVL55:
 1134 009c BDE8F081 		pop	{r4, r5, r6, r7, r8, pc}
 1135              	.LVL56:
 1136              	.L41:
ARM GAS  /tmp/cceNd3kL.s 			page 21


 1137              		.loc 1 489 0
 1138 00a0 1046     		mov	r0, r2
 1139              	.LVL57:
 1140              		.loc 1 490 0
 1141 00a2 BDE8F081 		pop	{r4, r5, r6, r7, r8, pc}
 1142              		.cfi_endproc
 1143              	.LFE135:
 1144              		.size	dmaStreamAllocate, .-dmaStreamAllocate
 1145 00a6 00BFAFF3 		.section	.text.dmaStreamRelease,"ax",%progbits
 1145      0080AFF3 
 1145      0080
 1146              		.align	2
 1147              		.p2align 4,,15
 1148              		.global	dmaStreamRelease
 1149              		.thumb
 1150              		.thumb_func
 1151              		.type	dmaStreamRelease, %function
 1152              	dmaStreamRelease:
 1153              	.LFB136:
 1154              		.loc 1 505 0
 1155              		.cfi_startproc
 1156              		@ args = 0, pretend = 0, frame = 0
 1157              		@ frame_needed = 0, uses_anonymous_args = 0
 1158              	.LVL58:
 1159 0000 10B5     		push	{r4, lr}
 1160              	.LCFI19:
 1161              		.cfi_def_cfa_offset 8
 1162              		.cfi_offset 14, -4
 1163              		.cfi_offset 4, -8
 1164              		.loc 1 505 0
 1165 0002 0446     		mov	r4, r0
 1166              		.loc 1 514 0
 1167 0004 807A     		ldrb	r0, [r0, #10]	@ zero_extendqisi2
 1168              	.LVL59:
 1169 0006 FFF7FEFF 		bl	nvicDisableVector
 1170              		.loc 1 517 0
 1171 000a 40F20003 		movw	r3, #:lower16:.LANCHOR1
 1172 000e C0F20003 		movt	r3, #:upper16:.LANCHOR1
 1173 0012 627A     		ldrb	r2, [r4, #9]	@ zero_extendqisi2
 1174 0014 1968     		ldr	r1, [r3, #0]
 1175 0016 0120     		movs	r0, #1
 1176 0018 9040     		lsls	r0, r0, r2
 1177 001a 21EA0002 		bic	r2, r1, r0
 1178              		.loc 1 520 0
 1179 001e 12F0FF0F 		tst	r2, #255
 1180              		.loc 1 517 0
 1181 0022 1A60     		str	r2, [r3, #0]
 1182              		.loc 1 521 0
 1183 0024 01BF     		itttt	eq
 1184 0026 4FF46053 		moveq	r3, #14336
 1185 002a C4F20203 		movteq	r3, 16386
 1186 002e 196B     		ldreq	r1, [r3, #48]
 1187 0030 21F40011 		biceq	r1, r1, #2097152
 1188 0034 08BF     		it	eq
 1189 0036 1963     		streq	r1, [r3, #48]
 1190              		.loc 1 522 0
 1191 0038 12F47F4F 		tst	r2, #65280
ARM GAS  /tmp/cceNd3kL.s 			page 22


 1192              		.loc 1 523 0
 1193 003c 01BF     		itttt	eq
 1194 003e 4FF46053 		moveq	r3, #14336
 1195 0042 C4F20203 		movteq	r3, 16386
 1196 0046 1A6B     		ldreq	r2, [r3, #48]
 1197 0048 22F48002 		biceq	r2, r2, #4194304
 1198 004c 08BF     		it	eq
 1199 004e 1A63     		streq	r2, [r3, #48]
 1200 0050 10BD     		pop	{r4, pc}
 1201              		.cfi_endproc
 1202              	.LFE136:
 1203              		.size	dmaStreamRelease, .-dmaStreamRelease
 1204              		.global	_stm32_dma_streams
 1205 0052 00BFAFF3 		.section	.bss.dma_isr_redir,"aw",%nobits
 1205      0080AFF3 
 1205      0080AFF3 
 1205      0080
 1206              		.align	2
 1207              		.set	.LANCHOR0,. + 0
 1208              		.type	dma_isr_redir, %object
 1209              		.size	dma_isr_redir, 128
 1210              	dma_isr_redir:
 1211 0000 00000000 		.space	128
 1211      00000000 
 1211      00000000 
 1211      00000000 
 1211      00000000 
 1212              		.section	.rodata._stm32_dma_streams,"a",%progbits
 1213              		.align	2
 1214              		.type	_stm32_dma_streams, %object
 1215              		.size	_stm32_dma_streams, 192
 1216              	_stm32_dma_streams:
 1217 0000 10600240 		.word	1073897488
 1218 0004 08600240 		.word	1073897480
 1219 0008 00       		.byte	0
 1220 0009 00       		.byte	0
 1221 000a 0B       		.byte	11
 1222 000b 00       		.space	1
 1223 000c 28600240 		.word	1073897512
 1224 0010 08600240 		.word	1073897480
 1225 0014 06       		.byte	6
 1226 0015 01       		.byte	1
 1227 0016 0C       		.byte	12
 1228 0017 00       		.space	1
 1229 0018 40600240 		.word	1073897536
 1230 001c 08600240 		.word	1073897480
 1231 0020 10       		.byte	16
 1232 0021 02       		.byte	2
 1233 0022 0D       		.byte	13
 1234 0023 00       		.space	1
 1235 0024 58600240 		.word	1073897560
 1236 0028 08600240 		.word	1073897480
 1237 002c 16       		.byte	22
 1238 002d 03       		.byte	3
 1239 002e 0E       		.byte	14
 1240 002f 00       		.space	1
 1241 0030 70600240 		.word	1073897584
ARM GAS  /tmp/cceNd3kL.s 			page 23


 1242 0034 0C600240 		.word	1073897484
 1243 0038 00       		.byte	0
 1244 0039 04       		.byte	4
 1245 003a 0F       		.byte	15
 1246 003b 00       		.space	1
 1247 003c 88600240 		.word	1073897608
 1248 0040 0C600240 		.word	1073897484
 1249 0044 06       		.byte	6
 1250 0045 05       		.byte	5
 1251 0046 10       		.byte	16
 1252 0047 00       		.space	1
 1253 0048 A0600240 		.word	1073897632
 1254 004c 0C600240 		.word	1073897484
 1255 0050 10       		.byte	16
 1256 0051 06       		.byte	6
 1257 0052 11       		.byte	17
 1258 0053 00       		.space	1
 1259 0054 B8600240 		.word	1073897656
 1260 0058 0C600240 		.word	1073897484
 1261 005c 16       		.byte	22
 1262 005d 07       		.byte	7
 1263 005e 2F       		.byte	47
 1264 005f 00       		.space	1
 1265 0060 10640240 		.word	1073898512
 1266 0064 08640240 		.word	1073898504
 1267 0068 00       		.byte	0
 1268 0069 08       		.byte	8
 1269 006a 38       		.byte	56
 1270 006b 00       		.space	1
 1271 006c 28640240 		.word	1073898536
 1272 0070 08640240 		.word	1073898504
 1273 0074 06       		.byte	6
 1274 0075 09       		.byte	9
 1275 0076 39       		.byte	57
 1276 0077 00       		.space	1
 1277 0078 40640240 		.word	1073898560
 1278 007c 08640240 		.word	1073898504
 1279 0080 10       		.byte	16
 1280 0081 0A       		.byte	10
 1281 0082 3A       		.byte	58
 1282 0083 00       		.space	1
 1283 0084 58640240 		.word	1073898584
 1284 0088 08640240 		.word	1073898504
 1285 008c 16       		.byte	22
 1286 008d 0B       		.byte	11
 1287 008e 3B       		.byte	59
 1288 008f 00       		.space	1
 1289 0090 70640240 		.word	1073898608
 1290 0094 0C640240 		.word	1073898508
 1291 0098 00       		.byte	0
 1292 0099 0C       		.byte	12
 1293 009a 3C       		.byte	60
 1294 009b 00       		.space	1
 1295 009c 88640240 		.word	1073898632
 1296 00a0 0C640240 		.word	1073898508
 1297 00a4 06       		.byte	6
 1298 00a5 0D       		.byte	13
ARM GAS  /tmp/cceNd3kL.s 			page 24


 1299 00a6 44       		.byte	68
 1300 00a7 00       		.space	1
 1301 00a8 A0640240 		.word	1073898656
 1302 00ac 0C640240 		.word	1073898508
 1303 00b0 10       		.byte	16
 1304 00b1 0E       		.byte	14
 1305 00b2 45       		.byte	69
 1306 00b3 00       		.space	1
 1307 00b4 B8640240 		.word	1073898680
 1308 00b8 0C640240 		.word	1073898508
 1309 00bc 16       		.byte	22
 1310 00bd 0F       		.byte	15
 1311 00be 46       		.byte	70
 1312 00bf 00       		.space	1
 1313              		.section	.bss.dma_streams_mask,"aw",%nobits
 1314              		.align	2
 1315              		.set	.LANCHOR1,. + 0
 1316              		.type	dma_streams_mask, %object
 1317              		.size	dma_streams_mask, 4
 1318              	dma_streams_mask:
 1319 0000 00000000 		.space	4
 1320              		.text
 1321              	.Letext0:
 1322              		.file 2 "/home/lithium/Documents/arm-2011q3/bin/../lib/gcc/arm-none-eabi/4.6.1/../../../../arm-non
 1323              		.file 3 "../../os/ports/GCC/ARMCMx/chtypes.h"
 1324              		.file 4 "../../os/hal/platforms/STM32F4xx/stm32f4xx.h"
 1325              		.file 5 "../../os/hal/platforms/STM32F4xx/stm32_dma.h"
 1326              		.file 6 "../../os/ports/common/ARMCMx/CMSIS/include/core_cm4.h"