ARM GAS  /tmp/ccg5DWGg.s 			page 1


   1              		.syntax unified
   2              		.cpu cortex-m4
   3              		.fpu softvfp
   4              		.eabi_attribute 20, 1
   5              		.eabi_attribute 21, 1
   6              		.eabi_attribute 23, 3
   7              		.eabi_attribute 24, 1
   8              		.eabi_attribute 25, 1
   9              		.eabi_attribute 26, 1
  10              		.eabi_attribute 30, 2
  11              		.eabi_attribute 34, 1
  12              		.eabi_attribute 18, 4
  13              		.thumb
  14              		.file	"uart_lld.c"
  15              		.text
  16              	.Ltext0:
  17              		.cfi_sections	.debug_frame
  18              		.section	.text.set_rx_idle_loop,"ax",%progbits
  19              		.align	2
  20              		.p2align 4,,15
  21              		.thumb
  22              		.thumb_func
  23              		.type	set_rx_idle_loop, %function
  24              	set_rx_idle_loop:
  25              	.LFB119:
  26              		.file 1 "../../os/hal/platforms/STM32/USARTv1/uart_lld.c"
  27              		.loc 1 160 0
  28              		.cfi_startproc
  29              		@ args = 0, pretend = 0, frame = 0
  30              		@ frame_needed = 0, uses_anonymous_args = 0
  31              		@ link register save eliminated.
  32              	.LVL0:
  33              		.loc 1 165 0
  34 0000 4268     		ldr	r2, [r0, #4]
  35              		.loc 1 169 0
  36 0002 0369     		ldr	r3, [r0, #16]
  37              		.loc 1 165 0
  38 0004 D268     		ldr	r2, [r2, #12]
  39              		.loc 1 169 0
  40 0006 1B68     		ldr	r3, [r3, #0]
  41 0008 00F11801 		add	r1, r0, #24
  42              		.loc 1 171 0
  43 000c C068     		ldr	r0, [r0, #12]
  44              	.LVL1:
  45              		.loc 1 169 0
  46 000e D960     		str	r1, [r3, #12]
  47              		.loc 1 166 0
  48 0010 002A     		cmp	r2, #0
  49 0012 14BF     		ite	ne
  50 0014 4FF4887C 		movne	ip, #272
  51 0018 4FF4807C 		moveq	ip, #256
  52              	.LVL2:
  53              		.loc 1 171 0
  54 001c 4CEA0002 		orr	r2, ip, r0
  55              		.loc 1 170 0
  56 0020 0121     		movs	r1, #1
  57              	.LVL3:
ARM GAS  /tmp/ccg5DWGg.s 			page 2


  58 0022 5960     		str	r1, [r3, #4]
  59              		.loc 1 171 0
  60 0024 1A60     		str	r2, [r3, #0]
  61              		.loc 1 172 0
  62 0026 1868     		ldr	r0, [r3, #0]
  63 0028 40EA0102 		orr	r2, r0, r1
  64 002c 1A60     		str	r2, [r3, #0]
  65              		.loc 1 173 0
  66 002e 7047     		bx	lr
  67              		.cfi_endproc
  68              	.LFE119:
  69              		.size	set_rx_idle_loop, .-set_rx_idle_loop
  70              		.section	.text.usart_stop,"ax",%progbits
  71              		.align	2
  72              		.p2align 4,,15
  73              		.thumb
  74              		.thumb_func
  75              		.type	usart_stop, %function
  76              	usart_stop:
  77              	.LFB120:
  78              		.loc 1 181 0
  79              		.cfi_startproc
  80              		@ args = 0, pretend = 0, frame = 0
  81              		@ frame_needed = 0, uses_anonymous_args = 0
  82              		@ link register save eliminated.
  83              	.LVL4:
  84 0000 30B4     		push	{r4, r5}
  85              	.LCFI0:
  86              		.cfi_def_cfa_offset 8
  87              		.cfi_offset 5, -4
  88              		.cfi_offset 4, -8
  89              		.loc 1 184 0
  90 0002 0469     		ldr	r4, [r0, #16]
  91 0004 2268     		ldr	r2, [r4, #0]
  92 0006 1168     		ldr	r1, [r2, #0]
  93 0008 21F01F03 		bic	r3, r1, #31
  94 000c 1360     		str	r3, [r2, #0]
  95              	.L5:
  96              		.loc 1 184 0 is_stmt 0 discriminator 1
  97 000e 1568     		ldr	r5, [r2, #0]
  98 0010 EB07     		lsls	r3, r5, #31
  99 0012 FCD4     		bmi	.L5
 100              		.loc 1 184 0 discriminator 2
 101 0014 257A     		ldrb	r5, [r4, #8]	@ zero_extendqisi2
 102              		.loc 1 185 0 is_stmt 1 discriminator 2
 103 0016 4169     		ldr	r1, [r0, #20]
 104              		.loc 1 184 0 discriminator 2
 105 0018 6368     		ldr	r3, [r4, #4]
 106              		.loc 1 185 0 discriminator 2
 107 001a 0A68     		ldr	r2, [r1, #0]
 108              		.loc 1 184 0 discriminator 2
 109 001c 3D24     		movs	r4, #61
 110 001e AC40     		lsls	r4, r4, r5
 111 0020 1C60     		str	r4, [r3, #0]
 112              		.loc 1 185 0 discriminator 2
 113 0022 1368     		ldr	r3, [r2, #0]
 114 0024 23F01F04 		bic	r4, r3, #31
ARM GAS  /tmp/ccg5DWGg.s 			page 3


 115 0028 1460     		str	r4, [r2, #0]
 116              	.L6:
 117              		.loc 1 185 0 is_stmt 0 discriminator 1
 118 002a 1368     		ldr	r3, [r2, #0]
 119 002c 13F00103 		ands	r3, r3, #1
 120 0030 FBD1     		bne	.L6
 121              		.loc 1 185 0 discriminator 2
 122 0032 0C7A     		ldrb	r4, [r1, #8]	@ zero_extendqisi2
 123              		.loc 1 188 0 is_stmt 1 discriminator 2
 124 0034 8268     		ldr	r2, [r0, #8]
 125              		.loc 1 185 0 discriminator 2
 126 0036 4968     		ldr	r1, [r1, #4]
 127 0038 3D20     		movs	r0, #61
 128              	.LVL5:
 129 003a A040     		lsls	r0, r0, r4
 130 003c 0860     		str	r0, [r1, #0]
 131              		.loc 1 188 0 discriminator 2
 132 003e 9381     		strh	r3, [r2, #12]	@ movhi
 133              		.loc 1 189 0 discriminator 2
 134 0040 1382     		strh	r3, [r2, #16]	@ movhi
 135              		.loc 1 190 0 discriminator 2
 136 0042 9382     		strh	r3, [r2, #20]	@ movhi
 137              		.loc 1 191 0 discriminator 2
 138 0044 30BC     		pop	{r4, r5}
 139 0046 7047     		bx	lr
 140              		.cfi_endproc
 141              	.LFE120:
 142              		.size	usart_stop, .-usart_stop
 143 0048 AFF30080 		.section	.text.serve_usart_irq,"ax",%progbits
 143      AFF30080 
 144              		.align	2
 145              		.p2align 4,,15
 146              		.thumb
 147              		.thumb_func
 148              		.type	serve_usart_irq, %function
 149              	serve_usart_irq:
 150              	.LFB124:
 151              		.loc 1 317 0
 152              		.cfi_startproc
 153              		@ args = 0, pretend = 0, frame = 0
 154              		@ frame_needed = 0, uses_anonymous_args = 0
 155              	.LVL6:
 156 0000 F8B5     		push	{r3, r4, r5, r6, r7, lr}
 157              	.LCFI1:
 158              		.cfi_def_cfa_offset 24
 159              		.cfi_offset 14, -4
 160              		.cfi_offset 7, -8
 161              		.cfi_offset 6, -12
 162              		.cfi_offset 5, -16
 163              		.cfi_offset 4, -20
 164              		.cfi_offset 3, -24
 165              		.loc 1 319 0
 166 0002 8568     		ldr	r5, [r0, #8]
 167              	.LVL7:
 168              		.loc 1 320 0
 169 0004 AF89     		ldrh	r7, [r5, #12]
 170              		.loc 1 322 0
ARM GAS  /tmp/ccg5DWGg.s 			page 4


 171 0006 2C88     		ldrh	r4, [r5, #0]
 172              		.loc 1 323 0
 173 0008 AA88     		ldrh	r2, [r5, #4]
 174              		.loc 1 325 0
 175 000a 40F20F11 		movw	r1, #271
 176              		.loc 1 322 0
 177 000e A4B2     		uxth	r4, r4
 178              		.loc 1 325 0
 179 0010 04EA0103 		and	r3, r4, r1
 180              		.loc 1 317 0
 181 0014 0646     		mov	r6, r0
 182              		.loc 1 320 0
 183 0016 BFB2     		uxth	r7, r7
 184              	.LVL8:
 185              		.loc 1 325 0
 186 0018 DBB1     		cbz	r3, .L11
 187              	.LVL9:
 188              		.loc 1 328 0
 189 001a 4268     		ldr	r2, [r0, #4]
 190 001c 1369     		ldr	r3, [r2, #16]
 191              		.loc 1 327 0
 192 001e 4FF6FF60 		movw	r0, 65279	@ movhi
 193              	.LVL10:
 194 0022 2880     		strh	r0, [r5, #0]	@ movhi
 195              		.loc 1 328 0
 196 0024 ABB1     		cbz	r3, .L11
 197              	.LVL11:
 198              	.LBB8:
 199              	.LBB9:
 200              		.loc 1 142 0
 201 0026 14F00801 		ands	r1, r4, #8
 202              		.loc 1 143 0
 203 002a 18BF     		it	ne
 204 002c 1021     		movne	r1, #16
 205              	.LVL12:
 206              		.loc 1 144 0
 207 002e E207     		lsls	r2, r4, #31
 208              		.loc 1 145 0
 209 0030 48BF     		it	mi
 210 0032 41F00401 		orrmi	r1, r1, #4
 211              	.LVL13:
 212              		.loc 1 146 0
 213 0036 A007     		lsls	r0, r4, #30
 214              		.loc 1 147 0
 215 0038 48BF     		it	mi
 216 003a 41F00801 		orrmi	r1, r1, #8
 217              	.LVL14:
 218              		.loc 1 148 0
 219 003e 6207     		lsls	r2, r4, #29
 220              		.loc 1 149 0
 221 0040 48BF     		it	mi
 222 0042 41F02001 		orrmi	r1, r1, #32
 223              	.LVL15:
 224              		.loc 1 150 0
 225 0046 E005     		lsls	r0, r4, #23
 226              		.loc 1 151 0
 227 0048 48BF     		it	mi
ARM GAS  /tmp/ccg5DWGg.s 			page 5


 228 004a 41F04001 		orrmi	r1, r1, #64
 229              	.LVL16:
 230              	.LBE9:
 231              	.LBE8:
 232              		.loc 1 329 0
 233 004e 3046     		mov	r0, r6
 234 0050 9847     		blx	r3
 235              	.LVL17:
 236              	.L11:
 237              		.loc 1 332 0
 238 0052 6106     		lsls	r1, r4, #25
 239 0054 0FD5     		bpl	.L10
 240              		.loc 1 332 0 is_stmt 0 discriminator 1
 241 0056 7A06     		lsls	r2, r7, #25
 242 0058 0DD5     		bpl	.L10
 243              		.loc 1 338 0 is_stmt 1
 244 005a 7368     		ldr	r3, [r6, #4]
 245              		.loc 1 335 0
 246 005c 4FF6BF71 		movw	r1, #65471
 247              		.loc 1 338 0
 248 0060 5B68     		ldr	r3, [r3, #4]
 249              		.loc 1 335 0
 250 0062 07EA0100 		and	r0, r7, r1
 251              		.loc 1 334 0
 252 0066 4FF6BF7C 		movw	ip, 65471	@ movhi
 253 006a A5F800C0 		strh	ip, [r5, #0]	@ movhi
 254              		.loc 1 335 0
 255 006e A881     		strh	r0, [r5, #12]	@ movhi
 256              		.loc 1 338 0
 257 0070 0BB1     		cbz	r3, .L10
 258              		.loc 1 339 0
 259 0072 3046     		mov	r0, r6
 260 0074 9847     		blx	r3
 261              	.L10:
 262 0076 F8BD     		pop	{r3, r4, r5, r6, r7, pc}
 263              		.cfi_endproc
 264              	.LFE124:
 265              		.size	serve_usart_irq, .-serve_usart_irq
 266 0078 AFF30080 		.section	.text.uart_lld_serve_tx_end_irq,"ax",%progbits
 266      AFF30080 
 267              		.align	2
 268              		.p2align 4,,15
 269              		.thumb
 270              		.thumb_func
 271              		.type	uart_lld_serve_tx_end_irq, %function
 272              	uart_lld_serve_tx_end_irq:
 273              	.LFB123:
 274              		.loc 1 282 0
 275              		.cfi_startproc
 276              		@ args = 0, pretend = 0, frame = 0
 277              		@ frame_needed = 0, uses_anonymous_args = 0
 278              	.LVL18:
 279              		.loc 1 286 0
 280 0000 11F00C0F 		tst	r1, #12
 281              		.loc 1 282 0
 282 0004 38B5     		push	{r3, r4, r5, lr}
 283              	.LCFI2:
ARM GAS  /tmp/ccg5DWGg.s 			page 6


 284              		.cfi_def_cfa_offset 16
 285              		.cfi_offset 14, -4
 286              		.cfi_offset 5, -8
 287              		.cfi_offset 4, -12
 288              		.cfi_offset 3, -16
 289              		.loc 1 282 0
 290 0006 0446     		mov	r4, r0
 291              		.loc 1 286 0
 292 0008 25D1     		bne	.L26
 293              	.LVL19:
 294              	.L20:
 295              		.loc 1 293 0
 296 000a 6169     		ldr	r1, [r4, #20]
 297 000c 0A68     		ldr	r2, [r1, #0]
 298 000e 1068     		ldr	r0, [r2, #0]
 299 0010 20F01F03 		bic	r3, r0, #31
 300 0014 1360     		str	r3, [r2, #0]
 301              	.L21:
 302              		.loc 1 293 0 is_stmt 0 discriminator 1
 303 0016 1568     		ldr	r5, [r2, #0]
 304 0018 E807     		lsls	r0, r5, #31
 305 001a FCD4     		bmi	.L21
 306              		.loc 1 298 0 is_stmt 1 discriminator 2
 307 001c 6368     		ldr	r3, [r4, #4]
 308              		.loc 1 293 0 discriminator 2
 309 001e 087A     		ldrb	r0, [r1, #8]	@ zero_extendqisi2
 310              		.loc 1 298 0 discriminator 2
 311 0020 5A68     		ldr	r2, [r3, #4]
 312              		.loc 1 293 0 discriminator 2
 313 0022 4968     		ldr	r1, [r1, #4]
 314 0024 3D25     		movs	r5, #61
 315 0026 15FA00F0 		lsls	r0, r5, r0
 316 002a 0860     		str	r0, [r1, #0]
 317              		.loc 1 298 0 discriminator 2
 318 002c 32B1     		cbz	r2, .L22
 319              		.loc 1 299 0
 320 002e A268     		ldr	r2, [r4, #8]
 321 0030 9089     		ldrh	r0, [r2, #12]
 322 0032 81B2     		uxth	r1, r0
 323 0034 41F0400C 		orr	ip, r1, #64
 324 0038 A2F80CC0 		strh	ip, [r2, #12]	@ movhi
 325              	.L22:
 326              		.loc 1 303 0
 327 003c 1B68     		ldr	r3, [r3, #0]
 328              		.loc 1 302 0
 329 003e 0222     		movs	r2, #2
 330 0040 6270     		strb	r2, [r4, #1]
 331              		.loc 1 303 0
 332 0042 2BB1     		cbz	r3, .L23
 333              		.loc 1 304 0
 334 0044 2046     		mov	r0, r4
 335 0046 9847     		blx	r3
 336              		.loc 1 308 0
 337 0048 6378     		ldrb	r3, [r4, #1]	@ zero_extendqisi2
 338 004a 022B     		cmp	r3, #2
 339 004c 00D0     		beq	.L23
 340 004e 38BD     		pop	{r3, r4, r5, pc}
ARM GAS  /tmp/ccg5DWGg.s 			page 7


 341              	.L23:
 342              		.loc 1 309 0
 343 0050 0021     		movs	r1, #0
 344 0052 6170     		strb	r1, [r4, #1]
 345 0054 38BD     		pop	{r3, r4, r5, pc}
 346              	.LVL20:
 347              	.L26:
 348              		.loc 1 287 0
 349 0056 FFF7FEFF 		bl	port_halt
 350              	.LVL21:
 351 005a D6E7     		b	.L20
 352              		.cfi_endproc
 353              	.LFE123:
 354              		.size	uart_lld_serve_tx_end_irq, .-uart_lld_serve_tx_end_irq
 355 005c AFF30080 		.section	.text.uart_lld_serve_rx_end_irq,"ax",%progbits
 356              		.align	2
 357              		.p2align 4,,15
 358              		.thumb
 359              		.thumb_func
 360              		.type	uart_lld_serve_rx_end_irq, %function
 361              	uart_lld_serve_rx_end_irq:
 362              	.LFB122:
 363              		.loc 1 242 0
 364              		.cfi_startproc
 365              		@ args = 0, pretend = 0, frame = 0
 366              		@ frame_needed = 0, uses_anonymous_args = 0
 367              	.LVL22:
 368              		.loc 1 246 0
 369 0000 11F00C0F 		tst	r1, #12
 370              		.loc 1 242 0
 371 0004 10B5     		push	{r4, lr}
 372              	.LCFI3:
 373              		.cfi_def_cfa_offset 8
 374              		.cfi_offset 14, -4
 375              		.cfi_offset 4, -8
 376              		.loc 1 242 0
 377 0006 0446     		mov	r4, r0
 378              		.loc 1 246 0
 379 0008 22D1     		bne	.L34
 380              	.LVL23:
 381              	.L28:
 382              		.loc 1 253 0
 383 000a A378     		ldrb	r3, [r4, #2]	@ zero_extendqisi2
 384 000c 3BB9     		cbnz	r3, .L29
 385              		.loc 1 256 0
 386 000e 6068     		ldr	r0, [r4, #4]
 387 0010 C368     		ldr	r3, [r0, #12]
 388 0012 E3B1     		cbz	r3, .L27
 389              		.loc 1 257 0
 390 0014 218B     		ldrh	r1, [r4, #24]
 391 0016 2046     		mov	r0, r4
 392 0018 89B2     		uxth	r1, r1
 393 001a 9847     		blx	r3
 394 001c 10BD     		pop	{r4, pc}
 395              	.L29:
 396              	.LVL24:
 397              	.LBB12:
ARM GAS  /tmp/ccg5DWGg.s 			page 8


 398              	.LBB13:
 399              		.loc 1 262 0
 400 001e 2169     		ldr	r1, [r4, #16]
 401 0020 0A68     		ldr	r2, [r1, #0]
 402 0022 1068     		ldr	r0, [r2, #0]
 403 0024 20F01F03 		bic	r3, r0, #31
 404 0028 1360     		str	r3, [r2, #0]
 405              	.L31:
 406 002a 1368     		ldr	r3, [r2, #0]
 407 002c DB07     		lsls	r3, r3, #31
 408 002e FCD4     		bmi	.L31
 409 0030 087A     		ldrb	r0, [r1, #8]	@ zero_extendqisi2
 410              		.loc 1 264 0
 411 0032 6368     		ldr	r3, [r4, #4]
 412              		.loc 1 262 0
 413 0034 4A68     		ldr	r2, [r1, #4]
 414              		.loc 1 264 0
 415 0036 9B68     		ldr	r3, [r3, #8]
 416              		.loc 1 262 0
 417 0038 3D21     		movs	r1, #61
 418 003a 8140     		lsls	r1, r1, r0
 419 003c 1160     		str	r1, [r2, #0]
 420              		.loc 1 263 0
 421 003e 0222     		movs	r2, #2
 422 0040 A270     		strb	r2, [r4, #2]
 423              		.loc 1 264 0
 424 0042 43B1     		cbz	r3, .L32
 425              		.loc 1 265 0
 426 0044 2046     		mov	r0, r4
 427 0046 9847     		blx	r3
 428              		.loc 1 269 0
 429 0048 A278     		ldrb	r2, [r4, #2]	@ zero_extendqisi2
 430 004a 022A     		cmp	r2, #2
 431 004c 03D0     		beq	.L32
 432              	.LVL25:
 433              	.L27:
 434 004e 10BD     		pop	{r4, pc}
 435              	.LVL26:
 436              	.L34:
 437              	.LBE13:
 438              	.LBE12:
 439              		.loc 1 247 0
 440 0050 FFF7FEFF 		bl	port_halt
 441              	.LVL27:
 442 0054 D9E7     		b	.L28
 443              	.LVL28:
 444              	.L32:
 445              	.LBB16:
 446              	.LBB14:
 447              		.loc 1 270 0
 448 0056 0021     		movs	r1, #0
 449              		.loc 1 271 0
 450 0058 2046     		mov	r0, r4
 451              		.loc 1 270 0
 452 005a A170     		strb	r1, [r4, #2]
 453              	.LBE14:
 454              	.LBE16:
ARM GAS  /tmp/ccg5DWGg.s 			page 9


 455              		.loc 1 274 0
 456 005c BDE81040 		pop	{r4, lr}
 457              	.LBB17:
 458              	.LBB15:
 459              		.loc 1 271 0
 460 0060 FFF7FEBF 		b	set_rx_idle_loop
 461              	.LBE15:
 462              	.LBE17:
 463              		.cfi_endproc
 464              	.LFE122:
 465              		.size	uart_lld_serve_rx_end_irq, .-uart_lld_serve_rx_end_irq
 466 0064 AFF30080 		.section	.text.VectorD8,"ax",%progbits
 466      AFF30080 
 466      AFF30080 
 467              		.align	2
 468              		.p2align 4,,15
 469              		.global	VectorD8
 470              		.thumb
 471              		.thumb_func
 472              		.type	VectorD8, %function
 473              	VectorD8:
 474              	.LFB125:
 475              		.loc 1 375 0
 476              		.cfi_startproc
 477              		@ args = 0, pretend = 0, frame = 0
 478              		@ frame_needed = 0, uses_anonymous_args = 0
 479 0000 08B5     		push	{r3, lr}
 480              	.LCFI4:
 481              		.cfi_def_cfa_offset 8
 482              		.cfi_offset 14, -4
 483              		.cfi_offset 3, -8
 484              		.loc 1 379 0
 485 0002 40F20000 		movw	r0, #:lower16:.LANCHOR0
 486 0006 C0F20000 		movt	r0, #:upper16:.LANCHOR0
 487 000a FFF7FEFF 		bl	serve_usart_irq
 488              		.loc 1 382 0
 489 000e BDE80840 		pop	{r3, lr}
 490              		.loc 1 381 0
 491 0012 FFF7FEBF 		b	_port_irq_epilogue
 492              		.cfi_endproc
 493              	.LFE125:
 494              		.size	VectorD8, .-VectorD8
 495 0016 00BFAFF3 		.section	.text.Vector15C,"ax",%progbits
 495      0080AFF3 
 495      0080
 496              		.align	2
 497              		.p2align 4,,15
 498              		.global	Vector15C
 499              		.thumb
 500              		.thumb_func
 501              		.type	Vector15C, %function
 502              	Vector15C:
 503              	.LFB126:
 504              		.loc 1 451 0
 505              		.cfi_startproc
 506              		@ args = 0, pretend = 0, frame = 0
 507              		@ frame_needed = 0, uses_anonymous_args = 0
ARM GAS  /tmp/ccg5DWGg.s 			page 10


 508 0000 08B5     		push	{r3, lr}
 509              	.LCFI5:
 510              		.cfi_def_cfa_offset 8
 511              		.cfi_offset 14, -4
 512              		.cfi_offset 3, -8
 513              		.loc 1 455 0
 514 0002 40F20000 		movw	r0, #:lower16:.LANCHOR1
 515 0006 C0F20000 		movt	r0, #:upper16:.LANCHOR1
 516 000a FFF7FEFF 		bl	serve_usart_irq
 517              		.loc 1 458 0
 518 000e BDE80840 		pop	{r3, lr}
 519              		.loc 1 457 0
 520 0012 FFF7FEBF 		b	_port_irq_epilogue
 521              		.cfi_endproc
 522              	.LFE126:
 523              		.size	Vector15C, .-Vector15C
 524 0016 00BFAFF3 		.section	.text.uart_lld_init,"ax",%progbits
 524      0080AFF3 
 524      0080
 525              		.align	2
 526              		.p2align 4,,15
 527              		.global	uart_lld_init
 528              		.thumb
 529              		.thumb_func
 530              		.type	uart_lld_init, %function
 531              	uart_lld_init:
 532              	.LFB127:
 533              		.loc 1 470 0
 534              		.cfi_startproc
 535              		@ args = 0, pretend = 0, frame = 0
 536              		@ frame_needed = 0, uses_anonymous_args = 0
 537 0000 70B5     		push	{r4, r5, r6, lr}
 538              	.LCFI6:
 539              		.cfi_def_cfa_offset 16
 540              		.cfi_offset 14, -4
 541              		.cfi_offset 6, -8
 542              		.cfi_offset 5, -12
 543              		.cfi_offset 4, -16
 544              		.loc 1 481 0
 545 0002 40F20004 		movw	r4, #:lower16:.LANCHOR0
 546 0006 C0F20004 		movt	r4, #:upper16:.LANCHOR0
 547              		.loc 1 484 0
 548 000a 104E     		ldr	r6, .L38
 549              		.loc 1 481 0
 550 000c 2046     		mov	r0, r4
 551              		.loc 1 513 0
 552 000e 40F20005 		movw	r5, #:lower16:.LANCHOR1
 553              		.loc 1 481 0
 554 0012 FFF7FEFF 		bl	uartObjectInit
 555              		.loc 1 513 0
 556 0016 C0F20005 		movt	r5, #:upper16:.LANCHOR1
 557              		.loc 1 482 0
 558 001a 4FF48843 		mov	r3, #17408
 559 001e C4F20003 		movt	r3, 16384
 560              		.loc 1 485 0
 561 0022 06F10C01 		add	r1, r6, #12
 562              		.loc 1 483 0
ARM GAS  /tmp/ccg5DWGg.s 			page 11


 563 0026 0622     		movs	r2, #6
 564              		.loc 1 513 0
 565 0028 2846     		mov	r0, r5
 566              		.loc 1 482 0
 567 002a A360     		str	r3, [r4, #8]
 568              		.loc 1 483 0
 569 002c E260     		str	r2, [r4, #12]
 570              		.loc 1 484 0
 571 002e 2661     		str	r6, [r4, #16]
 572              		.loc 1 485 0
 573 0030 6161     		str	r1, [r4, #20]
 574              		.loc 1 513 0
 575 0032 FFF7FEFF 		bl	uartObjectInit
 576              		.loc 1 514 0
 577 0036 4FF4A053 		mov	r3, #5120
 578              		.loc 1 515 0
 579 003a 06F13C02 		add	r2, r6, #60
 580              		.loc 1 514 0
 581 003e C4F20103 		movt	r3, 16385
 582              		.loc 1 516 0
 583 0042 7836     		adds	r6, r6, #120
 584              		.loc 1 514 0
 585 0044 AB60     		str	r3, [r5, #8]
 586              		.loc 1 515 0
 587 0046 2A61     		str	r2, [r5, #16]
 588              		.loc 1 516 0
 589 0048 6E61     		str	r6, [r5, #20]
 590              		.loc 1 518 0
 591 004a 70BD     		pop	{r4, r5, r6, pc}
 592              	.L39:
 593              		.align	2
 594              	.L38:
 595 004c 3C000000 		.word	_stm32_dma_streams+60
 596              		.cfi_endproc
 597              	.LFE127:
 598              		.size	uart_lld_init, .-uart_lld_init
 599              		.section	.text.uart_lld_start,"ax",%progbits
 600              		.align	2
 601              		.p2align 4,,15
 602              		.global	uart_lld_start
 603              		.thumb
 604              		.thumb_func
 605              		.type	uart_lld_start, %function
 606              	uart_lld_start:
 607              	.LFB128:
 608              		.loc 1 527 0
 609              		.cfi_startproc
 610              		@ args = 0, pretend = 0, frame = 0
 611              		@ frame_needed = 0, uses_anonymous_args = 0
 612              	.LVL29:
 613 0000 38B5     		push	{r3, r4, r5, lr}
 614              	.LCFI7:
 615              		.cfi_def_cfa_offset 16
 616              		.cfi_offset 14, -4
 617              		.cfi_offset 5, -8
 618              		.cfi_offset 4, -12
 619              		.cfi_offset 3, -16
ARM GAS  /tmp/ccg5DWGg.s 			page 12


 620              		.loc 1 529 0
 621 0002 0378     		ldrb	r3, [r0, #0]	@ zero_extendqisi2
 622 0004 012B     		cmp	r3, #1
 623              		.loc 1 527 0
 624 0006 0446     		mov	r4, r0
 625 0008 18BF     		it	ne
 626 000a 8568     		ldrne	r5, [r0, #8]
 627              		.loc 1 529 0
 628 000c 45D0     		beq	.L49
 629              	.LVL30:
 630              	.L41:
 631              		.loc 1 681 0
 632 000e 0022     		movs	r2, #0
 633 0010 A270     		strb	r2, [r4, #2]
 634              		.loc 1 682 0
 635 0012 6270     		strb	r2, [r4, #1]
 636              	.LVL31:
 637              	.LBB18:
 638              	.LBB19:
 639              		.loc 1 204 0
 640 0014 2046     		mov	r0, r4
 641 0016 FFF7FEFF 		bl	usart_stop
 642              		.loc 1 208 0
 643 001a A268     		ldr	r2, [r4, #8]
 644 001c 4FF48050 		mov	r0, #4096
 645 0020 C4F20100 		movt	r0, 16385
 646 0024 131A     		subs	r3, r2, r0
 647 0026 5942     		rsbs	r1, r3, #0
 648 0028 4FF4A05C 		mov	ip, #5120
 649 002c C4F2010C 		movt	ip, 16385
 650 0030 41EB0300 		adc	r0, r1, r3
 651 0034 6245     		cmp	r2, ip
 652 0036 14BF     		ite	ne
 653 0038 0346     		movne	r3, r0
 654 003a 40F00103 		orreq	r3, r0, #1
 655              		.loc 1 212 0
 656 003e 6268     		ldr	r2, [r4, #4]
 657              		.loc 1 208 0
 658 0040 13BB     		cbnz	r3, .L50
 659              		.loc 1 214 0
 660 0042 5169     		ldr	r1, [r2, #20]
 661 0044 4DF6806C 		movw	ip, #56960
 662 0048 C0F2802C 		movt	ip, 640
 663 004c BCFBF1F0 		udiv	r0, ip, r1
 664 0050 2881     		strh	r0, [r5, #8]	@ movhi
 665              	.L46:
 666              		.loc 1 230 0
 667 0052 B2F818C0 		ldrh	ip, [r2, #24]
 668              		.loc 1 223 0
 669 0056 518B     		ldrh	r1, [r2, #26]
 670              		.loc 1 224 0
 671 0058 B2F81CE0 		ldrh	lr, [r2, #28]
 672              		.loc 1 217 0
 673 005c 2888     		ldrh	r0, [r5, #0]
 674              		.loc 1 218 0
 675 005e A888     		ldrh	r0, [r5, #4]
 676              		.loc 1 230 0
ARM GAS  /tmp/ccg5DWGg.s 			page 13


 677 0060 4CF40450 		orr	r0, ip, #8448
 678              		.loc 1 224 0
 679 0064 4EF0C102 		orr	r2, lr, #193
 680              		.loc 1 223 0
 681 0068 41F0400C 		orr	ip, r1, #64
 682              		.loc 1 230 0
 683 006c 40F00C0E 		orr	lr, r0, #12
 684              		.loc 1 219 0
 685 0070 0023     		movs	r3, #0
 686              		.loc 1 233 0
 687 0072 2046     		mov	r0, r4
 688              		.loc 1 219 0
 689 0074 2B80     		strh	r3, [r5, #0]	@ movhi
 690              		.loc 1 223 0
 691 0076 A5F810C0 		strh	ip, [r5, #16]	@ movhi
 692              		.loc 1 224 0
 693 007a AA82     		strh	r2, [r5, #20]	@ movhi
 694              	.LVL32:
 695              		.loc 1 230 0
 696 007c A5F80CE0 		strh	lr, [r5, #12]	@ movhi
 697              	.LBE19:
 698              	.LBE18:
 699              		.loc 1 684 0
 700 0080 BDE83840 		pop	{r3, r4, r5, lr}
 701              	.LBB21:
 702              	.LBB20:
 703              		.loc 1 233 0
 704 0084 FFF7FEBF 		b	set_rx_idle_loop
 705              	.LVL33:
 706              	.L50:
 707              		.loc 1 212 0
 708 0088 5369     		ldr	r3, [r2, #20]
 709 008a 4FF43D4E 		mov	lr, #48384
 710 008e C0F2015E 		movt	lr, 1281
 711 0092 BEFBF3F1 		udiv	r1, lr, r3
 712 0096 2981     		strh	r1, [r5, #8]	@ movhi
 713 0098 DBE7     		b	.L46
 714              	.LVL34:
 715              	.L49:
 716              	.LBE20:
 717              	.LBE21:
 718              		.loc 1 552 0
 719 009a 40F20001 		movw	r1, #:lower16:.LANCHOR0
 720 009e C0F20001 		movt	r1, #:upper16:.LANCHOR0
 721 00a2 8842     		cmp	r0, r1
 722 00a4 1BD0     		beq	.L51
 723              		.loc 1 652 0
 724 00a6 40F20001 		movw	r1, #:lower16:.LANCHOR1
 725 00aa C0F20001 		movt	r1, #:upper16:.LANCHOR1
 726 00ae 8842     		cmp	r0, r1
 727 00b0 3AD0     		beq	.L52
 728              	.L43:
 729              		.loc 1 674 0
 730 00b2 6168     		ldr	r1, [r4, #4]
 731              		.loc 1 676 0
 732 00b4 2069     		ldr	r0, [r4, #16]
 733              		.loc 1 674 0
ARM GAS  /tmp/ccg5DWGg.s 			page 14


 734 00b6 0A8B     		ldrh	r2, [r1, #24]
 735              		.loc 1 677 0
 736 00b8 6369     		ldr	r3, [r4, #20]
 737              		.loc 1 676 0
 738 00ba 0168     		ldr	r1, [r0, #0]
 739              		.loc 1 677 0
 740 00bc 1868     		ldr	r0, [r3, #0]
 741              		.loc 1 674 0
 742 00be 02F4A055 		and	r5, r2, #5120
 743 00c2 B5F5805F 		cmp	r5, #4096
 744              		.loc 1 675 0
 745 00c6 02BF     		ittt	eq
 746 00c8 E568     		ldreq	r5, [r4, #12]
 747 00ca 45F42055 		orreq	r5, r5, #10240
 748 00ce E560     		streq	r5, [r4, #12]
 749              		.loc 1 676 0
 750 00d0 A568     		ldr	r5, [r4, #8]
 751 00d2 2A1D     		adds	r2, r5, #4
 752 00d4 8A60     		str	r2, [r1, #8]
 753              		.loc 1 678 0
 754 00d6 0021     		movs	r1, #0
 755              		.loc 1 677 0
 756 00d8 8260     		str	r2, [r0, #8]
 757              		.loc 1 678 0
 758 00da 2183     		strh	r1, [r4, #24]	@ movhi
 759 00dc 97E7     		b	.L41
 760              	.L51:
 761              	.LBB22:
 762              		.loc 1 554 0
 763 00de 40F20002 		movw	r2, #:lower16:uart_lld_serve_rx_end_irq
 764 00e2 0346     		mov	r3, r0
 765 00e4 0C21     		movs	r1, #12
 766 00e6 C0F20002 		movt	r2, #:upper16:uart_lld_serve_rx_end_irq
 767 00ea 0069     		ldr	r0, [r0, #16]
 768 00ec FFF7FEFF 		bl	dmaStreamAllocate
 769              		.loc 1 559 0
 770 00f0 40F20002 		movw	r2, #:lower16:uart_lld_serve_tx_end_irq
 771 00f4 C0F20002 		movt	r2, #:upper16:uart_lld_serve_tx_end_irq
 772 00f8 0C21     		movs	r1, #12
 773 00fa 2346     		mov	r3, r4
 774 00fc 6069     		ldr	r0, [r4, #20]
 775 00fe FFF7FEFF 		bl	dmaStreamAllocate
 776              		.loc 1 564 0
 777 0102 4FF4605C 		mov	ip, #14336
 778 0106 C4F2020C 		movt	ip, 16386
 779              		.loc 1 565 0
 780 010a 2620     		movs	r0, #38
 781              		.loc 1 564 0
 782 010c DCF84030 		ldr	r3, [ip, #64]
 783 0110 43F40035 		orr	r5, r3, #131072
 784 0114 CCF84050 		str	r5, [ip, #64]
 785              		.loc 1 565 0
 786 0118 C021     		movs	r1, #192
 787 011a FFF7FEFF 		bl	nvicEnableVector
 788              		.loc 1 567 0
 789 011e E268     		ldr	r2, [r4, #12]
 790 0120 42F00060 		orr	r0, r2, #134217728
ARM GAS  /tmp/ccg5DWGg.s 			page 15


 791 0124 E060     		str	r0, [r4, #12]
 792 0126 C4E7     		b	.L43
 793              	.L52:
 794              	.LBE22:
 795              	.LBB23:
 796              		.loc 1 654 0
 797 0128 40F20002 		movw	r2, #:lower16:uart_lld_serve_rx_end_irq
 798 012c 0346     		mov	r3, r0
 799 012e 0C21     		movs	r1, #12
 800 0130 C0F20002 		movt	r2, #:upper16:uart_lld_serve_rx_end_irq
 801 0134 0069     		ldr	r0, [r0, #16]
 802 0136 FFF7FEFF 		bl	dmaStreamAllocate
 803              		.loc 1 659 0
 804 013a 40F20002 		movw	r2, #:lower16:uart_lld_serve_tx_end_irq
 805 013e C0F20002 		movt	r2, #:upper16:uart_lld_serve_tx_end_irq
 806 0142 0C21     		movs	r1, #12
 807 0144 2346     		mov	r3, r4
 808 0146 6069     		ldr	r0, [r4, #20]
 809 0148 FFF7FEFF 		bl	dmaStreamAllocate
 810              		.loc 1 664 0
 811 014c 4FF4605C 		mov	ip, #14336
 812 0150 C4F2020C 		movt	ip, 16386
 813              		.loc 1 665 0
 814 0154 4720     		movs	r0, #71
 815              		.loc 1 664 0
 816 0156 DCF84430 		ldr	r3, [ip, #68]
 817 015a 43F02005 		orr	r5, r3, #32
 818 015e CCF84450 		str	r5, [ip, #68]
 819              		.loc 1 665 0
 820 0162 C021     		movs	r1, #192
 821 0164 FFF7FEFF 		bl	nvicEnableVector
 822              		.loc 1 667 0
 823 0168 E268     		ldr	r2, [r4, #12]
 824 016a 42F02060 		orr	r0, r2, #167772160
 825 016e E060     		str	r0, [r4, #12]
 826 0170 9FE7     		b	.L43
 827              	.LBE23:
 828              		.cfi_endproc
 829              	.LFE128:
 830              		.size	uart_lld_start, .-uart_lld_start
 831 0172 00BFAFF3 		.section	.text.uart_lld_stop,"ax",%progbits
 831      0080AFF3 
 831      0080AFF3 
 831      0080
 832              		.align	2
 833              		.p2align 4,,15
 834              		.global	uart_lld_stop
 835              		.thumb
 836              		.thumb_func
 837              		.type	uart_lld_stop, %function
 838              	uart_lld_stop:
 839              	.LFB129:
 840              		.loc 1 693 0
 841              		.cfi_startproc
 842              		@ args = 0, pretend = 0, frame = 0
 843              		@ frame_needed = 0, uses_anonymous_args = 0
 844              	.LVL35:
ARM GAS  /tmp/ccg5DWGg.s 			page 16


 845              		.loc 1 695 0
 846 0000 0378     		ldrb	r3, [r0, #0]	@ zero_extendqisi2
 847 0002 022B     		cmp	r3, #2
 848              		.loc 1 693 0
 849 0004 10B5     		push	{r4, lr}
 850              	.LCFI8:
 851              		.cfi_def_cfa_offset 8
 852              		.cfi_offset 14, -4
 853              		.cfi_offset 4, -8
 854              		.loc 1 693 0
 855 0006 0446     		mov	r4, r0
 856              		.loc 1 695 0
 857 0008 00D0     		beq	.L56
 858              	.LVL36:
 859              	.L53:
 860 000a 10BD     		pop	{r4, pc}
 861              	.L56:
 862              		.loc 1 696 0
 863 000c FFF7FEFF 		bl	usart_stop
 864              		.loc 1 697 0
 865 0010 2069     		ldr	r0, [r4, #16]
 866 0012 FFF7FEFF 		bl	dmaStreamRelease
 867              		.loc 1 698 0
 868 0016 6069     		ldr	r0, [r4, #20]
 869 0018 FFF7FEFF 		bl	dmaStreamRelease
 870              		.loc 1 709 0
 871 001c 40F20000 		movw	r0, #:lower16:.LANCHOR0
 872 0020 C0F20000 		movt	r0, #:upper16:.LANCHOR0
 873 0024 8442     		cmp	r4, r0
 874 0026 13D0     		beq	.L57
 875              		.loc 1 741 0
 876 0028 40F20000 		movw	r0, #:lower16:.LANCHOR1
 877 002c C0F20000 		movt	r0, #:upper16:.LANCHOR1
 878 0030 8442     		cmp	r4, r0
 879 0032 EAD1     		bne	.L53
 880              		.loc 1 742 0
 881 0034 4720     		movs	r0, #71
 882 0036 FFF7FEFF 		bl	nvicDisableVector
 883              		.loc 1 743 0
 884 003a 4FF4605C 		mov	ip, #14336
 885 003e C4F2020C 		movt	ip, 16386
 886 0042 DCF84410 		ldr	r1, [ip, #68]
 887 0046 21F02002 		bic	r2, r1, #32
 888 004a CCF84420 		str	r2, [ip, #68]
 889              		.loc 1 744 0
 890 004e DCE7     		b	.L53
 891              	.L57:
 892              		.loc 1 710 0
 893 0050 2620     		movs	r0, #38
 894 0052 FFF7FEFF 		bl	nvicDisableVector
 895              		.loc 1 711 0
 896 0056 4FF46051 		mov	r1, #14336
 897 005a C4F20201 		movt	r1, 16386
 898 005e 0B6C     		ldr	r3, [r1, #64]
 899 0060 23F40032 		bic	r2, r3, #131072
 900 0064 0A64     		str	r2, [r1, #64]
 901              		.loc 1 712 0
ARM GAS  /tmp/ccg5DWGg.s 			page 17


 902 0066 10BD     		pop	{r4, pc}
 903              		.cfi_endproc
 904              	.LFE129:
 905              		.size	uart_lld_stop, .-uart_lld_stop
 906 0068 AFF30080 		.section	.text.uart_lld_start_send,"ax",%progbits
 906      AFF30080 
 907              		.align	2
 908              		.p2align 4,,15
 909              		.global	uart_lld_start_send
 910              		.thumb
 911              		.thumb_func
 912              		.type	uart_lld_start_send, %function
 913              	uart_lld_start_send:
 914              	.LFB130:
 915              		.loc 1 761 0
 916              		.cfi_startproc
 917              		@ args = 0, pretend = 0, frame = 0
 918              		@ frame_needed = 0, uses_anonymous_args = 0
 919              		@ link register save eliminated.
 920              	.LVL37:
 921              		.loc 1 764 0
 922 0000 4369     		ldr	r3, [r0, #20]
 923              		.loc 1 766 0
 924 0002 C068     		ldr	r0, [r0, #12]
 925              	.LVL38:
 926              		.loc 1 764 0
 927 0004 1B68     		ldr	r3, [r3, #0]
 928              		.loc 1 766 0
 929 0006 40F48A60 		orr	r0, r0, #1104
 930              		.loc 1 764 0
 931 000a DA60     		str	r2, [r3, #12]
 932              		.loc 1 765 0
 933 000c 5960     		str	r1, [r3, #4]
 934              		.loc 1 766 0
 935 000e 1860     		str	r0, [r3, #0]
 936              		.loc 1 768 0
 937 0010 1868     		ldr	r0, [r3, #0]
 938 0012 40F00102 		orr	r2, r0, #1
 939              	.LVL39:
 940 0016 1A60     		str	r2, [r3, #0]
 941              		.loc 1 769 0
 942 0018 7047     		bx	lr
 943              		.cfi_endproc
 944              	.LFE130:
 945              		.size	uart_lld_start_send, .-uart_lld_start_send
 946 001a 00BFAFF3 		.section	.text.uart_lld_stop_send,"ax",%progbits
 946      0080
 947              		.align	2
 948              		.p2align 4,,15
 949              		.global	uart_lld_stop_send
 950              		.thumb
 951              		.thumb_func
 952              		.type	uart_lld_stop_send, %function
 953              	uart_lld_stop_send:
 954              	.LFB131:
 955              		.loc 1 782 0
 956              		.cfi_startproc
ARM GAS  /tmp/ccg5DWGg.s 			page 18


 957              		@ args = 0, pretend = 0, frame = 0
 958              		@ frame_needed = 0, uses_anonymous_args = 0
 959              		@ link register save eliminated.
 960              	.LVL40:
 961              		.loc 1 784 0
 962 0000 4169     		ldr	r1, [r0, #20]
 963 0002 0A68     		ldr	r2, [r1, #0]
 964 0004 1068     		ldr	r0, [r2, #0]
 965              	.LVL41:
 966 0006 20F01F03 		bic	r3, r0, #31
 967 000a 1360     		str	r3, [r2, #0]
 968              	.L60:
 969              		.loc 1 784 0 is_stmt 0 discriminator 1
 970 000c 1368     		ldr	r3, [r2, #0]
 971 000e DB07     		lsls	r3, r3, #31
 972 0010 FCD4     		bmi	.L60
 973              		.loc 1 784 0 discriminator 2
 974 0012 087A     		ldrb	r0, [r1, #8]	@ zero_extendqisi2
 975 0014 4B68     		ldr	r3, [r1, #4]
 976 0016 3D21     		movs	r1, #61
 977 0018 8140     		lsls	r1, r1, r0
 978 001a 1960     		str	r1, [r3, #0]
 979              		.loc 1 785 0 is_stmt 1 discriminator 2
 980 001c 5068     		ldr	r0, [r2, #4]
 981              		.loc 1 786 0 discriminator 2
 982 001e 7047     		bx	lr
 983              		.cfi_endproc
 984              	.LFE131:
 985              		.size	uart_lld_stop_send, .-uart_lld_stop_send
 986              		.section	.text.uart_lld_start_receive,"ax",%progbits
 987              		.align	2
 988              		.p2align 4,,15
 989              		.global	uart_lld_start_receive
 990              		.thumb
 991              		.thumb_func
 992              		.type	uart_lld_start_receive, %function
 993              	uart_lld_start_receive:
 994              	.LFB132:
 995              		.loc 1 799 0
 996              		.cfi_startproc
 997              		@ args = 0, pretend = 0, frame = 0
 998              		@ frame_needed = 0, uses_anonymous_args = 0
 999              		@ link register save eliminated.
 1000              	.LVL42:
 1001 0000 70B4     		push	{r4, r5, r6}
 1002              	.LCFI9:
 1003              		.cfi_def_cfa_offset 12
 1004              		.cfi_offset 6, -4
 1005              		.cfi_offset 5, -8
 1006              		.cfi_offset 4, -12
 1007              		.loc 1 802 0
 1008 0002 0469     		ldr	r4, [r0, #16]
 1009 0004 2368     		ldr	r3, [r4, #0]
 1010 0006 1E68     		ldr	r6, [r3, #0]
 1011 0008 26F01F05 		bic	r5, r6, #31
 1012 000c 1D60     		str	r5, [r3, #0]
 1013              	.L63:
ARM GAS  /tmp/ccg5DWGg.s 			page 19


 1014              		.loc 1 802 0 is_stmt 0 discriminator 1
 1015 000e 1D68     		ldr	r5, [r3, #0]
 1016 0010 ED07     		lsls	r5, r5, #31
 1017 0012 FCD4     		bmi	.L63
 1018              		.loc 1 802 0 discriminator 2
 1019 0014 257A     		ldrb	r5, [r4, #8]	@ zero_extendqisi2
 1020 0016 6468     		ldr	r4, [r4, #4]
 1021 0018 3D26     		movs	r6, #61
 1022 001a 16FA05F5 		lsls	r5, r6, r5
 1023 001e 2560     		str	r5, [r4, #0]
 1024              		.loc 1 807 0 is_stmt 1 discriminator 2
 1025 0020 C068     		ldr	r0, [r0, #12]
 1026              	.LVL43:
 1027              		.loc 1 805 0 discriminator 2
 1028 0022 DA60     		str	r2, [r3, #12]
 1029              		.loc 1 807 0 discriminator 2
 1030 0024 40F48262 		orr	r2, r0, #1040
 1031              	.LVL44:
 1032              		.loc 1 806 0 discriminator 2
 1033 0028 5960     		str	r1, [r3, #4]
 1034              		.loc 1 807 0 discriminator 2
 1035 002a 1A60     		str	r2, [r3, #0]
 1036              		.loc 1 809 0 discriminator 2
 1037 002c 1868     		ldr	r0, [r3, #0]
 1038 002e 40F00102 		orr	r2, r0, #1
 1039 0032 1A60     		str	r2, [r3, #0]
 1040              		.loc 1 810 0 discriminator 2
 1041 0034 70BC     		pop	{r4, r5, r6}
 1042 0036 7047     		bx	lr
 1043              		.cfi_endproc
 1044              	.LFE132:
 1045              		.size	uart_lld_start_receive, .-uart_lld_start_receive
 1046 0038 AFF30080 		.section	.text.uart_lld_stop_receive,"ax",%progbits
 1046      AFF30080 
 1047              		.align	2
 1048              		.p2align 4,,15
 1049              		.global	uart_lld_stop_receive
 1050              		.thumb
 1051              		.thumb_func
 1052              		.type	uart_lld_stop_receive, %function
 1053              	uart_lld_stop_receive:
 1054              	.LFB133:
 1055              		.loc 1 823 0
 1056              		.cfi_startproc
 1057              		@ args = 0, pretend = 0, frame = 0
 1058              		@ frame_needed = 0, uses_anonymous_args = 0
 1059              	.LVL45:
 1060              		.loc 1 826 0
 1061 0000 0169     		ldr	r1, [r0, #16]
 1062 0002 0A68     		ldr	r2, [r1, #0]
 1063              		.loc 1 823 0
 1064 0004 10B5     		push	{r4, lr}
 1065              	.LCFI10:
 1066              		.cfi_def_cfa_offset 8
 1067              		.cfi_offset 14, -4
 1068              		.cfi_offset 4, -8
 1069              		.loc 1 826 0
ARM GAS  /tmp/ccg5DWGg.s 			page 20


 1070 0006 1468     		ldr	r4, [r2, #0]
 1071 0008 24F01F03 		bic	r3, r4, #31
 1072 000c 1360     		str	r3, [r2, #0]
 1073              	.L66:
 1074              		.loc 1 826 0 is_stmt 0 discriminator 1
 1075 000e 1368     		ldr	r3, [r2, #0]
 1076 0010 DB07     		lsls	r3, r3, #31
 1077 0012 FCD4     		bmi	.L66
 1078              		.loc 1 826 0 discriminator 2
 1079 0014 0C7A     		ldrb	r4, [r1, #8]	@ zero_extendqisi2
 1080 0016 4B68     		ldr	r3, [r1, #4]
 1081 0018 3D21     		movs	r1, #61
 1082 001a A140     		lsls	r1, r1, r4
 1083 001c 1960     		str	r1, [r3, #0]
 1084              		.loc 1 827 0 is_stmt 1 discriminator 2
 1085 001e 5468     		ldr	r4, [r2, #4]
 1086              	.LVL46:
 1087              		.loc 1 828 0 discriminator 2
 1088 0020 FFF7FEFF 		bl	set_rx_idle_loop
 1089              	.LVL47:
 1090              		.loc 1 830 0 discriminator 2
 1091 0024 2046     		mov	r0, r4
 1092 0026 10BD     		pop	{r4, pc}
 1093              		.cfi_endproc
 1094              	.LFE133:
 1095              		.size	uart_lld_stop_receive, .-uart_lld_stop_receive
 1096              		.global	UARTD6
 1097              		.global	UARTD2
 1098 0028 AFF30080 		.section	.bss.UARTD2,"aw",%nobits
 1098      AFF30080 
 1099              		.align	2
 1100              		.set	.LANCHOR0,. + 0
 1101              		.type	UARTD2, %object
 1102              		.size	UARTD2, 28
 1103              	UARTD2:
 1104 0000 00000000 		.space	28
 1104      00000000 
 1104      00000000 
 1104      00000000 
 1104      00000000 
 1105              		.section	.bss.UARTD6,"aw",%nobits
 1106              		.align	2
 1107              		.set	.LANCHOR1,. + 0
 1108              		.type	UARTD6, %object
 1109              		.size	UARTD6, 28
 1110              	UARTD6:
 1111 0000 00000000 		.space	28
 1111      00000000 
 1111      00000000 
 1111      00000000 
 1111      00000000 
 1112              		.text
 1113              	.Letext0:
 1114              		.file 2 "/home/lithium/Documents/arm-2011q3/bin/../lib/gcc/arm-none-eabi/4.6.1/include/stddef.h"
 1115              		.file 3 "/home/lithium/Documents/arm-2011q3/bin/../lib/gcc/arm-none-eabi/4.6.1/../../../../arm-non
 1116              		.file 4 "../../os/ports/GCC/ARMCMx/chtypes.h"
 1117              		.file 5 "../../os/hal/platforms/STM32F4xx/stm32f4xx.h"
ARM GAS  /tmp/ccg5DWGg.s 			page 21


 1118              		.file 6 "../../os/hal/platforms/STM32F4xx/stm32_dma.h"
 1119              		.file 7 "../../os/hal/include/uart.h"
 1120              		.file 8 "../../os/hal/platforms/STM32/USARTv1/uart_lld.h"
 1121              		.file 9 "../../os/ports/common/ARMCMx/CMSIS/include/core_cm4.h"
 1122              		.section	.debug_info,"",%progbits
 1123              	.Ldebug_info0:
 1124 0000 5E0B0000 		.4byte	0xb5e
 1125 0004 0200     		.2byte	0x2
 1126 0006 00000000 		.4byte	.Ldebug_abbrev0
 1127 000a 04       		.byte	0x4
 1128 000b 01       		.uleb128 0x1
 1129 000c 32040000 		.4byte	.LASF116
 1130 0010 01       		.byte	0x1
 1131 0011 14050000 		.4byte	.LASF117
 1132 0015 65010000 		.4byte	.LASF118
 1133 0019 00000000 		.4byte	0
 1134 001d 00000000 		.4byte	0
 1135 0021 70000000 		.4byte	.Ldebug_ranges0+0x70
 1136 0025 00000000 		.4byte	.Ldebug_line0
 1137 0029 02       		.uleb128 0x2
 1138 002a 04       		.byte	0x4
 1139 002b 05       		.byte	0x5
 1140 002c 696E7400 		.ascii	"int\000"
 1141 0030 03       		.uleb128 0x3
 1142 0031 4A000000 		.4byte	.LASF2
 1143 0035 02       		.byte	0x2
 1144 0036 D4       		.byte	0xd4
 1145 0037 3B000000 		.4byte	0x3b
 1146 003b 04       		.uleb128 0x4
 1147 003c 04       		.byte	0x4
 1148 003d 07       		.byte	0x7
 1149 003e 0C020000 		.4byte	.LASF0
 1150 0042 04       		.uleb128 0x4
 1151 0043 01       		.byte	0x1
 1152 0044 06       		.byte	0x6
 1153 0045 EB000000 		.4byte	.LASF1
 1154 0049 03       		.uleb128 0x3
 1155 004a E4040000 		.4byte	.LASF3
 1156 004e 03       		.byte	0x3
 1157 004f 2A       		.byte	0x2a
 1158 0050 54000000 		.4byte	0x54
 1159 0054 04       		.uleb128 0x4
 1160 0055 01       		.byte	0x1
 1161 0056 08       		.byte	0x8
 1162 0057 D4030000 		.4byte	.LASF4
 1163 005b 04       		.uleb128 0x4
 1164 005c 02       		.byte	0x2
 1165 005d 05       		.byte	0x5
 1166 005e E2030000 		.4byte	.LASF5
 1167 0062 03       		.uleb128 0x3
 1168 0063 45010000 		.4byte	.LASF6
 1169 0067 03       		.byte	0x3
 1170 0068 36       		.byte	0x36
 1171 0069 6D000000 		.4byte	0x6d
 1172 006d 04       		.uleb128 0x4
 1173 006e 02       		.byte	0x2
 1174 006f 07       		.byte	0x7
ARM GAS  /tmp/ccg5DWGg.s 			page 22


 1175 0070 6B020000 		.4byte	.LASF7
 1176 0074 03       		.uleb128 0x3
 1177 0075 CC030000 		.4byte	.LASF8
 1178 0079 03       		.byte	0x3
 1179 007a 4F       		.byte	0x4f
 1180 007b 7F000000 		.4byte	0x7f
 1181 007f 04       		.uleb128 0x4
 1182 0080 04       		.byte	0x4
 1183 0081 05       		.byte	0x5
 1184 0082 33010000 		.4byte	.LASF9
 1185 0086 03       		.uleb128 0x3
 1186 0087 29040000 		.4byte	.LASF10
 1187 008b 03       		.byte	0x3
 1188 008c 50       		.byte	0x50
 1189 008d 91000000 		.4byte	0x91
 1190 0091 04       		.uleb128 0x4
 1191 0092 04       		.byte	0x4
 1192 0093 07       		.byte	0x7
 1193 0094 32020000 		.4byte	.LASF11
 1194 0098 04       		.uleb128 0x4
 1195 0099 08       		.byte	0x8
 1196 009a 05       		.byte	0x5
 1197 009b DD000000 		.4byte	.LASF12
 1198 009f 04       		.uleb128 0x4
 1199 00a0 08       		.byte	0x8
 1200 00a1 07       		.byte	0x7
 1201 00a2 4E010000 		.4byte	.LASF13
 1202 00a6 03       		.uleb128 0x3
 1203 00a7 82000000 		.4byte	.LASF14
 1204 00ab 04       		.byte	0x4
 1205 00ac 2B       		.byte	0x2b
 1206 00ad B1000000 		.4byte	0xb1
 1207 00b1 04       		.uleb128 0x4
 1208 00b2 01       		.byte	0x1
 1209 00b3 02       		.byte	0x2
 1210 00b4 C6030000 		.4byte	.LASF15
 1211 00b8 05       		.uleb128 0x5
 1212 00b9 04       		.byte	0x4
 1213 00ba 06       		.uleb128 0x6
 1214 00bb 86000000 		.4byte	0x86
 1215 00bf 04       		.uleb128 0x4
 1216 00c0 01       		.byte	0x1
 1217 00c1 08       		.byte	0x8
 1218 00c2 46040000 		.4byte	.LASF16
 1219 00c6 07       		.uleb128 0x7
 1220 00c7 86000000 		.4byte	0x86
 1221 00cb D6000000 		.4byte	0xd6
 1222 00cf 08       		.uleb128 0x8
 1223 00d0 3B000000 		.4byte	0x3b
 1224 00d4 01       		.byte	0x1
 1225 00d5 00       		.byte	0
 1226 00d6 06       		.uleb128 0x6
 1227 00d7 62000000 		.4byte	0x62
 1228 00db 06       		.uleb128 0x6
 1229 00dc 74000000 		.4byte	0x74
 1230 00e0 09       		.uleb128 0x9
 1231 00e1 18       		.byte	0x18
ARM GAS  /tmp/ccg5DWGg.s 			page 23


 1232 00e2 05       		.byte	0x5
 1233 00e3 B102     		.2byte	0x2b1
 1234 00e5 43010000 		.4byte	0x143
 1235 00e9 0A       		.uleb128 0xa
 1236 00ea 435200   		.ascii	"CR\000"
 1237 00ed 05       		.byte	0x5
 1238 00ee B302     		.2byte	0x2b3
 1239 00f0 BA000000 		.4byte	0xba
 1240 00f4 02       		.byte	0x2
 1241 00f5 23       		.byte	0x23
 1242 00f6 00       		.uleb128 0
 1243 00f7 0B       		.uleb128 0xb
 1244 00f8 84040000 		.4byte	.LASF17
 1245 00fc 05       		.byte	0x5
 1246 00fd B402     		.2byte	0x2b4
 1247 00ff BA000000 		.4byte	0xba
 1248 0103 02       		.byte	0x2
 1249 0104 23       		.byte	0x23
 1250 0105 04       		.uleb128 0x4
 1251 0106 0A       		.uleb128 0xa
 1252 0107 50415200 		.ascii	"PAR\000"
 1253 010b 05       		.byte	0x5
 1254 010c B502     		.2byte	0x2b5
 1255 010e BA000000 		.4byte	0xba
 1256 0112 02       		.byte	0x2
 1257 0113 23       		.byte	0x23
 1258 0114 08       		.uleb128 0x8
 1259 0115 0B       		.uleb128 0xb
 1260 0116 5B000000 		.4byte	.LASF18
 1261 011a 05       		.byte	0x5
 1262 011b B602     		.2byte	0x2b6
 1263 011d BA000000 		.4byte	0xba
 1264 0121 02       		.byte	0x2
 1265 0122 23       		.byte	0x23
 1266 0123 0C       		.uleb128 0xc
 1267 0124 0B       		.uleb128 0xb
 1268 0125 BE040000 		.4byte	.LASF19
 1269 0129 05       		.byte	0x5
 1270 012a B702     		.2byte	0x2b7
 1271 012c BA000000 		.4byte	0xba
 1272 0130 02       		.byte	0x2
 1273 0131 23       		.byte	0x23
 1274 0132 10       		.uleb128 0x10
 1275 0133 0A       		.uleb128 0xa
 1276 0134 46435200 		.ascii	"FCR\000"
 1277 0138 05       		.byte	0x5
 1278 0139 B802     		.2byte	0x2b8
 1279 013b BA000000 		.4byte	0xba
 1280 013f 02       		.byte	0x2
 1281 0140 23       		.byte	0x23
 1282 0141 14       		.uleb128 0x14
 1283 0142 00       		.byte	0
 1284 0143 0C       		.uleb128 0xc
 1285 0144 89040000 		.4byte	.LASF20
 1286 0148 05       		.byte	0x5
 1287 0149 B902     		.2byte	0x2b9
 1288 014b E0000000 		.4byte	0xe0
ARM GAS  /tmp/ccg5DWGg.s 			page 24


 1289 014f 09       		.uleb128 0x9
 1290 0150 90       		.byte	0x90
 1291 0151 05       		.byte	0x5
 1292 0152 5804     		.2byte	0x458
 1293 0154 3C030000 		.4byte	0x33c
 1294 0158 0A       		.uleb128 0xa
 1295 0159 435200   		.ascii	"CR\000"
 1296 015c 05       		.byte	0x5
 1297 015d 5A04     		.2byte	0x45a
 1298 015f BA000000 		.4byte	0xba
 1299 0163 02       		.byte	0x2
 1300 0164 23       		.byte	0x23
 1301 0165 00       		.uleb128 0
 1302 0166 0B       		.uleb128 0xb
 1303 0167 9F020000 		.4byte	.LASF21
 1304 016b 05       		.byte	0x5
 1305 016c 5B04     		.2byte	0x45b
 1306 016e BA000000 		.4byte	0xba
 1307 0172 02       		.byte	0x2
 1308 0173 23       		.byte	0x23
 1309 0174 04       		.uleb128 0x4
 1310 0175 0B       		.uleb128 0xb
 1311 0176 44050000 		.4byte	.LASF22
 1312 017a 05       		.byte	0x5
 1313 017b 5C04     		.2byte	0x45c
 1314 017d BA000000 		.4byte	0xba
 1315 0181 02       		.byte	0x2
 1316 0182 23       		.byte	0x23
 1317 0183 08       		.uleb128 0x8
 1318 0184 0A       		.uleb128 0xa
 1319 0185 43495200 		.ascii	"CIR\000"
 1320 0189 05       		.byte	0x5
 1321 018a 5D04     		.2byte	0x45d
 1322 018c BA000000 		.4byte	0xba
 1323 0190 02       		.byte	0x2
 1324 0191 23       		.byte	0x23
 1325 0192 0C       		.uleb128 0xc
 1326 0193 0B       		.uleb128 0xb
 1327 0194 00010000 		.4byte	.LASF23
 1328 0198 05       		.byte	0x5
 1329 0199 5E04     		.2byte	0x45e
 1330 019b BA000000 		.4byte	0xba
 1331 019f 02       		.byte	0x2
 1332 01a0 23       		.byte	0x23
 1333 01a1 10       		.uleb128 0x10
 1334 01a2 0B       		.uleb128 0xb
 1335 01a3 64040000 		.4byte	.LASF24
 1336 01a7 05       		.byte	0x5
 1337 01a8 5F04     		.2byte	0x45f
 1338 01aa BA000000 		.4byte	0xba
 1339 01ae 02       		.byte	0x2
 1340 01af 23       		.byte	0x23
 1341 01b0 14       		.uleb128 0x14
 1342 01b1 0B       		.uleb128 0xb
 1343 01b2 0A040000 		.4byte	.LASF25
 1344 01b6 05       		.byte	0x5
 1345 01b7 6004     		.2byte	0x460
ARM GAS  /tmp/ccg5DWGg.s 			page 25


 1346 01b9 BA000000 		.4byte	0xba
 1347 01bd 02       		.byte	0x2
 1348 01be 23       		.byte	0x23
 1349 01bf 18       		.uleb128 0x18
 1350 01c0 0B       		.uleb128 0xb
 1351 01c1 63030000 		.4byte	.LASF26
 1352 01c5 05       		.byte	0x5
 1353 01c6 6104     		.2byte	0x461
 1354 01c8 86000000 		.4byte	0x86
 1355 01cc 02       		.byte	0x2
 1356 01cd 23       		.byte	0x23
 1357 01ce 1C       		.uleb128 0x1c
 1358 01cf 0B       		.uleb128 0xb
 1359 01d0 49030000 		.4byte	.LASF27
 1360 01d4 05       		.byte	0x5
 1361 01d5 6204     		.2byte	0x462
 1362 01d7 BA000000 		.4byte	0xba
 1363 01db 02       		.byte	0x2
 1364 01dc 23       		.byte	0x23
 1365 01dd 20       		.uleb128 0x20
 1366 01de 0B       		.uleb128 0xb
 1367 01df 3C010000 		.4byte	.LASF28
 1368 01e3 05       		.byte	0x5
 1369 01e4 6304     		.2byte	0x463
 1370 01e6 BA000000 		.4byte	0xba
 1371 01ea 02       		.byte	0x2
 1372 01eb 23       		.byte	0x23
 1373 01ec 24       		.uleb128 0x24
 1374 01ed 0B       		.uleb128 0xb
 1375 01ee 6D030000 		.4byte	.LASF29
 1376 01f2 05       		.byte	0x5
 1377 01f3 6404     		.2byte	0x464
 1378 01f5 C6000000 		.4byte	0xc6
 1379 01f9 02       		.byte	0x2
 1380 01fa 23       		.byte	0x23
 1381 01fb 28       		.uleb128 0x28
 1382 01fc 0B       		.uleb128 0xb
 1383 01fd 0C050000 		.4byte	.LASF30
 1384 0201 05       		.byte	0x5
 1385 0202 6504     		.2byte	0x465
 1386 0204 BA000000 		.4byte	0xba
 1387 0208 02       		.byte	0x2
 1388 0209 23       		.byte	0x23
 1389 020a 30       		.uleb128 0x30
 1390 020b 0B       		.uleb128 0xb
 1391 020c 9C040000 		.4byte	.LASF31
 1392 0210 05       		.byte	0x5
 1393 0211 6604     		.2byte	0x466
 1394 0213 BA000000 		.4byte	0xba
 1395 0217 02       		.byte	0x2
 1396 0218 23       		.byte	0x23
 1397 0219 34       		.uleb128 0x34
 1398 021a 0B       		.uleb128 0xb
 1399 021b 10030000 		.4byte	.LASF32
 1400 021f 05       		.byte	0x5
 1401 0220 6704     		.2byte	0x467
 1402 0222 BA000000 		.4byte	0xba
ARM GAS  /tmp/ccg5DWGg.s 			page 26


 1403 0226 02       		.byte	0x2
 1404 0227 23       		.byte	0x23
 1405 0228 38       		.uleb128 0x38
 1406 0229 0B       		.uleb128 0xb
 1407 022a 77030000 		.4byte	.LASF33
 1408 022e 05       		.byte	0x5
 1409 022f 6804     		.2byte	0x468
 1410 0231 86000000 		.4byte	0x86
 1411 0235 02       		.byte	0x2
 1412 0236 23       		.byte	0x23
 1413 0237 3C       		.uleb128 0x3c
 1414 0238 0B       		.uleb128 0xb
 1415 0239 3E040000 		.4byte	.LASF34
 1416 023d 05       		.byte	0x5
 1417 023e 6904     		.2byte	0x469
 1418 0240 BA000000 		.4byte	0xba
 1419 0244 02       		.byte	0x2
 1420 0245 23       		.byte	0x23
 1421 0246 40       		.uleb128 0x40
 1422 0247 0B       		.uleb128 0xb
 1423 0248 02040000 		.4byte	.LASF35
 1424 024c 05       		.byte	0x5
 1425 024d 6A04     		.2byte	0x46a
 1426 024f BA000000 		.4byte	0xba
 1427 0253 02       		.byte	0x2
 1428 0254 23       		.byte	0x23
 1429 0255 44       		.uleb128 0x44
 1430 0256 0B       		.uleb128 0xb
 1431 0257 81030000 		.4byte	.LASF36
 1432 025b 05       		.byte	0x5
 1433 025c 6B04     		.2byte	0x46b
 1434 025e C6000000 		.4byte	0xc6
 1435 0262 02       		.byte	0x2
 1436 0263 23       		.byte	0x23
 1437 0264 48       		.uleb128 0x48
 1438 0265 0B       		.uleb128 0xb
 1439 0266 CB000000 		.4byte	.LASF37
 1440 026a 05       		.byte	0x5
 1441 026b 6C04     		.2byte	0x46c
 1442 026d BA000000 		.4byte	0xba
 1443 0271 02       		.byte	0x2
 1444 0272 23       		.byte	0x23
 1445 0273 50       		.uleb128 0x50
 1446 0274 0B       		.uleb128 0xb
 1447 0275 78000000 		.4byte	.LASF38
 1448 0279 05       		.byte	0x5
 1449 027a 6D04     		.2byte	0x46d
 1450 027c BA000000 		.4byte	0xba
 1451 0280 02       		.byte	0x2
 1452 0281 23       		.byte	0x23
 1453 0282 54       		.uleb128 0x54
 1454 0283 0B       		.uleb128 0xb
 1455 0284 EC030000 		.4byte	.LASF39
 1456 0288 05       		.byte	0x5
 1457 0289 6E04     		.2byte	0x46e
 1458 028b BA000000 		.4byte	0xba
 1459 028f 02       		.byte	0x2
ARM GAS  /tmp/ccg5DWGg.s 			page 27


 1460 0290 23       		.byte	0x23
 1461 0291 58       		.uleb128 0x58
 1462 0292 0B       		.uleb128 0xb
 1463 0293 8B030000 		.4byte	.LASF40
 1464 0297 05       		.byte	0x5
 1465 0298 6F04     		.2byte	0x46f
 1466 029a 86000000 		.4byte	0x86
 1467 029e 02       		.byte	0x2
 1468 029f 23       		.byte	0x23
 1469 02a0 5C       		.uleb128 0x5c
 1470 02a1 0B       		.uleb128 0xb
 1471 02a2 17000000 		.4byte	.LASF41
 1472 02a6 05       		.byte	0x5
 1473 02a7 7004     		.2byte	0x470
 1474 02a9 BA000000 		.4byte	0xba
 1475 02ad 02       		.byte	0x2
 1476 02ae 23       		.byte	0x23
 1477 02af 60       		.uleb128 0x60
 1478 02b0 0B       		.uleb128 0xb
 1479 02b1 B5020000 		.4byte	.LASF42
 1480 02b5 05       		.byte	0x5
 1481 02b6 7104     		.2byte	0x471
 1482 02b8 BA000000 		.4byte	0xba
 1483 02bc 02       		.byte	0x2
 1484 02bd 23       		.byte	0x23
 1485 02be 64       		.uleb128 0x64
 1486 02bf 0B       		.uleb128 0xb
 1487 02c0 95030000 		.4byte	.LASF43
 1488 02c4 05       		.byte	0x5
 1489 02c5 7204     		.2byte	0x472
 1490 02c7 C6000000 		.4byte	0xc6
 1491 02cb 02       		.byte	0x2
 1492 02cc 23       		.byte	0x23
 1493 02cd 68       		.uleb128 0x68
 1494 02ce 0B       		.uleb128 0xb
 1495 02cf C9040000 		.4byte	.LASF44
 1496 02d3 05       		.byte	0x5
 1497 02d4 7304     		.2byte	0x473
 1498 02d6 BA000000 		.4byte	0xba
 1499 02da 02       		.byte	0x2
 1500 02db 23       		.byte	0x23
 1501 02dc 70       		.uleb128 0x70
 1502 02dd 0A       		.uleb128 0xa
 1503 02de 43535200 		.ascii	"CSR\000"
 1504 02e2 05       		.byte	0x5
 1505 02e3 7404     		.2byte	0x474
 1506 02e5 BA000000 		.4byte	0xba
 1507 02e9 02       		.byte	0x2
 1508 02ea 23       		.byte	0x23
 1509 02eb 74       		.uleb128 0x74
 1510 02ec 0B       		.uleb128 0xb
 1511 02ed 9F030000 		.4byte	.LASF45
 1512 02f1 05       		.byte	0x5
 1513 02f2 7504     		.2byte	0x475
 1514 02f4 C6000000 		.4byte	0xc6
 1515 02f8 02       		.byte	0x2
 1516 02f9 23       		.byte	0x23
ARM GAS  /tmp/ccg5DWGg.s 			page 28


 1517 02fa 78       		.uleb128 0x78
 1518 02fb 0B       		.uleb128 0xb
 1519 02fc C3040000 		.4byte	.LASF46
 1520 0300 05       		.byte	0x5
 1521 0301 7604     		.2byte	0x476
 1522 0303 BA000000 		.4byte	0xba
 1523 0307 03       		.byte	0x3
 1524 0308 23       		.byte	0x23
 1525 0309 8001     		.uleb128 0x80
 1526 030b 0B       		.uleb128 0xb
 1527 030c 94020000 		.4byte	.LASF47
 1528 0310 05       		.byte	0x5
 1529 0311 7704     		.2byte	0x477
 1530 0313 BA000000 		.4byte	0xba
 1531 0317 03       		.byte	0x3
 1532 0318 23       		.byte	0x23
 1533 0319 8401     		.uleb128 0x84
 1534 031b 0B       		.uleb128 0xb
 1535 031c 52030000 		.4byte	.LASF48
 1536 0320 05       		.byte	0x5
 1537 0321 7804     		.2byte	0x478
 1538 0323 BA000000 		.4byte	0xba
 1539 0327 03       		.byte	0x3
 1540 0328 23       		.byte	0x23
 1541 0329 8801     		.uleb128 0x88
 1542 032b 0B       		.uleb128 0xb
 1543 032c D5000000 		.4byte	.LASF49
 1544 0330 05       		.byte	0x5
 1545 0331 7904     		.2byte	0x479
 1546 0333 BA000000 		.4byte	0xba
 1547 0337 03       		.byte	0x3
 1548 0338 23       		.byte	0x23
 1549 0339 8C01     		.uleb128 0x8c
 1550 033b 00       		.byte	0
 1551 033c 0C       		.uleb128 0xc
 1552 033d 4E020000 		.4byte	.LASF50
 1553 0341 05       		.byte	0x5
 1554 0342 7B04     		.2byte	0x47b
 1555 0344 4F010000 		.4byte	0x14f
 1556 0348 09       		.uleb128 0x9
 1557 0349 1C       		.byte	0x1c
 1558 034a 05       		.byte	0x5
 1559 034b 2905     		.2byte	0x529
 1560 034d 22040000 		.4byte	0x422
 1561 0351 0A       		.uleb128 0xa
 1562 0352 535200   		.ascii	"SR\000"
 1563 0355 05       		.byte	0x5
 1564 0356 2B05     		.2byte	0x52b
 1565 0358 D6000000 		.4byte	0xd6
 1566 035c 02       		.byte	0x2
 1567 035d 23       		.byte	0x23
 1568 035e 00       		.uleb128 0
 1569 035f 0B       		.uleb128 0xb
 1570 0360 63030000 		.4byte	.LASF26
 1571 0364 05       		.byte	0x5
 1572 0365 2C05     		.2byte	0x52c
 1573 0367 62000000 		.4byte	0x62
ARM GAS  /tmp/ccg5DWGg.s 			page 29


 1574 036b 02       		.byte	0x2
 1575 036c 23       		.byte	0x23
 1576 036d 02       		.uleb128 0x2
 1577 036e 0A       		.uleb128 0xa
 1578 036f 445200   		.ascii	"DR\000"
 1579 0372 05       		.byte	0x5
 1580 0373 2D05     		.2byte	0x52d
 1581 0375 D6000000 		.4byte	0xd6
 1582 0379 02       		.byte	0x2
 1583 037a 23       		.byte	0x23
 1584 037b 04       		.uleb128 0x4
 1585 037c 0B       		.uleb128 0xb
 1586 037d 6D030000 		.4byte	.LASF29
 1587 0381 05       		.byte	0x5
 1588 0382 2E05     		.2byte	0x52e
 1589 0384 62000000 		.4byte	0x62
 1590 0388 02       		.byte	0x2
 1591 0389 23       		.byte	0x23
 1592 038a 06       		.uleb128 0x6
 1593 038b 0A       		.uleb128 0xa
 1594 038c 42525200 		.ascii	"BRR\000"
 1595 0390 05       		.byte	0x5
 1596 0391 2F05     		.2byte	0x52f
 1597 0393 D6000000 		.4byte	0xd6
 1598 0397 02       		.byte	0x2
 1599 0398 23       		.byte	0x23
 1600 0399 08       		.uleb128 0x8
 1601 039a 0B       		.uleb128 0xb
 1602 039b 77030000 		.4byte	.LASF33
 1603 039f 05       		.byte	0x5
 1604 03a0 3005     		.2byte	0x530
 1605 03a2 62000000 		.4byte	0x62
 1606 03a6 02       		.byte	0x2
 1607 03a7 23       		.byte	0x23
 1608 03a8 0A       		.uleb128 0xa
 1609 03a9 0A       		.uleb128 0xa
 1610 03aa 43523100 		.ascii	"CR1\000"
 1611 03ae 05       		.byte	0x5
 1612 03af 3105     		.2byte	0x531
 1613 03b1 D6000000 		.4byte	0xd6
 1614 03b5 02       		.byte	0x2
 1615 03b6 23       		.byte	0x23
 1616 03b7 0C       		.uleb128 0xc
 1617 03b8 0B       		.uleb128 0xb
 1618 03b9 81030000 		.4byte	.LASF36
 1619 03bd 05       		.byte	0x5
 1620 03be 3205     		.2byte	0x532
 1621 03c0 62000000 		.4byte	0x62
 1622 03c4 02       		.byte	0x2
 1623 03c5 23       		.byte	0x23
 1624 03c6 0E       		.uleb128 0xe
 1625 03c7 0A       		.uleb128 0xa
 1626 03c8 43523200 		.ascii	"CR2\000"
 1627 03cc 05       		.byte	0x5
 1628 03cd 3305     		.2byte	0x533
 1629 03cf D6000000 		.4byte	0xd6
 1630 03d3 02       		.byte	0x2
ARM GAS  /tmp/ccg5DWGg.s 			page 30


 1631 03d4 23       		.byte	0x23
 1632 03d5 10       		.uleb128 0x10
 1633 03d6 0B       		.uleb128 0xb
 1634 03d7 8B030000 		.4byte	.LASF40
 1635 03db 05       		.byte	0x5
 1636 03dc 3405     		.2byte	0x534
 1637 03de 62000000 		.4byte	0x62
 1638 03e2 02       		.byte	0x2
 1639 03e3 23       		.byte	0x23
 1640 03e4 12       		.uleb128 0x12
 1641 03e5 0A       		.uleb128 0xa
 1642 03e6 43523300 		.ascii	"CR3\000"
 1643 03ea 05       		.byte	0x5
 1644 03eb 3505     		.2byte	0x535
 1645 03ed D6000000 		.4byte	0xd6
 1646 03f1 02       		.byte	0x2
 1647 03f2 23       		.byte	0x23
 1648 03f3 14       		.uleb128 0x14
 1649 03f4 0B       		.uleb128 0xb
 1650 03f5 95030000 		.4byte	.LASF43
 1651 03f9 05       		.byte	0x5
 1652 03fa 3605     		.2byte	0x536
 1653 03fc 62000000 		.4byte	0x62
 1654 0400 02       		.byte	0x2
 1655 0401 23       		.byte	0x23
 1656 0402 16       		.uleb128 0x16
 1657 0403 0B       		.uleb128 0xb
 1658 0404 09010000 		.4byte	.LASF51
 1659 0408 05       		.byte	0x5
 1660 0409 3705     		.2byte	0x537
 1661 040b D6000000 		.4byte	0xd6
 1662 040f 02       		.byte	0x2
 1663 0410 23       		.byte	0x23
 1664 0411 18       		.uleb128 0x18
 1665 0412 0B       		.uleb128 0xb
 1666 0413 9F030000 		.4byte	.LASF45
 1667 0417 05       		.byte	0x5
 1668 0418 3805     		.2byte	0x538
 1669 041a 62000000 		.4byte	0x62
 1670 041e 02       		.byte	0x2
 1671 041f 23       		.byte	0x23
 1672 0420 1A       		.uleb128 0x1a
 1673 0421 00       		.byte	0
 1674 0422 0C       		.uleb128 0xc
 1675 0423 A7020000 		.4byte	.LASF52
 1676 0427 05       		.byte	0x5
 1677 0428 3905     		.2byte	0x539
 1678 042a 48030000 		.4byte	0x348
 1679 042e 0D       		.uleb128 0xd
 1680 042f 0C       		.byte	0xc
 1681 0430 06       		.byte	0x6
 1682 0431 DA       		.byte	0xda
 1683 0432 7D040000 		.4byte	0x47d
 1684 0436 0E       		.uleb128 0xe
 1685 0437 60000000 		.4byte	.LASF53
 1686 043b 06       		.byte	0x6
 1687 043c DB       		.byte	0xdb
ARM GAS  /tmp/ccg5DWGg.s 			page 31


 1688 043d 7D040000 		.4byte	0x47d
 1689 0441 02       		.byte	0x2
 1690 0442 23       		.byte	0x23
 1691 0443 00       		.uleb128 0
 1692 0444 0E       		.uleb128 0xe
 1693 0445 24040000 		.4byte	.LASF54
 1694 0449 06       		.byte	0x6
 1695 044a DC       		.byte	0xdc
 1696 044b 83040000 		.4byte	0x483
 1697 044f 02       		.byte	0x2
 1698 0450 23       		.byte	0x23
 1699 0451 04       		.uleb128 0x4
 1700 0452 0E       		.uleb128 0xe
 1701 0453 64020000 		.4byte	.LASF55
 1702 0457 06       		.byte	0x6
 1703 0458 DD       		.byte	0xdd
 1704 0459 49000000 		.4byte	0x49
 1705 045d 02       		.byte	0x2
 1706 045e 23       		.byte	0x23
 1707 045f 08       		.uleb128 0x8
 1708 0460 0E       		.uleb128 0xe
 1709 0461 D1010000 		.4byte	.LASF56
 1710 0465 06       		.byte	0x6
 1711 0466 DF       		.byte	0xdf
 1712 0467 49000000 		.4byte	0x49
 1713 046b 02       		.byte	0x2
 1714 046c 23       		.byte	0x23
 1715 046d 09       		.uleb128 0x9
 1716 046e 0E       		.uleb128 0xe
 1717 046f 93000000 		.4byte	.LASF57
 1718 0473 06       		.byte	0x6
 1719 0474 E0       		.byte	0xe0
 1720 0475 49000000 		.4byte	0x49
 1721 0479 02       		.byte	0x2
 1722 047a 23       		.byte	0x23
 1723 047b 0A       		.uleb128 0xa
 1724 047c 00       		.byte	0
 1725 047d 0F       		.uleb128 0xf
 1726 047e 04       		.byte	0x4
 1727 047f 43010000 		.4byte	0x143
 1728 0483 0F       		.uleb128 0xf
 1729 0484 04       		.byte	0x4
 1730 0485 BA000000 		.4byte	0xba
 1731 0489 03       		.uleb128 0x3
 1732 048a A9030000 		.4byte	.LASF58
 1733 048e 06       		.byte	0x6
 1734 048f E1       		.byte	0xe1
 1735 0490 2E040000 		.4byte	0x42e
 1736 0494 03       		.uleb128 0x3
 1737 0495 16010000 		.4byte	.LASF59
 1738 0499 06       		.byte	0x6
 1739 049a EA       		.byte	0xea
 1740 049b 9F040000 		.4byte	0x49f
 1741 049f 0F       		.uleb128 0xf
 1742 04a0 04       		.byte	0x4
 1743 04a1 A5040000 		.4byte	0x4a5
 1744 04a5 10       		.uleb128 0x10
ARM GAS  /tmp/ccg5DWGg.s 			page 32


 1745 04a6 01       		.byte	0x1
 1746 04a7 B6040000 		.4byte	0x4b6
 1747 04ab 11       		.uleb128 0x11
 1748 04ac B8000000 		.4byte	0xb8
 1749 04b0 11       		.uleb128 0x11
 1750 04b1 86000000 		.4byte	0x86
 1751 04b5 00       		.byte	0
 1752 04b6 0F       		.uleb128 0xf
 1753 04b7 04       		.byte	0x4
 1754 04b8 BC040000 		.4byte	0x4bc
 1755 04bc 12       		.uleb128 0x12
 1756 04bd 89040000 		.4byte	0x489
 1757 04c1 13       		.uleb128 0x13
 1758 04c2 01       		.byte	0x1
 1759 04c3 07       		.byte	0x7
 1760 04c4 48       		.byte	0x48
 1761 04c5 DC040000 		.4byte	0x4dc
 1762 04c9 14       		.uleb128 0x14
 1763 04ca 7E020000 		.4byte	.LASF60
 1764 04ce 00       		.sleb128 0
 1765 04cf 14       		.uleb128 0x14
 1766 04d0 8A020000 		.4byte	.LASF61
 1767 04d4 01       		.sleb128 1
 1768 04d5 14       		.uleb128 0x14
 1769 04d6 EC010000 		.4byte	.LASF62
 1770 04da 02       		.sleb128 2
 1771 04db 00       		.byte	0
 1772 04dc 03       		.uleb128 0x3
 1773 04dd F6030000 		.4byte	.LASF63
 1774 04e1 07       		.byte	0x7
 1775 04e2 4C       		.byte	0x4c
 1776 04e3 C1040000 		.4byte	0x4c1
 1777 04e7 13       		.uleb128 0x13
 1778 04e8 01       		.byte	0x1
 1779 04e9 07       		.byte	0x7
 1780 04ea 51       		.byte	0x51
 1781 04eb 02050000 		.4byte	0x502
 1782 04ef 14       		.uleb128 0x14
 1783 04f0 77040000 		.4byte	.LASF64
 1784 04f4 00       		.sleb128 0
 1785 04f5 14       		.uleb128 0x14
 1786 04f6 F7010000 		.4byte	.LASF65
 1787 04fa 01       		.sleb128 1
 1788 04fb 14       		.uleb128 0x14
 1789 04fc 13040000 		.4byte	.LASF66
 1790 0500 02       		.sleb128 2
 1791 0501 00       		.byte	0
 1792 0502 03       		.uleb128 0x3
 1793 0503 3B030000 		.4byte	.LASF67
 1794 0507 07       		.byte	0x7
 1795 0508 55       		.byte	0x55
 1796 0509 E7040000 		.4byte	0x4e7
 1797 050d 13       		.uleb128 0x13
 1798 050e 01       		.byte	0x1
 1799 050f 07       		.byte	0x7
 1800 0510 5A       		.byte	0x5a
 1801 0511 28050000 		.4byte	0x528
ARM GAS  /tmp/ccg5DWGg.s 			page 33


 1802 0515 14       		.uleb128 0x14
 1803 0516 57040000 		.4byte	.LASF68
 1804 051a 00       		.sleb128 0
 1805 051b 14       		.uleb128 0x14
 1806 051c 2D000000 		.4byte	.LASF69
 1807 0520 01       		.sleb128 1
 1808 0521 14       		.uleb128 0x14
 1809 0522 F6020000 		.4byte	.LASF70
 1810 0526 02       		.sleb128 2
 1811 0527 00       		.byte	0
 1812 0528 03       		.uleb128 0x3
 1813 0529 A9010000 		.4byte	.LASF71
 1814 052d 07       		.byte	0x7
 1815 052e 5E       		.byte	0x5e
 1816 052f 0D050000 		.4byte	0x50d
 1817 0533 0C       		.uleb128 0xc
 1818 0534 21000000 		.4byte	.LASF72
 1819 0538 08       		.byte	0x8
 1820 0539 FE01     		.2byte	0x1fe
 1821 053b 86000000 		.4byte	0x86
 1822 053f 0C       		.uleb128 0xc
 1823 0540 C6010000 		.4byte	.LASF73
 1824 0544 08       		.byte	0x8
 1825 0545 0302     		.2byte	0x203
 1826 0547 4B050000 		.4byte	0x54b
 1827 054b 15       		.uleb128 0x15
 1828 054c C6010000 		.4byte	.LASF73
 1829 0550 1C       		.byte	0x1c
 1830 0551 08       		.byte	0x8
 1831 0552 4B02     		.2byte	0x24b
 1832 0554 E0050000 		.4byte	0x5e0
 1833 0558 0B       		.uleb128 0xb
 1834 0559 25010000 		.4byte	.LASF74
 1835 055d 08       		.byte	0x8
 1836 055e 4F02     		.2byte	0x24f
 1837 0560 DC040000 		.4byte	0x4dc
 1838 0564 02       		.byte	0x2
 1839 0565 23       		.byte	0x23
 1840 0566 00       		.uleb128 0
 1841 0567 0B       		.uleb128 0xb
 1842 0568 2B010000 		.4byte	.LASF75
 1843 056c 08       		.byte	0x8
 1844 056d 5302     		.2byte	0x253
 1845 056f 02050000 		.4byte	0x502
 1846 0573 02       		.byte	0x2
 1847 0574 23       		.byte	0x23
 1848 0575 01       		.uleb128 0x1
 1849 0576 0B       		.uleb128 0xb
 1850 0577 0E010000 		.4byte	.LASF76
 1851 057b 08       		.byte	0x8
 1852 057c 5702     		.2byte	0x257
 1853 057e 28050000 		.4byte	0x528
 1854 0582 02       		.byte	0x2
 1855 0583 23       		.byte	0x23
 1856 0584 02       		.uleb128 0x2
 1857 0585 0B       		.uleb128 0xb
 1858 0586 50040000 		.4byte	.LASF77
ARM GAS  /tmp/ccg5DWGg.s 			page 34


 1859 058a 08       		.byte	0x8
 1860 058b 5B02     		.2byte	0x25b
 1861 058d E7060000 		.4byte	0x6e7
 1862 0591 02       		.byte	0x2
 1863 0592 23       		.byte	0x23
 1864 0593 04       		.uleb128 0x4
 1865 0594 0B       		.uleb128 0xb
 1866 0595 06020000 		.4byte	.LASF78
 1867 0599 08       		.byte	0x8
 1868 059a 6302     		.2byte	0x263
 1869 059c F2060000 		.4byte	0x6f2
 1870 05a0 02       		.byte	0x2
 1871 05a1 23       		.byte	0x23
 1872 05a2 08       		.uleb128 0x8
 1873 05a3 0B       		.uleb128 0xb
 1874 05a4 FE040000 		.4byte	.LASF79
 1875 05a8 08       		.byte	0x8
 1876 05a9 6702     		.2byte	0x267
 1877 05ab 86000000 		.4byte	0x86
 1878 05af 02       		.byte	0x2
 1879 05b0 23       		.byte	0x23
 1880 05b1 0C       		.uleb128 0xc
 1881 05b2 0B       		.uleb128 0xb
 1882 05b3 67000000 		.4byte	.LASF80
 1883 05b7 08       		.byte	0x8
 1884 05b8 6B02     		.2byte	0x26b
 1885 05ba B6040000 		.4byte	0x4b6
 1886 05be 02       		.byte	0x2
 1887 05bf 23       		.byte	0x23
 1888 05c0 10       		.uleb128 0x10
 1889 05c1 0B       		.uleb128 0xb
 1890 05c2 5D030000 		.4byte	.LASF81
 1891 05c6 08       		.byte	0x8
 1892 05c7 6F02     		.2byte	0x26f
 1893 05c9 B6040000 		.4byte	0x4b6
 1894 05cd 02       		.byte	0x2
 1895 05ce 23       		.byte	0x23
 1896 05cf 14       		.uleb128 0x14
 1897 05d0 0B       		.uleb128 0xb
 1898 05d1 C5000000 		.4byte	.LASF82
 1899 05d5 08       		.byte	0x8
 1900 05d6 7302     		.2byte	0x273
 1901 05d8 D6000000 		.4byte	0xd6
 1902 05dc 02       		.byte	0x2
 1903 05dd 23       		.byte	0x23
 1904 05de 18       		.uleb128 0x18
 1905 05df 00       		.byte	0
 1906 05e0 0C       		.uleb128 0xc
 1907 05e1 F7000000 		.4byte	.LASF83
 1908 05e5 08       		.byte	0x8
 1909 05e6 0A02     		.2byte	0x20a
 1910 05e8 EC050000 		.4byte	0x5ec
 1911 05ec 0F       		.uleb128 0xf
 1912 05ed 04       		.byte	0x4
 1913 05ee F2050000 		.4byte	0x5f2
 1914 05f2 10       		.uleb128 0x10
 1915 05f3 01       		.byte	0x1
ARM GAS  /tmp/ccg5DWGg.s 			page 35


 1916 05f4 FE050000 		.4byte	0x5fe
 1917 05f8 11       		.uleb128 0x11
 1918 05f9 FE050000 		.4byte	0x5fe
 1919 05fd 00       		.byte	0
 1920 05fe 0F       		.uleb128 0xf
 1921 05ff 04       		.byte	0x4
 1922 0600 3F050000 		.4byte	0x53f
 1923 0604 0C       		.uleb128 0xc
 1924 0605 89000000 		.4byte	.LASF84
 1925 0609 08       		.byte	0x8
 1926 060a 1202     		.2byte	0x212
 1927 060c 10060000 		.4byte	0x610
 1928 0610 0F       		.uleb128 0xf
 1929 0611 04       		.byte	0x4
 1930 0612 16060000 		.4byte	0x616
 1931 0616 10       		.uleb128 0x10
 1932 0617 01       		.byte	0x1
 1933 0618 27060000 		.4byte	0x627
 1934 061c 11       		.uleb128 0x11
 1935 061d FE050000 		.4byte	0x5fe
 1936 0621 11       		.uleb128 0x11
 1937 0622 62000000 		.4byte	0x62
 1938 0626 00       		.byte	0
 1939 0627 0C       		.uleb128 0xc
 1940 0628 44020000 		.4byte	.LASF85
 1941 062c 08       		.byte	0x8
 1942 062d 1A02     		.2byte	0x21a
 1943 062f 33060000 		.4byte	0x633
 1944 0633 0F       		.uleb128 0xf
 1945 0634 04       		.byte	0x4
 1946 0635 39060000 		.4byte	0x639
 1947 0639 10       		.uleb128 0x10
 1948 063a 01       		.byte	0x1
 1949 063b 4A060000 		.4byte	0x64a
 1950 063f 11       		.uleb128 0x11
 1951 0640 FE050000 		.4byte	0x5fe
 1952 0644 11       		.uleb128 0x11
 1953 0645 33050000 		.4byte	0x533
 1954 0649 00       		.byte	0
 1955 064a 09       		.uleb128 0x9
 1956 064b 20       		.byte	0x20
 1957 064c 08       		.byte	0x8
 1958 064d 2002     		.2byte	0x220
 1959 064f DB060000 		.4byte	0x6db
 1960 0653 0B       		.uleb128 0xb
 1961 0654 6D040000 		.4byte	.LASF86
 1962 0658 08       		.byte	0x8
 1963 0659 2402     		.2byte	0x224
 1964 065b E0050000 		.4byte	0x5e0
 1965 065f 02       		.byte	0x2
 1966 0660 23       		.byte	0x23
 1967 0661 00       		.uleb128 0
 1968 0662 0B       		.uleb128 0xb
 1969 0663 BC030000 		.4byte	.LASF87
 1970 0667 08       		.byte	0x8
 1971 0668 2802     		.2byte	0x228
 1972 066a E0050000 		.4byte	0x5e0
ARM GAS  /tmp/ccg5DWGg.s 			page 36


 1973 066e 02       		.byte	0x2
 1974 066f 23       		.byte	0x23
 1975 0670 04       		.uleb128 0x4
 1976 0671 0B       		.uleb128 0xb
 1977 0672 32030000 		.4byte	.LASF88
 1978 0676 08       		.byte	0x8
 1979 0677 2C02     		.2byte	0x22c
 1980 0679 E0050000 		.4byte	0x5e0
 1981 067d 02       		.byte	0x2
 1982 067e 23       		.byte	0x23
 1983 067f 08       		.uleb128 0x8
 1984 0680 0B       		.uleb128 0xb
 1985 0681 51000000 		.4byte	.LASF89
 1986 0685 08       		.byte	0x8
 1987 0686 3002     		.2byte	0x230
 1988 0688 04060000 		.4byte	0x604
 1989 068c 02       		.byte	0x2
 1990 068d 23       		.byte	0x23
 1991 068e 0C       		.uleb128 0xc
 1992 068f 0B       		.uleb128 0xb
 1993 0690 07030000 		.4byte	.LASF90
 1994 0694 08       		.byte	0x8
 1995 0695 3402     		.2byte	0x234
 1996 0697 27060000 		.4byte	0x627
 1997 069b 02       		.byte	0x2
 1998 069c 23       		.byte	0x23
 1999 069d 10       		.uleb128 0x10
 2000 069e 0B       		.uleb128 0xb
 2001 069f 06050000 		.4byte	.LASF91
 2002 06a3 08       		.byte	0x8
 2003 06a4 3902     		.2byte	0x239
 2004 06a6 86000000 		.4byte	0x86
 2005 06aa 02       		.byte	0x2
 2006 06ab 23       		.byte	0x23
 2007 06ac 14       		.uleb128 0x14
 2008 06ad 0A       		.uleb128 0xa
 2009 06ae 63723100 		.ascii	"cr1\000"
 2010 06b2 08       		.byte	0x8
 2011 06b3 3D02     		.2byte	0x23d
 2012 06b5 62000000 		.4byte	0x62
 2013 06b9 02       		.byte	0x2
 2014 06ba 23       		.byte	0x23
 2015 06bb 18       		.uleb128 0x18
 2016 06bc 0A       		.uleb128 0xa
 2017 06bd 63723200 		.ascii	"cr2\000"
 2018 06c1 08       		.byte	0x8
 2019 06c2 4102     		.2byte	0x241
 2020 06c4 62000000 		.4byte	0x62
 2021 06c8 02       		.byte	0x2
 2022 06c9 23       		.byte	0x23
 2023 06ca 1A       		.uleb128 0x1a
 2024 06cb 0A       		.uleb128 0xa
 2025 06cc 63723300 		.ascii	"cr3\000"
 2026 06d0 08       		.byte	0x8
 2027 06d1 4502     		.2byte	0x245
 2028 06d3 62000000 		.4byte	0x62
 2029 06d7 02       		.byte	0x2
ARM GAS  /tmp/ccg5DWGg.s 			page 37


 2030 06d8 23       		.byte	0x23
 2031 06d9 1C       		.uleb128 0x1c
 2032 06da 00       		.byte	0
 2033 06db 0C       		.uleb128 0xc
 2034 06dc AD000000 		.4byte	.LASF92
 2035 06e0 08       		.byte	0x8
 2036 06e1 4602     		.2byte	0x246
 2037 06e3 4A060000 		.4byte	0x64a
 2038 06e7 0F       		.uleb128 0xf
 2039 06e8 04       		.byte	0x4
 2040 06e9 ED060000 		.4byte	0x6ed
 2041 06ed 12       		.uleb128 0x12
 2042 06ee DB060000 		.4byte	0x6db
 2043 06f2 0F       		.uleb128 0xf
 2044 06f3 04       		.byte	0x4
 2045 06f4 22040000 		.4byte	0x422
 2046 06f8 16       		.uleb128 0x16
 2047 06f9 E5020000 		.4byte	.LASF119
 2048 06fd 01       		.byte	0x1
 2049 06fe 8B       		.byte	0x8b
 2050 06ff 01       		.byte	0x1
 2051 0700 33050000 		.4byte	0x533
 2052 0704 01       		.byte	0x1
 2053 0705 1F070000 		.4byte	0x71f
 2054 0709 17       		.uleb128 0x17
 2055 070a 737200   		.ascii	"sr\000"
 2056 070d 01       		.byte	0x1
 2057 070e 8B       		.byte	0x8b
 2058 070f 62000000 		.4byte	0x62
 2059 0713 18       		.uleb128 0x18
 2060 0714 73747300 		.ascii	"sts\000"
 2061 0718 01       		.byte	0x1
 2062 0719 8C       		.byte	0x8c
 2063 071a 33050000 		.4byte	0x533
 2064 071e 00       		.byte	0
 2065 071f 19       		.uleb128 0x19
 2066 0720 A4040000 		.4byte	.LASF95
 2067 0724 01       		.byte	0x1
 2068 0725 F2       		.byte	0xf2
 2069 0726 01       		.byte	0x1
 2070 0727 01       		.byte	0x1
 2071 0728 43070000 		.4byte	0x743
 2072 072c 1A       		.uleb128 0x1a
 2073 072d D8020000 		.4byte	.LASF93
 2074 0731 01       		.byte	0x1
 2075 0732 F2       		.byte	0xf2
 2076 0733 FE050000 		.4byte	0x5fe
 2077 0737 1A       		.uleb128 0x1a
 2078 0738 F8040000 		.4byte	.LASF94
 2079 073c 01       		.byte	0x1
 2080 073d F2       		.byte	0xf2
 2081 073e 86000000 		.4byte	0x86
 2082 0742 00       		.byte	0
 2083 0743 19       		.uleb128 0x19
 2084 0744 EC040000 		.4byte	.LASF96
 2085 0748 01       		.byte	0x1
 2086 0749 C7       		.byte	0xc7
ARM GAS  /tmp/ccg5DWGg.s 			page 38


 2087 074a 01       		.byte	0x1
 2088 074b 01       		.byte	0x1
 2089 074c 70070000 		.4byte	0x770
 2090 0750 1A       		.uleb128 0x1a
 2091 0751 D8020000 		.4byte	.LASF93
 2092 0755 01       		.byte	0x1
 2093 0756 C7       		.byte	0xc7
 2094 0757 FE050000 		.4byte	0x5fe
 2095 075b 18       		.uleb128 0x18
 2096 075c 63723100 		.ascii	"cr1\000"
 2097 0760 01       		.byte	0x1
 2098 0761 C8       		.byte	0xc8
 2099 0762 62000000 		.4byte	0x62
 2100 0766 18       		.uleb128 0x18
 2101 0767 7500     		.ascii	"u\000"
 2102 0769 01       		.byte	0x1
 2103 076a C9       		.byte	0xc9
 2104 076b F2060000 		.4byte	0x6f2
 2105 076f 00       		.byte	0
 2106 0770 1B       		.uleb128 0x1b
 2107 0771 DB010000 		.4byte	.LASF97
 2108 0775 01       		.byte	0x1
 2109 0776 A0       		.byte	0xa0
 2110 0777 01       		.byte	0x1
 2111 0778 00000000 		.4byte	.LFB119
 2112 077c 30000000 		.4byte	.LFE119
 2113 0780 02       		.byte	0x2
 2114 0781 7D       		.byte	0x7d
 2115 0782 00       		.sleb128 0
 2116 0783 A4070000 		.4byte	0x7a4
 2117 0787 1C       		.uleb128 0x1c
 2118 0788 D8020000 		.4byte	.LASF93
 2119 078c 01       		.byte	0x1
 2120 078d A0       		.byte	0xa0
 2121 078e FE050000 		.4byte	0x5fe
 2122 0792 00000000 		.4byte	.LLST0
 2123 0796 1D       		.uleb128 0x1d
 2124 0797 4B040000 		.4byte	.LASF100
 2125 079b 01       		.byte	0x1
 2126 079c A1       		.byte	0xa1
 2127 079d 86000000 		.4byte	0x86
 2128 07a1 01       		.byte	0x1
 2129 07a2 5C       		.byte	0x5c
 2130 07a3 00       		.byte	0
 2131 07a4 1E       		.uleb128 0x1e
 2132 07a5 6D000000 		.4byte	.LASF98
 2133 07a9 01       		.byte	0x1
 2134 07aa B5       		.byte	0xb5
 2135 07ab 01       		.byte	0x1
 2136 07ac 00000000 		.4byte	.LFB120
 2137 07b0 48000000 		.4byte	.LFE120
 2138 07b4 30000000 		.4byte	.LLST1
 2139 07b8 CC070000 		.4byte	0x7cc
 2140 07bc 1C       		.uleb128 0x1c
 2141 07bd D8020000 		.4byte	.LASF93
 2142 07c1 01       		.byte	0x1
 2143 07c2 B5       		.byte	0xb5
ARM GAS  /tmp/ccg5DWGg.s 			page 39


 2144 07c3 FE050000 		.4byte	0x5fe
 2145 07c7 50000000 		.4byte	.LLST2
 2146 07cb 00       		.byte	0
 2147 07cc 1F       		.uleb128 0x1f
 2148 07cd C8020000 		.4byte	.LASF99
 2149 07d1 01       		.byte	0x1
 2150 07d2 3D01     		.2byte	0x13d
 2151 07d4 01       		.byte	0x1
 2152 07d5 00000000 		.4byte	.LFB124
 2153 07d9 78000000 		.4byte	.LFE124
 2154 07dd 63000000 		.4byte	.LLST3
 2155 07e1 52080000 		.4byte	0x852
 2156 07e5 20       		.uleb128 0x20
 2157 07e6 D8020000 		.4byte	.LASF93
 2158 07ea 01       		.byte	0x1
 2159 07eb 3D01     		.2byte	0x13d
 2160 07ed FE050000 		.4byte	0x5fe
 2161 07f1 83000000 		.4byte	.LLST4
 2162 07f5 21       		.uleb128 0x21
 2163 07f6 737200   		.ascii	"sr\000"
 2164 07f9 01       		.byte	0x1
 2165 07fa 3E01     		.2byte	0x13e
 2166 07fc 62000000 		.4byte	0x62
 2167 0800 01       		.byte	0x1
 2168 0801 54       		.byte	0x54
 2169 0802 22       		.uleb128 0x22
 2170 0803 7500     		.ascii	"u\000"
 2171 0805 01       		.byte	0x1
 2172 0806 3F01     		.2byte	0x13f
 2173 0808 F2060000 		.4byte	0x6f2
 2174 080c A1000000 		.4byte	.LLST5
 2175 0810 21       		.uleb128 0x21
 2176 0811 63723100 		.ascii	"cr1\000"
 2177 0815 01       		.byte	0x1
 2178 0816 4001     		.2byte	0x140
 2179 0818 86000000 		.4byte	0x86
 2180 081c 07       		.byte	0x7
 2181 081d 77       		.byte	0x77
 2182 081e 00       		.sleb128 0
 2183 081f 40       		.byte	0x40
 2184 0820 24       		.byte	0x24
 2185 0821 40       		.byte	0x40
 2186 0822 25       		.byte	0x25
 2187 0823 9F       		.byte	0x9f
 2188 0824 23       		.uleb128 0x23
 2189 0825 F8060000 		.4byte	0x6f8
 2190 0829 26000000 		.4byte	.LBB8
 2191 082d 4E000000 		.4byte	.LBE8
 2192 0831 01       		.byte	0x1
 2193 0832 4901     		.2byte	0x149
 2194 0834 24       		.uleb128 0x24
 2195 0835 09070000 		.4byte	0x709
 2196 0839 CC000000 		.4byte	.LLST6
 2197 083d 25       		.uleb128 0x25
 2198 083e 26000000 		.4byte	.LBB9
 2199 0842 4E000000 		.4byte	.LBE9
 2200 0846 26       		.uleb128 0x26
ARM GAS  /tmp/ccg5DWGg.s 			page 40


 2201 0847 13070000 		.4byte	0x713
 2202 084b DF000000 		.4byte	.LLST7
 2203 084f 00       		.byte	0
 2204 0850 00       		.byte	0
 2205 0851 00       		.byte	0
 2206 0852 1F       		.uleb128 0x1f
 2207 0853 18030000 		.4byte	.LASF101
 2208 0857 01       		.byte	0x1
 2209 0858 1A01     		.2byte	0x11a
 2210 085a 01       		.byte	0x1
 2211 085b 00000000 		.4byte	.LFB123
 2212 085f 5C000000 		.4byte	.LFE123
 2213 0863 FE000000 		.4byte	.LLST8
 2214 0867 8C080000 		.4byte	0x88c
 2215 086b 20       		.uleb128 0x20
 2216 086c D8020000 		.4byte	.LASF93
 2217 0870 01       		.byte	0x1
 2218 0871 1A01     		.2byte	0x11a
 2219 0873 FE050000 		.4byte	0x5fe
 2220 0877 1E010000 		.4byte	.LLST9
 2221 087b 20       		.uleb128 0x20
 2222 087c F8040000 		.4byte	.LASF94
 2223 0880 01       		.byte	0x1
 2224 0881 1A01     		.2byte	0x11a
 2225 0883 86000000 		.4byte	0x86
 2226 0887 3C010000 		.4byte	.LLST10
 2227 088b 00       		.byte	0
 2228 088c 27       		.uleb128 0x27
 2229 088d 1F070000 		.4byte	0x71f
 2230 0891 00000000 		.4byte	.LFB122
 2231 0895 64000000 		.4byte	.LFE122
 2232 0899 5A010000 		.4byte	.LLST11
 2233 089d D8080000 		.4byte	0x8d8
 2234 08a1 24       		.uleb128 0x24
 2235 08a2 2C070000 		.4byte	0x72c
 2236 08a6 7A010000 		.4byte	.LLST12
 2237 08aa 24       		.uleb128 0x24
 2238 08ab 37070000 		.4byte	0x737
 2239 08af 98010000 		.4byte	.LLST13
 2240 08b3 28       		.uleb128 0x28
 2241 08b4 1F070000 		.4byte	0x71f
 2242 08b8 1E000000 		.4byte	.LBB12
 2243 08bc 00000000 		.4byte	.Ldebug_ranges0+0
 2244 08c0 01       		.byte	0x1
 2245 08c1 F2       		.byte	0xf2
 2246 08c2 24       		.uleb128 0x24
 2247 08c3 2C070000 		.4byte	0x72c
 2248 08c7 B6010000 		.4byte	.LLST14
 2249 08cb 29       		.uleb128 0x29
 2250 08cc 20000000 		.4byte	.Ldebug_ranges0+0x20
 2251 08d0 2A       		.uleb128 0x2a
 2252 08d1 37070000 		.4byte	0x737
 2253 08d5 00       		.byte	0
 2254 08d6 00       		.byte	0
 2255 08d7 00       		.byte	0
 2256 08d8 2B       		.uleb128 0x2b
 2257 08d9 01       		.byte	0x1
ARM GAS  /tmp/ccg5DWGg.s 			page 41


 2258 08da BF020000 		.4byte	.LASF102
 2259 08de 01       		.byte	0x1
 2260 08df 7701     		.2byte	0x177
 2261 08e1 01       		.byte	0x1
 2262 08e2 00000000 		.4byte	.LFB125
 2263 08e6 16000000 		.4byte	.LFE125
 2264 08ea D4010000 		.4byte	.LLST15
 2265 08ee 2B       		.uleb128 0x2b
 2266 08ef 01       		.byte	0x1
 2267 08f0 5A020000 		.4byte	.LASF103
 2268 08f4 01       		.byte	0x1
 2269 08f5 C301     		.2byte	0x1c3
 2270 08f7 01       		.byte	0x1
 2271 08f8 00000000 		.4byte	.LFB126
 2272 08fc 16000000 		.4byte	.LFE126
 2273 0900 F4010000 		.4byte	.LLST16
 2274 0904 2B       		.uleb128 0x2b
 2275 0905 01       		.byte	0x1
 2276 0906 3C000000 		.4byte	.LASF104
 2277 090a 01       		.byte	0x1
 2278 090b D601     		.2byte	0x1d6
 2279 090d 01       		.byte	0x1
 2280 090e 00000000 		.4byte	.LFB127
 2281 0912 50000000 		.4byte	.LFE127
 2282 0916 14020000 		.4byte	.LLST17
 2283 091a 2C       		.uleb128 0x2c
 2284 091b 01       		.byte	0x1
 2285 091c B7010000 		.4byte	.LASF105
 2286 0920 01       		.byte	0x1
 2287 0921 0F02     		.2byte	0x20f
 2288 0923 01       		.byte	0x1
 2289 0924 00000000 		.4byte	.LFB128
 2290 0928 72010000 		.4byte	.LFE128
 2291 092c 34020000 		.4byte	.LLST18
 2292 0930 A7090000 		.4byte	0x9a7
 2293 0934 20       		.uleb128 0x20
 2294 0935 D8020000 		.4byte	.LASF93
 2295 0939 01       		.byte	0x1
 2296 093a 0F02     		.2byte	0x20f
 2297 093c FE050000 		.4byte	0x5fe
 2298 0940 54020000 		.4byte	.LLST19
 2299 0944 2D       		.uleb128 0x2d
 2300 0945 43070000 		.4byte	0x743
 2301 0949 14000000 		.4byte	.LBB18
 2302 094d 40000000 		.4byte	.Ldebug_ranges0+0x40
 2303 0951 01       		.byte	0x1
 2304 0952 AB02     		.2byte	0x2ab
 2305 0954 7A090000 		.4byte	0x97a
 2306 0958 24       		.uleb128 0x24
 2307 0959 50070000 		.4byte	0x750
 2308 095d 72020000 		.4byte	.LLST20
 2309 0961 29       		.uleb128 0x29
 2310 0962 58000000 		.4byte	.Ldebug_ranges0+0x58
 2311 0966 26       		.uleb128 0x26
 2312 0967 5B070000 		.4byte	0x75b
 2313 096b 85020000 		.4byte	.LLST21
 2314 096f 26       		.uleb128 0x26
ARM GAS  /tmp/ccg5DWGg.s 			page 42


 2315 0970 66070000 		.4byte	0x766
 2316 0974 9B020000 		.4byte	.LLST22
 2317 0978 00       		.byte	0
 2318 0979 00       		.byte	0
 2319 097a 2E       		.uleb128 0x2e
 2320 097b DE000000 		.4byte	.LBB22
 2321 097f 28010000 		.4byte	.LBE22
 2322 0983 92090000 		.4byte	0x992
 2323 0987 2F       		.uleb128 0x2f
 2324 0988 6200     		.ascii	"b\000"
 2325 098a 01       		.byte	0x1
 2326 098b 2902     		.2byte	0x229
 2327 098d A6000000 		.4byte	0xa6
 2328 0991 00       		.byte	0
 2329 0992 25       		.uleb128 0x25
 2330 0993 28010000 		.4byte	.LBB23
 2331 0997 72010000 		.4byte	.LBE23
 2332 099b 2F       		.uleb128 0x2f
 2333 099c 6200     		.ascii	"b\000"
 2334 099e 01       		.byte	0x1
 2335 099f 8D02     		.2byte	0x28d
 2336 09a1 A6000000 		.4byte	0xa6
 2337 09a5 00       		.byte	0
 2338 09a6 00       		.byte	0
 2339 09a7 2C       		.uleb128 0x2c
 2340 09a8 01       		.byte	0x1
 2341 09a9 5D050000 		.4byte	.LASF106
 2342 09ad 01       		.byte	0x1
 2343 09ae B502     		.2byte	0x2b5
 2344 09b0 01       		.byte	0x1
 2345 09b1 00000000 		.4byte	.LFB129
 2346 09b5 68000000 		.4byte	.LFE129
 2347 09b9 AE020000 		.4byte	.LLST23
 2348 09bd D2090000 		.4byte	0x9d2
 2349 09c1 20       		.uleb128 0x20
 2350 09c2 D8020000 		.4byte	.LASF93
 2351 09c6 01       		.byte	0x1
 2352 09c7 B502     		.2byte	0x2b5
 2353 09c9 FE050000 		.4byte	0x5fe
 2354 09cd CE020000 		.4byte	.LLST24
 2355 09d1 00       		.byte	0
 2356 09d2 30       		.uleb128 0x30
 2357 09d3 01       		.byte	0x1
 2358 09d4 49050000 		.4byte	.LASF107
 2359 09d8 01       		.byte	0x1
 2360 09d9 F902     		.2byte	0x2f9
 2361 09db 01       		.byte	0x1
 2362 09dc 00000000 		.4byte	.LFB130
 2363 09e0 1A000000 		.4byte	.LFE130
 2364 09e4 02       		.byte	0x2
 2365 09e5 7D       		.byte	0x7d
 2366 09e6 00       		.sleb128 0
 2367 09e7 180A0000 		.4byte	0xa18
 2368 09eb 20       		.uleb128 0x20
 2369 09ec D8020000 		.4byte	.LASF93
 2370 09f0 01       		.byte	0x1
 2371 09f1 F902     		.2byte	0x2f9
ARM GAS  /tmp/ccg5DWGg.s 			page 43


 2372 09f3 FE050000 		.4byte	0x5fe
 2373 09f7 EC020000 		.4byte	.LLST25
 2374 09fb 31       		.uleb128 0x31
 2375 09fc 6E00     		.ascii	"n\000"
 2376 09fe 01       		.byte	0x1
 2377 09ff F902     		.2byte	0x2f9
 2378 0a01 30000000 		.4byte	0x30
 2379 0a05 01       		.byte	0x1
 2380 0a06 51       		.byte	0x51
 2381 0a07 20       		.uleb128 0x20
 2382 0a08 19020000 		.4byte	.LASF108
 2383 0a0c 01       		.byte	0x1
 2384 0a0d F902     		.2byte	0x2f9
 2385 0a0f 180A0000 		.4byte	0xa18
 2386 0a13 FF020000 		.4byte	.LLST26
 2387 0a17 00       		.byte	0
 2388 0a18 0F       		.uleb128 0xf
 2389 0a19 04       		.byte	0x4
 2390 0a1a 1E0A0000 		.4byte	0xa1e
 2391 0a1e 32       		.uleb128 0x32
 2392 0a1f 33       		.uleb128 0x33
 2393 0a20 01       		.byte	0x1
 2394 0a21 1F020000 		.4byte	.LASF110
 2395 0a25 01       		.byte	0x1
 2396 0a26 0E03     		.2byte	0x30e
 2397 0a28 01       		.byte	0x1
 2398 0a29 30000000 		.4byte	0x30
 2399 0a2d 00000000 		.4byte	.LFB131
 2400 0a31 20000000 		.4byte	.LFE131
 2401 0a35 02       		.byte	0x2
 2402 0a36 7D       		.byte	0x7d
 2403 0a37 00       		.sleb128 0
 2404 0a38 4D0A0000 		.4byte	0xa4d
 2405 0a3c 20       		.uleb128 0x20
 2406 0a3d D8020000 		.4byte	.LASF93
 2407 0a41 01       		.byte	0x1
 2408 0a42 0E03     		.2byte	0x30e
 2409 0a44 FE050000 		.4byte	0x5fe
 2410 0a48 1E030000 		.4byte	.LLST27
 2411 0a4c 00       		.byte	0
 2412 0a4d 2C       		.uleb128 0x2c
 2413 0a4e 01       		.byte	0x1
 2414 0a4f 00000000 		.4byte	.LASF109
 2415 0a53 01       		.byte	0x1
 2416 0a54 1F03     		.2byte	0x31f
 2417 0a56 01       		.byte	0x1
 2418 0a57 00000000 		.4byte	.LFB132
 2419 0a5b 38000000 		.4byte	.LFE132
 2420 0a5f 31030000 		.4byte	.LLST28
 2421 0a63 940A0000 		.4byte	0xa94
 2422 0a67 20       		.uleb128 0x20
 2423 0a68 D8020000 		.4byte	.LASF93
 2424 0a6c 01       		.byte	0x1
 2425 0a6d 1F03     		.2byte	0x31f
 2426 0a6f FE050000 		.4byte	0x5fe
 2427 0a73 51030000 		.4byte	.LLST29
 2428 0a77 31       		.uleb128 0x31
ARM GAS  /tmp/ccg5DWGg.s 			page 44


 2429 0a78 6E00     		.ascii	"n\000"
 2430 0a7a 01       		.byte	0x1
 2431 0a7b 1F03     		.2byte	0x31f
 2432 0a7d 30000000 		.4byte	0x30
 2433 0a81 01       		.byte	0x1
 2434 0a82 51       		.byte	0x51
 2435 0a83 20       		.uleb128 0x20
 2436 0a84 C5000000 		.4byte	.LASF82
 2437 0a88 01       		.byte	0x1
 2438 0a89 1F03     		.2byte	0x31f
 2439 0a8b B8000000 		.4byte	0xb8
 2440 0a8f 64030000 		.4byte	.LLST30
 2441 0a93 00       		.byte	0
 2442 0a94 34       		.uleb128 0x34
 2443 0a95 01       		.byte	0x1
 2444 0a96 CE040000 		.4byte	.LASF111
 2445 0a9a 01       		.byte	0x1
 2446 0a9b 3703     		.2byte	0x337
 2447 0a9d 01       		.byte	0x1
 2448 0a9e 30000000 		.4byte	0x30
 2449 0aa2 00000000 		.4byte	.LFB133
 2450 0aa6 28000000 		.4byte	.LFE133
 2451 0aaa 83030000 		.4byte	.LLST31
 2452 0aae CF0A0000 		.4byte	0xacf
 2453 0ab2 20       		.uleb128 0x20
 2454 0ab3 D8020000 		.4byte	.LASF93
 2455 0ab7 01       		.byte	0x1
 2456 0ab8 3703     		.2byte	0x337
 2457 0aba FE050000 		.4byte	0x5fe
 2458 0abe A3030000 		.4byte	.LLST32
 2459 0ac2 21       		.uleb128 0x21
 2460 0ac3 6E00     		.ascii	"n\000"
 2461 0ac5 01       		.byte	0x1
 2462 0ac6 3803     		.2byte	0x338
 2463 0ac8 30000000 		.4byte	0x30
 2464 0acc 01       		.byte	0x1
 2465 0acd 54       		.byte	0x54
 2466 0ace 00       		.byte	0
 2467 0acf 35       		.uleb128 0x35
 2468 0ad0 B8000000 		.4byte	.LASF112
 2469 0ad4 09       		.byte	0x9
 2470 0ad5 9806     		.2byte	0x698
 2471 0ad7 DB000000 		.4byte	0xdb
 2472 0adb 01       		.byte	0x1
 2473 0adc 01       		.byte	0x1
 2474 0add 07       		.uleb128 0x7
 2475 0ade 89040000 		.4byte	0x489
 2476 0ae2 ED0A0000 		.4byte	0xaed
 2477 0ae6 08       		.uleb128 0x8
 2478 0ae7 3B000000 		.4byte	0x3b
 2479 0aeb 0F       		.byte	0xf
 2480 0aec 00       		.byte	0
 2481 0aed 35       		.uleb128 0x35
 2482 0aee 9A000000 		.4byte	.LASF113
 2483 0af2 06       		.byte	0x6
 2484 0af3 BB01     		.2byte	0x1bb
 2485 0af5 FB0A0000 		.4byte	0xafb
ARM GAS  /tmp/ccg5DWGg.s 			page 45


 2486 0af9 01       		.byte	0x1
 2487 0afa 01       		.byte	0x1
 2488 0afb 12       		.uleb128 0x12
 2489 0afc DD0A0000 		.4byte	0xadd
 2490 0b00 35       		.uleb128 0x35
 2491 0b01 6B050000 		.4byte	.LASF114
 2492 0b05 08       		.byte	0x8
 2493 0b06 8302     		.2byte	0x283
 2494 0b08 3F050000 		.4byte	0x53f
 2495 0b0c 01       		.byte	0x1
 2496 0b0d 01       		.byte	0x1
 2497 0b0e 35       		.uleb128 0x35
 2498 0b0f DE020000 		.4byte	.LASF115
 2499 0b13 08       		.byte	0x8
 2500 0b14 9302     		.2byte	0x293
 2501 0b16 3F050000 		.4byte	0x53f
 2502 0b1a 01       		.byte	0x1
 2503 0b1b 01       		.byte	0x1
 2504 0b1c 35       		.uleb128 0x35
 2505 0b1d B8000000 		.4byte	.LASF112
 2506 0b21 09       		.byte	0x9
 2507 0b22 9806     		.2byte	0x698
 2508 0b24 DB000000 		.4byte	0xdb
 2509 0b28 01       		.byte	0x1
 2510 0b29 01       		.byte	0x1
 2511 0b2a 35       		.uleb128 0x35
 2512 0b2b 9A000000 		.4byte	.LASF113
 2513 0b2f 06       		.byte	0x6
 2514 0b30 BB01     		.2byte	0x1bb
 2515 0b32 380B0000 		.4byte	0xb38
 2516 0b36 01       		.byte	0x1
 2517 0b37 01       		.byte	0x1
 2518 0b38 12       		.uleb128 0x12
 2519 0b39 DD0A0000 		.4byte	0xadd
 2520 0b3d 36       		.uleb128 0x36
 2521 0b3e 6B050000 		.4byte	.LASF114
 2522 0b42 01       		.byte	0x1
 2523 0b43 65       		.byte	0x65
 2524 0b44 3F050000 		.4byte	0x53f
 2525 0b48 01       		.byte	0x1
 2526 0b49 05       		.byte	0x5
 2527 0b4a 03       		.byte	0x3
 2528 0b4b 00000000 		.4byte	UARTD2
 2529 0b4f 36       		.uleb128 0x36
 2530 0b50 DE020000 		.4byte	.LASF115
 2531 0b54 01       		.byte	0x1
 2532 0b55 79       		.byte	0x79
 2533 0b56 3F050000 		.4byte	0x53f
 2534 0b5a 01       		.byte	0x1
 2535 0b5b 05       		.byte	0x5
 2536 0b5c 03       		.byte	0x3
 2537 0b5d 00000000 		.4byte	UARTD6
 2538 0b61 00       		.byte	0
 2539              		.section	.debug_abbrev,"",%progbits
 2540              	.Ldebug_abbrev0:
 2541 0000 01       		.uleb128 0x1
 2542 0001 11       		.uleb128 0x11
ARM GAS  /tmp/ccg5DWGg.s 			page 46


 2543 0002 01       		.byte	0x1
 2544 0003 25       		.uleb128 0x25
 2545 0004 0E       		.uleb128 0xe
 2546 0005 13       		.uleb128 0x13
 2547 0006 0B       		.uleb128 0xb
 2548 0007 03       		.uleb128 0x3
 2549 0008 0E       		.uleb128 0xe
 2550 0009 1B       		.uleb128 0x1b
 2551 000a 0E       		.uleb128 0xe
 2552 000b 11       		.uleb128 0x11
 2553 000c 01       		.uleb128 0x1
 2554 000d 52       		.uleb128 0x52
 2555 000e 01       		.uleb128 0x1
 2556 000f 55       		.uleb128 0x55
 2557 0010 06       		.uleb128 0x6
 2558 0011 10       		.uleb128 0x10
 2559 0012 06       		.uleb128 0x6
 2560 0013 00       		.byte	0
 2561 0014 00       		.byte	0
 2562 0015 02       		.uleb128 0x2
 2563 0016 24       		.uleb128 0x24
 2564 0017 00       		.byte	0
 2565 0018 0B       		.uleb128 0xb
 2566 0019 0B       		.uleb128 0xb
 2567 001a 3E       		.uleb128 0x3e
 2568 001b 0B       		.uleb128 0xb
 2569 001c 03       		.uleb128 0x3
 2570 001d 08       		.uleb128 0x8
 2571 001e 00       		.byte	0
 2572 001f 00       		.byte	0
 2573 0020 03       		.uleb128 0x3
 2574 0021 16       		.uleb128 0x16
 2575 0022 00       		.byte	0
 2576 0023 03       		.uleb128 0x3
 2577 0024 0E       		.uleb128 0xe
 2578 0025 3A       		.uleb128 0x3a
 2579 0026 0B       		.uleb128 0xb
 2580 0027 3B       		.uleb128 0x3b
 2581 0028 0B       		.uleb128 0xb
 2582 0029 49       		.uleb128 0x49
 2583 002a 13       		.uleb128 0x13
 2584 002b 00       		.byte	0
 2585 002c 00       		.byte	0
 2586 002d 04       		.uleb128 0x4
 2587 002e 24       		.uleb128 0x24
 2588 002f 00       		.byte	0
 2589 0030 0B       		.uleb128 0xb
 2590 0031 0B       		.uleb128 0xb
 2591 0032 3E       		.uleb128 0x3e
 2592 0033 0B       		.uleb128 0xb
 2593 0034 03       		.uleb128 0x3
 2594 0035 0E       		.uleb128 0xe
 2595 0036 00       		.byte	0
 2596 0037 00       		.byte	0
 2597 0038 05       		.uleb128 0x5
 2598 0039 0F       		.uleb128 0xf
 2599 003a 00       		.byte	0
ARM GAS  /tmp/ccg5DWGg.s 			page 47


 2600 003b 0B       		.uleb128 0xb
 2601 003c 0B       		.uleb128 0xb
 2602 003d 00       		.byte	0
 2603 003e 00       		.byte	0
 2604 003f 06       		.uleb128 0x6
 2605 0040 35       		.uleb128 0x35
 2606 0041 00       		.byte	0
 2607 0042 49       		.uleb128 0x49
 2608 0043 13       		.uleb128 0x13
 2609 0044 00       		.byte	0
 2610 0045 00       		.byte	0
 2611 0046 07       		.uleb128 0x7
 2612 0047 01       		.uleb128 0x1
 2613 0048 01       		.byte	0x1
 2614 0049 49       		.uleb128 0x49
 2615 004a 13       		.uleb128 0x13
 2616 004b 01       		.uleb128 0x1
 2617 004c 13       		.uleb128 0x13
 2618 004d 00       		.byte	0
 2619 004e 00       		.byte	0
 2620 004f 08       		.uleb128 0x8
 2621 0050 21       		.uleb128 0x21
 2622 0051 00       		.byte	0
 2623 0052 49       		.uleb128 0x49
 2624 0053 13       		.uleb128 0x13
 2625 0054 2F       		.uleb128 0x2f
 2626 0055 0B       		.uleb128 0xb
 2627 0056 00       		.byte	0
 2628 0057 00       		.byte	0
 2629 0058 09       		.uleb128 0x9
 2630 0059 13       		.uleb128 0x13
 2631 005a 01       		.byte	0x1
 2632 005b 0B       		.uleb128 0xb
 2633 005c 0B       		.uleb128 0xb
 2634 005d 3A       		.uleb128 0x3a
 2635 005e 0B       		.uleb128 0xb
 2636 005f 3B       		.uleb128 0x3b
 2637 0060 05       		.uleb128 0x5
 2638 0061 01       		.uleb128 0x1
 2639 0062 13       		.uleb128 0x13
 2640 0063 00       		.byte	0
 2641 0064 00       		.byte	0
 2642 0065 0A       		.uleb128 0xa
 2643 0066 0D       		.uleb128 0xd
 2644 0067 00       		.byte	0
 2645 0068 03       		.uleb128 0x3
 2646 0069 08       		.uleb128 0x8
 2647 006a 3A       		.uleb128 0x3a
 2648 006b 0B       		.uleb128 0xb
 2649 006c 3B       		.uleb128 0x3b
 2650 006d 05       		.uleb128 0x5
 2651 006e 49       		.uleb128 0x49
 2652 006f 13       		.uleb128 0x13
 2653 0070 38       		.uleb128 0x38
 2654 0071 0A       		.uleb128 0xa
 2655 0072 00       		.byte	0
 2656 0073 00       		.byte	0
ARM GAS  /tmp/ccg5DWGg.s 			page 48


 2657 0074 0B       		.uleb128 0xb
 2658 0075 0D       		.uleb128 0xd
 2659 0076 00       		.byte	0
 2660 0077 03       		.uleb128 0x3
 2661 0078 0E       		.uleb128 0xe
 2662 0079 3A       		.uleb128 0x3a
 2663 007a 0B       		.uleb128 0xb
 2664 007b 3B       		.uleb128 0x3b
 2665 007c 05       		.uleb128 0x5
 2666 007d 49       		.uleb128 0x49
 2667 007e 13       		.uleb128 0x13
 2668 007f 38       		.uleb128 0x38
 2669 0080 0A       		.uleb128 0xa
 2670 0081 00       		.byte	0
 2671 0082 00       		.byte	0
 2672 0083 0C       		.uleb128 0xc
 2673 0084 16       		.uleb128 0x16
 2674 0085 00       		.byte	0
 2675 0086 03       		.uleb128 0x3
 2676 0087 0E       		.uleb128 0xe
 2677 0088 3A       		.uleb128 0x3a
 2678 0089 0B       		.uleb128 0xb
 2679 008a 3B       		.uleb128 0x3b
 2680 008b 05       		.uleb128 0x5
 2681 008c 49       		.uleb128 0x49
 2682 008d 13       		.uleb128 0x13
 2683 008e 00       		.byte	0
 2684 008f 00       		.byte	0
 2685 0090 0D       		.uleb128 0xd
 2686 0091 13       		.uleb128 0x13
 2687 0092 01       		.byte	0x1
 2688 0093 0B       		.uleb128 0xb
 2689 0094 0B       		.uleb128 0xb
 2690 0095 3A       		.uleb128 0x3a
 2691 0096 0B       		.uleb128 0xb
 2692 0097 3B       		.uleb128 0x3b
 2693 0098 0B       		.uleb128 0xb
 2694 0099 01       		.uleb128 0x1
 2695 009a 13       		.uleb128 0x13
 2696 009b 00       		.byte	0
 2697 009c 00       		.byte	0
 2698 009d 0E       		.uleb128 0xe
 2699 009e 0D       		.uleb128 0xd
 2700 009f 00       		.byte	0
 2701 00a0 03       		.uleb128 0x3
 2702 00a1 0E       		.uleb128 0xe
 2703 00a2 3A       		.uleb128 0x3a
 2704 00a3 0B       		.uleb128 0xb
 2705 00a4 3B       		.uleb128 0x3b
 2706 00a5 0B       		.uleb128 0xb
 2707 00a6 49       		.uleb128 0x49
 2708 00a7 13       		.uleb128 0x13
 2709 00a8 38       		.uleb128 0x38
 2710 00a9 0A       		.uleb128 0xa
 2711 00aa 00       		.byte	0
 2712 00ab 00       		.byte	0
 2713 00ac 0F       		.uleb128 0xf
ARM GAS  /tmp/ccg5DWGg.s 			page 49


 2714 00ad 0F       		.uleb128 0xf
 2715 00ae 00       		.byte	0
 2716 00af 0B       		.uleb128 0xb
 2717 00b0 0B       		.uleb128 0xb
 2718 00b1 49       		.uleb128 0x49
 2719 00b2 13       		.uleb128 0x13
 2720 00b3 00       		.byte	0
 2721 00b4 00       		.byte	0
 2722 00b5 10       		.uleb128 0x10
 2723 00b6 15       		.uleb128 0x15
 2724 00b7 01       		.byte	0x1
 2725 00b8 27       		.uleb128 0x27
 2726 00b9 0C       		.uleb128 0xc
 2727 00ba 01       		.uleb128 0x1
 2728 00bb 13       		.uleb128 0x13
 2729 00bc 00       		.byte	0
 2730 00bd 00       		.byte	0
 2731 00be 11       		.uleb128 0x11
 2732 00bf 05       		.uleb128 0x5
 2733 00c0 00       		.byte	0
 2734 00c1 49       		.uleb128 0x49
 2735 00c2 13       		.uleb128 0x13
 2736 00c3 00       		.byte	0
 2737 00c4 00       		.byte	0
 2738 00c5 12       		.uleb128 0x12
 2739 00c6 26       		.uleb128 0x26
 2740 00c7 00       		.byte	0
 2741 00c8 49       		.uleb128 0x49
 2742 00c9 13       		.uleb128 0x13
 2743 00ca 00       		.byte	0
 2744 00cb 00       		.byte	0
 2745 00cc 13       		.uleb128 0x13
 2746 00cd 04       		.uleb128 0x4
 2747 00ce 01       		.byte	0x1
 2748 00cf 0B       		.uleb128 0xb
 2749 00d0 0B       		.uleb128 0xb
 2750 00d1 3A       		.uleb128 0x3a
 2751 00d2 0B       		.uleb128 0xb
 2752 00d3 3B       		.uleb128 0x3b
 2753 00d4 0B       		.uleb128 0xb
 2754 00d5 01       		.uleb128 0x1
 2755 00d6 13       		.uleb128 0x13
 2756 00d7 00       		.byte	0
 2757 00d8 00       		.byte	0
 2758 00d9 14       		.uleb128 0x14
 2759 00da 28       		.uleb128 0x28
 2760 00db 00       		.byte	0
 2761 00dc 03       		.uleb128 0x3
 2762 00dd 0E       		.uleb128 0xe
 2763 00de 1C       		.uleb128 0x1c
 2764 00df 0D       		.uleb128 0xd
 2765 00e0 00       		.byte	0
 2766 00e1 00       		.byte	0
 2767 00e2 15       		.uleb128 0x15
 2768 00e3 13       		.uleb128 0x13
 2769 00e4 01       		.byte	0x1
 2770 00e5 03       		.uleb128 0x3
ARM GAS  /tmp/ccg5DWGg.s 			page 50


 2771 00e6 0E       		.uleb128 0xe
 2772 00e7 0B       		.uleb128 0xb
 2773 00e8 0B       		.uleb128 0xb
 2774 00e9 3A       		.uleb128 0x3a
 2775 00ea 0B       		.uleb128 0xb
 2776 00eb 3B       		.uleb128 0x3b
 2777 00ec 05       		.uleb128 0x5
 2778 00ed 01       		.uleb128 0x1
 2779 00ee 13       		.uleb128 0x13
 2780 00ef 00       		.byte	0
 2781 00f0 00       		.byte	0
 2782 00f1 16       		.uleb128 0x16
 2783 00f2 2E       		.uleb128 0x2e
 2784 00f3 01       		.byte	0x1
 2785 00f4 03       		.uleb128 0x3
 2786 00f5 0E       		.uleb128 0xe
 2787 00f6 3A       		.uleb128 0x3a
 2788 00f7 0B       		.uleb128 0xb
 2789 00f8 3B       		.uleb128 0x3b
 2790 00f9 0B       		.uleb128 0xb
 2791 00fa 27       		.uleb128 0x27
 2792 00fb 0C       		.uleb128 0xc
 2793 00fc 49       		.uleb128 0x49
 2794 00fd 13       		.uleb128 0x13
 2795 00fe 20       		.uleb128 0x20
 2796 00ff 0B       		.uleb128 0xb
 2797 0100 01       		.uleb128 0x1
 2798 0101 13       		.uleb128 0x13
 2799 0102 00       		.byte	0
 2800 0103 00       		.byte	0
 2801 0104 17       		.uleb128 0x17
 2802 0105 05       		.uleb128 0x5
 2803 0106 00       		.byte	0
 2804 0107 03       		.uleb128 0x3
 2805 0108 08       		.uleb128 0x8
 2806 0109 3A       		.uleb128 0x3a
 2807 010a 0B       		.uleb128 0xb
 2808 010b 3B       		.uleb128 0x3b
 2809 010c 0B       		.uleb128 0xb
 2810 010d 49       		.uleb128 0x49
 2811 010e 13       		.uleb128 0x13
 2812 010f 00       		.byte	0
 2813 0110 00       		.byte	0
 2814 0111 18       		.uleb128 0x18
 2815 0112 34       		.uleb128 0x34
 2816 0113 00       		.byte	0
 2817 0114 03       		.uleb128 0x3
 2818 0115 08       		.uleb128 0x8
 2819 0116 3A       		.uleb128 0x3a
 2820 0117 0B       		.uleb128 0xb
 2821 0118 3B       		.uleb128 0x3b
 2822 0119 0B       		.uleb128 0xb
 2823 011a 49       		.uleb128 0x49
 2824 011b 13       		.uleb128 0x13
 2825 011c 00       		.byte	0
 2826 011d 00       		.byte	0
 2827 011e 19       		.uleb128 0x19
ARM GAS  /tmp/ccg5DWGg.s 			page 51


 2828 011f 2E       		.uleb128 0x2e
 2829 0120 01       		.byte	0x1
 2830 0121 03       		.uleb128 0x3
 2831 0122 0E       		.uleb128 0xe
 2832 0123 3A       		.uleb128 0x3a
 2833 0124 0B       		.uleb128 0xb
 2834 0125 3B       		.uleb128 0x3b
 2835 0126 0B       		.uleb128 0xb
 2836 0127 27       		.uleb128 0x27
 2837 0128 0C       		.uleb128 0xc
 2838 0129 20       		.uleb128 0x20
 2839 012a 0B       		.uleb128 0xb
 2840 012b 01       		.uleb128 0x1
 2841 012c 13       		.uleb128 0x13
 2842 012d 00       		.byte	0
 2843 012e 00       		.byte	0
 2844 012f 1A       		.uleb128 0x1a
 2845 0130 05       		.uleb128 0x5
 2846 0131 00       		.byte	0
 2847 0132 03       		.uleb128 0x3
 2848 0133 0E       		.uleb128 0xe
 2849 0134 3A       		.uleb128 0x3a
 2850 0135 0B       		.uleb128 0xb
 2851 0136 3B       		.uleb128 0x3b
 2852 0137 0B       		.uleb128 0xb
 2853 0138 49       		.uleb128 0x49
 2854 0139 13       		.uleb128 0x13
 2855 013a 00       		.byte	0
 2856 013b 00       		.byte	0
 2857 013c 1B       		.uleb128 0x1b
 2858 013d 2E       		.uleb128 0x2e
 2859 013e 01       		.byte	0x1
 2860 013f 03       		.uleb128 0x3
 2861 0140 0E       		.uleb128 0xe
 2862 0141 3A       		.uleb128 0x3a
 2863 0142 0B       		.uleb128 0xb
 2864 0143 3B       		.uleb128 0x3b
 2865 0144 0B       		.uleb128 0xb
 2866 0145 27       		.uleb128 0x27
 2867 0146 0C       		.uleb128 0xc
 2868 0147 11       		.uleb128 0x11
 2869 0148 01       		.uleb128 0x1
 2870 0149 12       		.uleb128 0x12
 2871 014a 01       		.uleb128 0x1
 2872 014b 40       		.uleb128 0x40
 2873 014c 0A       		.uleb128 0xa
 2874 014d 01       		.uleb128 0x1
 2875 014e 13       		.uleb128 0x13
 2876 014f 00       		.byte	0
 2877 0150 00       		.byte	0
 2878 0151 1C       		.uleb128 0x1c
 2879 0152 05       		.uleb128 0x5
 2880 0153 00       		.byte	0
 2881 0154 03       		.uleb128 0x3
 2882 0155 0E       		.uleb128 0xe
 2883 0156 3A       		.uleb128 0x3a
 2884 0157 0B       		.uleb128 0xb
ARM GAS  /tmp/ccg5DWGg.s 			page 52


 2885 0158 3B       		.uleb128 0x3b
 2886 0159 0B       		.uleb128 0xb
 2887 015a 49       		.uleb128 0x49
 2888 015b 13       		.uleb128 0x13
 2889 015c 02       		.uleb128 0x2
 2890 015d 06       		.uleb128 0x6
 2891 015e 00       		.byte	0
 2892 015f 00       		.byte	0
 2893 0160 1D       		.uleb128 0x1d
 2894 0161 34       		.uleb128 0x34
 2895 0162 00       		.byte	0
 2896 0163 03       		.uleb128 0x3
 2897 0164 0E       		.uleb128 0xe
 2898 0165 3A       		.uleb128 0x3a
 2899 0166 0B       		.uleb128 0xb
 2900 0167 3B       		.uleb128 0x3b
 2901 0168 0B       		.uleb128 0xb
 2902 0169 49       		.uleb128 0x49
 2903 016a 13       		.uleb128 0x13
 2904 016b 02       		.uleb128 0x2
 2905 016c 0A       		.uleb128 0xa
 2906 016d 00       		.byte	0
 2907 016e 00       		.byte	0
 2908 016f 1E       		.uleb128 0x1e
 2909 0170 2E       		.uleb128 0x2e
 2910 0171 01       		.byte	0x1
 2911 0172 03       		.uleb128 0x3
 2912 0173 0E       		.uleb128 0xe
 2913 0174 3A       		.uleb128 0x3a
 2914 0175 0B       		.uleb128 0xb
 2915 0176 3B       		.uleb128 0x3b
 2916 0177 0B       		.uleb128 0xb
 2917 0178 27       		.uleb128 0x27
 2918 0179 0C       		.uleb128 0xc
 2919 017a 11       		.uleb128 0x11
 2920 017b 01       		.uleb128 0x1
 2921 017c 12       		.uleb128 0x12
 2922 017d 01       		.uleb128 0x1
 2923 017e 40       		.uleb128 0x40
 2924 017f 06       		.uleb128 0x6
 2925 0180 01       		.uleb128 0x1
 2926 0181 13       		.uleb128 0x13
 2927 0182 00       		.byte	0
 2928 0183 00       		.byte	0
 2929 0184 1F       		.uleb128 0x1f
 2930 0185 2E       		.uleb128 0x2e
 2931 0186 01       		.byte	0x1
 2932 0187 03       		.uleb128 0x3
 2933 0188 0E       		.uleb128 0xe
 2934 0189 3A       		.uleb128 0x3a
 2935 018a 0B       		.uleb128 0xb
 2936 018b 3B       		.uleb128 0x3b
 2937 018c 05       		.uleb128 0x5
 2938 018d 27       		.uleb128 0x27
 2939 018e 0C       		.uleb128 0xc
 2940 018f 11       		.uleb128 0x11
 2941 0190 01       		.uleb128 0x1
ARM GAS  /tmp/ccg5DWGg.s 			page 53


 2942 0191 12       		.uleb128 0x12
 2943 0192 01       		.uleb128 0x1
 2944 0193 40       		.uleb128 0x40
 2945 0194 06       		.uleb128 0x6
 2946 0195 01       		.uleb128 0x1
 2947 0196 13       		.uleb128 0x13
 2948 0197 00       		.byte	0
 2949 0198 00       		.byte	0
 2950 0199 20       		.uleb128 0x20
 2951 019a 05       		.uleb128 0x5
 2952 019b 00       		.byte	0
 2953 019c 03       		.uleb128 0x3
 2954 019d 0E       		.uleb128 0xe
 2955 019e 3A       		.uleb128 0x3a
 2956 019f 0B       		.uleb128 0xb
 2957 01a0 3B       		.uleb128 0x3b
 2958 01a1 05       		.uleb128 0x5
 2959 01a2 49       		.uleb128 0x49
 2960 01a3 13       		.uleb128 0x13
 2961 01a4 02       		.uleb128 0x2
 2962 01a5 06       		.uleb128 0x6
 2963 01a6 00       		.byte	0
 2964 01a7 00       		.byte	0
 2965 01a8 21       		.uleb128 0x21
 2966 01a9 34       		.uleb128 0x34
 2967 01aa 00       		.byte	0
 2968 01ab 03       		.uleb128 0x3
 2969 01ac 08       		.uleb128 0x8
 2970 01ad 3A       		.uleb128 0x3a
 2971 01ae 0B       		.uleb128 0xb
 2972 01af 3B       		.uleb128 0x3b
 2973 01b0 05       		.uleb128 0x5
 2974 01b1 49       		.uleb128 0x49
 2975 01b2 13       		.uleb128 0x13
 2976 01b3 02       		.uleb128 0x2
 2977 01b4 0A       		.uleb128 0xa
 2978 01b5 00       		.byte	0
 2979 01b6 00       		.byte	0
 2980 01b7 22       		.uleb128 0x22
 2981 01b8 34       		.uleb128 0x34
 2982 01b9 00       		.byte	0
 2983 01ba 03       		.uleb128 0x3
 2984 01bb 08       		.uleb128 0x8
 2985 01bc 3A       		.uleb128 0x3a
 2986 01bd 0B       		.uleb128 0xb
 2987 01be 3B       		.uleb128 0x3b
 2988 01bf 05       		.uleb128 0x5
 2989 01c0 49       		.uleb128 0x49
 2990 01c1 13       		.uleb128 0x13
 2991 01c2 02       		.uleb128 0x2
 2992 01c3 06       		.uleb128 0x6
 2993 01c4 00       		.byte	0
 2994 01c5 00       		.byte	0
 2995 01c6 23       		.uleb128 0x23
 2996 01c7 1D       		.uleb128 0x1d
 2997 01c8 01       		.byte	0x1
 2998 01c9 31       		.uleb128 0x31
ARM GAS  /tmp/ccg5DWGg.s 			page 54


 2999 01ca 13       		.uleb128 0x13
 3000 01cb 11       		.uleb128 0x11
 3001 01cc 01       		.uleb128 0x1
 3002 01cd 12       		.uleb128 0x12
 3003 01ce 01       		.uleb128 0x1
 3004 01cf 58       		.uleb128 0x58
 3005 01d0 0B       		.uleb128 0xb
 3006 01d1 59       		.uleb128 0x59
 3007 01d2 05       		.uleb128 0x5
 3008 01d3 00       		.byte	0
 3009 01d4 00       		.byte	0
 3010 01d5 24       		.uleb128 0x24
 3011 01d6 05       		.uleb128 0x5
 3012 01d7 00       		.byte	0
 3013 01d8 31       		.uleb128 0x31
 3014 01d9 13       		.uleb128 0x13
 3015 01da 02       		.uleb128 0x2
 3016 01db 06       		.uleb128 0x6
 3017 01dc 00       		.byte	0
 3018 01dd 00       		.byte	0
 3019 01de 25       		.uleb128 0x25
 3020 01df 0B       		.uleb128 0xb
 3021 01e0 01       		.byte	0x1
 3022 01e1 11       		.uleb128 0x11
 3023 01e2 01       		.uleb128 0x1
 3024 01e3 12       		.uleb128 0x12
 3025 01e4 01       		.uleb128 0x1
 3026 01e5 00       		.byte	0
 3027 01e6 00       		.byte	0
 3028 01e7 26       		.uleb128 0x26
 3029 01e8 34       		.uleb128 0x34
 3030 01e9 00       		.byte	0
 3031 01ea 31       		.uleb128 0x31
 3032 01eb 13       		.uleb128 0x13
 3033 01ec 02       		.uleb128 0x2
 3034 01ed 06       		.uleb128 0x6
 3035 01ee 00       		.byte	0
 3036 01ef 00       		.byte	0
 3037 01f0 27       		.uleb128 0x27
 3038 01f1 2E       		.uleb128 0x2e
 3039 01f2 01       		.byte	0x1
 3040 01f3 31       		.uleb128 0x31
 3041 01f4 13       		.uleb128 0x13
 3042 01f5 11       		.uleb128 0x11
 3043 01f6 01       		.uleb128 0x1
 3044 01f7 12       		.uleb128 0x12
 3045 01f8 01       		.uleb128 0x1
 3046 01f9 40       		.uleb128 0x40
 3047 01fa 06       		.uleb128 0x6
 3048 01fb 01       		.uleb128 0x1
 3049 01fc 13       		.uleb128 0x13
 3050 01fd 00       		.byte	0
 3051 01fe 00       		.byte	0
 3052 01ff 28       		.uleb128 0x28
 3053 0200 1D       		.uleb128 0x1d
 3054 0201 01       		.byte	0x1
 3055 0202 31       		.uleb128 0x31
ARM GAS  /tmp/ccg5DWGg.s 			page 55


 3056 0203 13       		.uleb128 0x13
 3057 0204 52       		.uleb128 0x52
 3058 0205 01       		.uleb128 0x1
 3059 0206 55       		.uleb128 0x55
 3060 0207 06       		.uleb128 0x6
 3061 0208 58       		.uleb128 0x58
 3062 0209 0B       		.uleb128 0xb
 3063 020a 59       		.uleb128 0x59
 3064 020b 0B       		.uleb128 0xb
 3065 020c 00       		.byte	0
 3066 020d 00       		.byte	0
 3067 020e 29       		.uleb128 0x29
 3068 020f 0B       		.uleb128 0xb
 3069 0210 01       		.byte	0x1
 3070 0211 55       		.uleb128 0x55
 3071 0212 06       		.uleb128 0x6
 3072 0213 00       		.byte	0
 3073 0214 00       		.byte	0
 3074 0215 2A       		.uleb128 0x2a
 3075 0216 05       		.uleb128 0x5
 3076 0217 00       		.byte	0
 3077 0218 31       		.uleb128 0x31
 3078 0219 13       		.uleb128 0x13
 3079 021a 00       		.byte	0
 3080 021b 00       		.byte	0
 3081 021c 2B       		.uleb128 0x2b
 3082 021d 2E       		.uleb128 0x2e
 3083 021e 00       		.byte	0
 3084 021f 3F       		.uleb128 0x3f
 3085 0220 0C       		.uleb128 0xc
 3086 0221 03       		.uleb128 0x3
 3087 0222 0E       		.uleb128 0xe
 3088 0223 3A       		.uleb128 0x3a
 3089 0224 0B       		.uleb128 0xb
 3090 0225 3B       		.uleb128 0x3b
 3091 0226 05       		.uleb128 0x5
 3092 0227 27       		.uleb128 0x27
 3093 0228 0C       		.uleb128 0xc
 3094 0229 11       		.uleb128 0x11
 3095 022a 01       		.uleb128 0x1
 3096 022b 12       		.uleb128 0x12
 3097 022c 01       		.uleb128 0x1
 3098 022d 40       		.uleb128 0x40
 3099 022e 06       		.uleb128 0x6
 3100 022f 00       		.byte	0
 3101 0230 00       		.byte	0
 3102 0231 2C       		.uleb128 0x2c
 3103 0232 2E       		.uleb128 0x2e
 3104 0233 01       		.byte	0x1
 3105 0234 3F       		.uleb128 0x3f
 3106 0235 0C       		.uleb128 0xc
 3107 0236 03       		.uleb128 0x3
 3108 0237 0E       		.uleb128 0xe
 3109 0238 3A       		.uleb128 0x3a
 3110 0239 0B       		.uleb128 0xb
 3111 023a 3B       		.uleb128 0x3b
 3112 023b 05       		.uleb128 0x5
ARM GAS  /tmp/ccg5DWGg.s 			page 56


 3113 023c 27       		.uleb128 0x27
 3114 023d 0C       		.uleb128 0xc
 3115 023e 11       		.uleb128 0x11
 3116 023f 01       		.uleb128 0x1
 3117 0240 12       		.uleb128 0x12
 3118 0241 01       		.uleb128 0x1
 3119 0242 40       		.uleb128 0x40
 3120 0243 06       		.uleb128 0x6
 3121 0244 01       		.uleb128 0x1
 3122 0245 13       		.uleb128 0x13
 3123 0246 00       		.byte	0
 3124 0247 00       		.byte	0
 3125 0248 2D       		.uleb128 0x2d
 3126 0249 1D       		.uleb128 0x1d
 3127 024a 01       		.byte	0x1
 3128 024b 31       		.uleb128 0x31
 3129 024c 13       		.uleb128 0x13
 3130 024d 52       		.uleb128 0x52
 3131 024e 01       		.uleb128 0x1
 3132 024f 55       		.uleb128 0x55
 3133 0250 06       		.uleb128 0x6
 3134 0251 58       		.uleb128 0x58
 3135 0252 0B       		.uleb128 0xb
 3136 0253 59       		.uleb128 0x59
 3137 0254 05       		.uleb128 0x5
 3138 0255 01       		.uleb128 0x1
 3139 0256 13       		.uleb128 0x13
 3140 0257 00       		.byte	0
 3141 0258 00       		.byte	0
 3142 0259 2E       		.uleb128 0x2e
 3143 025a 0B       		.uleb128 0xb
 3144 025b 01       		.byte	0x1
 3145 025c 11       		.uleb128 0x11
 3146 025d 01       		.uleb128 0x1
 3147 025e 12       		.uleb128 0x12
 3148 025f 01       		.uleb128 0x1
 3149 0260 01       		.uleb128 0x1
 3150 0261 13       		.uleb128 0x13
 3151 0262 00       		.byte	0
 3152 0263 00       		.byte	0
 3153 0264 2F       		.uleb128 0x2f
 3154 0265 34       		.uleb128 0x34
 3155 0266 00       		.byte	0
 3156 0267 03       		.uleb128 0x3
 3157 0268 08       		.uleb128 0x8
 3158 0269 3A       		.uleb128 0x3a
 3159 026a 0B       		.uleb128 0xb
 3160 026b 3B       		.uleb128 0x3b
 3161 026c 05       		.uleb128 0x5
 3162 026d 49       		.uleb128 0x49
 3163 026e 13       		.uleb128 0x13
 3164 026f 00       		.byte	0
 3165 0270 00       		.byte	0
 3166 0271 30       		.uleb128 0x30
 3167 0272 2E       		.uleb128 0x2e
 3168 0273 01       		.byte	0x1
 3169 0274 3F       		.uleb128 0x3f
ARM GAS  /tmp/ccg5DWGg.s 			page 57


 3170 0275 0C       		.uleb128 0xc
 3171 0276 03       		.uleb128 0x3
 3172 0277 0E       		.uleb128 0xe
 3173 0278 3A       		.uleb128 0x3a
 3174 0279 0B       		.uleb128 0xb
 3175 027a 3B       		.uleb128 0x3b
 3176 027b 05       		.uleb128 0x5
 3177 027c 27       		.uleb128 0x27
 3178 027d 0C       		.uleb128 0xc
 3179 027e 11       		.uleb128 0x11
 3180 027f 01       		.uleb128 0x1
 3181 0280 12       		.uleb128 0x12
 3182 0281 01       		.uleb128 0x1
 3183 0282 40       		.uleb128 0x40
 3184 0283 0A       		.uleb128 0xa
 3185 0284 01       		.uleb128 0x1
 3186 0285 13       		.uleb128 0x13
 3187 0286 00       		.byte	0
 3188 0287 00       		.byte	0
 3189 0288 31       		.uleb128 0x31
 3190 0289 05       		.uleb128 0x5
 3191 028a 00       		.byte	0
 3192 028b 03       		.uleb128 0x3
 3193 028c 08       		.uleb128 0x8
 3194 028d 3A       		.uleb128 0x3a
 3195 028e 0B       		.uleb128 0xb
 3196 028f 3B       		.uleb128 0x3b
 3197 0290 05       		.uleb128 0x5
 3198 0291 49       		.uleb128 0x49
 3199 0292 13       		.uleb128 0x13
 3200 0293 02       		.uleb128 0x2
 3201 0294 0A       		.uleb128 0xa
 3202 0295 00       		.byte	0
 3203 0296 00       		.byte	0
 3204 0297 32       		.uleb128 0x32
 3205 0298 26       		.uleb128 0x26
 3206 0299 00       		.byte	0
 3207 029a 00       		.byte	0
 3208 029b 00       		.byte	0
 3209 029c 33       		.uleb128 0x33
 3210 029d 2E       		.uleb128 0x2e
 3211 029e 01       		.byte	0x1
 3212 029f 3F       		.uleb128 0x3f
 3213 02a0 0C       		.uleb128 0xc
 3214 02a1 03       		.uleb128 0x3
 3215 02a2 0E       		.uleb128 0xe
 3216 02a3 3A       		.uleb128 0x3a
 3217 02a4 0B       		.uleb128 0xb
 3218 02a5 3B       		.uleb128 0x3b
 3219 02a6 05       		.uleb128 0x5
 3220 02a7 27       		.uleb128 0x27
 3221 02a8 0C       		.uleb128 0xc
 3222 02a9 49       		.uleb128 0x49
 3223 02aa 13       		.uleb128 0x13
 3224 02ab 11       		.uleb128 0x11
 3225 02ac 01       		.uleb128 0x1
 3226 02ad 12       		.uleb128 0x12
ARM GAS  /tmp/ccg5DWGg.s 			page 58


 3227 02ae 01       		.uleb128 0x1
 3228 02af 40       		.uleb128 0x40
 3229 02b0 0A       		.uleb128 0xa
 3230 02b1 01       		.uleb128 0x1
 3231 02b2 13       		.uleb128 0x13
 3232 02b3 00       		.byte	0
 3233 02b4 00       		.byte	0
 3234 02b5 34       		.uleb128 0x34
 3235 02b6 2E       		.uleb128 0x2e
 3236 02b7 01       		.byte	0x1
 3237 02b8 3F       		.uleb128 0x3f
 3238 02b9 0C       		.uleb128 0xc
 3239 02ba 03       		.uleb128 0x3
 3240 02bb 0E       		.uleb128 0xe
 3241 02bc 3A       		.uleb128 0x3a
 3242 02bd 0B       		.uleb128 0xb
 3243 02be 3B       		.uleb128 0x3b
 3244 02bf 05       		.uleb128 0x5
 3245 02c0 27       		.uleb128 0x27
 3246 02c1 0C       		.uleb128 0xc
 3247 02c2 49       		.uleb128 0x49
 3248 02c3 13       		.uleb128 0x13
 3249 02c4 11       		.uleb128 0x11
 3250 02c5 01       		.uleb128 0x1
 3251 02c6 12       		.uleb128 0x12
 3252 02c7 01       		.uleb128 0x1
 3253 02c8 40       		.uleb128 0x40
 3254 02c9 06       		.uleb128 0x6
 3255 02ca 01       		.uleb128 0x1
 3256 02cb 13       		.uleb128 0x13
 3257 02cc 00       		.byte	0
 3258 02cd 00       		.byte	0
 3259 02ce 35       		.uleb128 0x35
 3260 02cf 34       		.uleb128 0x34
 3261 02d0 00       		.byte	0
 3262 02d1 03       		.uleb128 0x3
 3263 02d2 0E       		.uleb128 0xe
 3264 02d3 3A       		.uleb128 0x3a
 3265 02d4 0B       		.uleb128 0xb
 3266 02d5 3B       		.uleb128 0x3b
 3267 02d6 05       		.uleb128 0x5
 3268 02d7 49       		.uleb128 0x49
 3269 02d8 13       		.uleb128 0x13
 3270 02d9 3F       		.uleb128 0x3f
 3271 02da 0C       		.uleb128 0xc
 3272 02db 3C       		.uleb128 0x3c
 3273 02dc 0C       		.uleb128 0xc
 3274 02dd 00       		.byte	0
 3275 02de 00       		.byte	0
 3276 02df 36       		.uleb128 0x36
 3277 02e0 34       		.uleb128 0x34
 3278 02e1 00       		.byte	0
 3279 02e2 03       		.uleb128 0x3
 3280 02e3 0E       		.uleb128 0xe
 3281 02e4 3A       		.uleb128 0x3a
 3282 02e5 0B       		.uleb128 0xb
 3283 02e6 3B       		.uleb128 0x3b
ARM GAS  /tmp/ccg5DWGg.s 			page 59


 3284 02e7 0B       		.uleb128 0xb
 3285 02e8 49       		.uleb128 0x49
 3286 02e9 13       		.uleb128 0x13
 3287 02ea 3F       		.uleb128 0x3f
 3288 02eb 0C       		.uleb128 0xc
 3289 02ec 02       		.uleb128 0x2
 3290 02ed 0A       		.uleb128 0xa
 3291 02ee 00       		.byte	0
 3292 02ef 00       		.byte	0
 3293 02f0 00       		.byte	0
 3294              		.section	.debug_loc,"",%progbits
 3295              	.Ldebug_loc0:
 3296              	.LLST0:
 3297 0000 00000000 		.4byte	.LVL0
 3298 0004 0E000000 		.4byte	.LVL1
 3299 0008 0100     		.2byte	0x1
 3300 000a 50       		.byte	0x50
 3301 000b 0E000000 		.4byte	.LVL1
 3302 000f 22000000 		.4byte	.LVL3
 3303 0013 0300     		.2byte	0x3
 3304 0015 71       		.byte	0x71
 3305 0016 68       		.sleb128 -24
 3306 0017 9F       		.byte	0x9f
 3307 0018 22000000 		.4byte	.LVL3
 3308 001c 30000000 		.4byte	.LFE119
 3309 0020 0600     		.2byte	0x6
 3310 0022 73       		.byte	0x73
 3311 0023 0C       		.sleb128 12
 3312 0024 06       		.byte	0x6
 3313 0025 48       		.byte	0x48
 3314 0026 1C       		.byte	0x1c
 3315 0027 9F       		.byte	0x9f
 3316 0028 00000000 		.4byte	0
 3317 002c 00000000 		.4byte	0
 3318              	.LLST1:
 3319 0030 00000000 		.4byte	.LFB120
 3320 0034 02000000 		.4byte	.LCFI0
 3321 0038 0200     		.2byte	0x2
 3322 003a 7D       		.byte	0x7d
 3323 003b 00       		.sleb128 0
 3324 003c 02000000 		.4byte	.LCFI0
 3325 0040 48000000 		.4byte	.LFE120
 3326 0044 0200     		.2byte	0x2
 3327 0046 7D       		.byte	0x7d
 3328 0047 08       		.sleb128 8
 3329 0048 00000000 		.4byte	0
 3330 004c 00000000 		.4byte	0
 3331              	.LLST2:
 3332 0050 00000000 		.4byte	.LVL4
 3333 0054 3A000000 		.4byte	.LVL5
 3334 0058 0100     		.2byte	0x1
 3335 005a 50       		.byte	0x50
 3336 005b 00000000 		.4byte	0
 3337 005f 00000000 		.4byte	0
 3338              	.LLST3:
 3339 0063 00000000 		.4byte	.LFB124
 3340 0067 02000000 		.4byte	.LCFI1
ARM GAS  /tmp/ccg5DWGg.s 			page 60


 3341 006b 0200     		.2byte	0x2
 3342 006d 7D       		.byte	0x7d
 3343 006e 00       		.sleb128 0
 3344 006f 02000000 		.4byte	.LCFI1
 3345 0073 78000000 		.4byte	.LFE124
 3346 0077 0200     		.2byte	0x2
 3347 0079 7D       		.byte	0x7d
 3348 007a 18       		.sleb128 24
 3349 007b 00000000 		.4byte	0
 3350 007f 00000000 		.4byte	0
 3351              	.LLST4:
 3352 0083 00000000 		.4byte	.LVL6
 3353 0087 1A000000 		.4byte	.LVL9
 3354 008b 0100     		.2byte	0x1
 3355 008d 50       		.byte	0x50
 3356 008e 22000000 		.4byte	.LVL10
 3357 0092 78000000 		.4byte	.LFE124
 3358 0096 0100     		.2byte	0x1
 3359 0098 56       		.byte	0x56
 3360 0099 00000000 		.4byte	0
 3361 009d 00000000 		.4byte	0
 3362              	.LLST5:
 3363 00a1 04000000 		.4byte	.LVL7
 3364 00a5 22000000 		.4byte	.LVL10
 3365 00a9 0200     		.2byte	0x2
 3366 00ab 70       		.byte	0x70
 3367 00ac 08       		.sleb128 8
 3368 00ad 22000000 		.4byte	.LVL10
 3369 00b1 51000000 		.4byte	.LVL17-1
 3370 00b5 0200     		.2byte	0x2
 3371 00b7 76       		.byte	0x76
 3372 00b8 08       		.sleb128 8
 3373 00b9 51000000 		.4byte	.LVL17-1
 3374 00bd 78000000 		.4byte	.LFE124
 3375 00c1 0100     		.2byte	0x1
 3376 00c3 55       		.byte	0x55
 3377 00c4 00000000 		.4byte	0
 3378 00c8 00000000 		.4byte	0
 3379              	.LLST6:
 3380 00cc 26000000 		.4byte	.LVL11
 3381 00d0 52000000 		.4byte	.LVL17
 3382 00d4 0100     		.2byte	0x1
 3383 00d6 54       		.byte	0x54
 3384 00d7 00000000 		.4byte	0
 3385 00db 00000000 		.4byte	0
 3386              	.LLST7:
 3387 00df 26000000 		.4byte	.LVL11
 3388 00e3 2E000000 		.4byte	.LVL12
 3389 00e7 0200     		.2byte	0x2
 3390 00e9 30       		.byte	0x30
 3391 00ea 9F       		.byte	0x9f
 3392 00eb 2E000000 		.4byte	.LVL12
 3393 00ef 51000000 		.4byte	.LVL17-1
 3394 00f3 0100     		.2byte	0x1
 3395 00f5 51       		.byte	0x51
 3396 00f6 00000000 		.4byte	0
 3397 00fa 00000000 		.4byte	0
ARM GAS  /tmp/ccg5DWGg.s 			page 61


 3398              	.LLST8:
 3399 00fe 00000000 		.4byte	.LFB123
 3400 0102 06000000 		.4byte	.LCFI2
 3401 0106 0200     		.2byte	0x2
 3402 0108 7D       		.byte	0x7d
 3403 0109 00       		.sleb128 0
 3404 010a 06000000 		.4byte	.LCFI2
 3405 010e 5C000000 		.4byte	.LFE123
 3406 0112 0200     		.2byte	0x2
 3407 0114 7D       		.byte	0x7d
 3408 0115 10       		.sleb128 16
 3409 0116 00000000 		.4byte	0
 3410 011a 00000000 		.4byte	0
 3411              	.LLST9:
 3412 011e 00000000 		.4byte	.LVL18
 3413 0122 0A000000 		.4byte	.LVL19
 3414 0126 0100     		.2byte	0x1
 3415 0128 50       		.byte	0x50
 3416 0129 0A000000 		.4byte	.LVL19
 3417 012d 5C000000 		.4byte	.LFE123
 3418 0131 0100     		.2byte	0x1
 3419 0133 54       		.byte	0x54
 3420 0134 00000000 		.4byte	0
 3421 0138 00000000 		.4byte	0
 3422              	.LLST10:
 3423 013c 00000000 		.4byte	.LVL18
 3424 0140 0A000000 		.4byte	.LVL19
 3425 0144 0100     		.2byte	0x1
 3426 0146 51       		.byte	0x51
 3427 0147 56000000 		.4byte	.LVL20
 3428 014b 59000000 		.4byte	.LVL21-1
 3429 014f 0100     		.2byte	0x1
 3430 0151 51       		.byte	0x51
 3431 0152 00000000 		.4byte	0
 3432 0156 00000000 		.4byte	0
 3433              	.LLST11:
 3434 015a 00000000 		.4byte	.LFB122
 3435 015e 06000000 		.4byte	.LCFI3
 3436 0162 0200     		.2byte	0x2
 3437 0164 7D       		.byte	0x7d
 3438 0165 00       		.sleb128 0
 3439 0166 06000000 		.4byte	.LCFI3
 3440 016a 64000000 		.4byte	.LFE122
 3441 016e 0200     		.2byte	0x2
 3442 0170 7D       		.byte	0x7d
 3443 0171 08       		.sleb128 8
 3444 0172 00000000 		.4byte	0
 3445 0176 00000000 		.4byte	0
 3446              	.LLST12:
 3447 017a 00000000 		.4byte	.LVL22
 3448 017e 0A000000 		.4byte	.LVL23
 3449 0182 0100     		.2byte	0x1
 3450 0184 50       		.byte	0x50
 3451 0185 0A000000 		.4byte	.LVL23
 3452 0189 64000000 		.4byte	.LFE122
 3453 018d 0100     		.2byte	0x1
 3454 018f 54       		.byte	0x54
ARM GAS  /tmp/ccg5DWGg.s 			page 62


 3455 0190 00000000 		.4byte	0
 3456 0194 00000000 		.4byte	0
 3457              	.LLST13:
 3458 0198 00000000 		.4byte	.LVL22
 3459 019c 0A000000 		.4byte	.LVL23
 3460 01a0 0100     		.2byte	0x1
 3461 01a2 51       		.byte	0x51
 3462 01a3 50000000 		.4byte	.LVL26
 3463 01a7 53000000 		.4byte	.LVL27-1
 3464 01ab 0100     		.2byte	0x1
 3465 01ad 51       		.byte	0x51
 3466 01ae 00000000 		.4byte	0
 3467 01b2 00000000 		.4byte	0
 3468              	.LLST14:
 3469 01b6 1E000000 		.4byte	.LVL24
 3470 01ba 4E000000 		.4byte	.LVL25
 3471 01be 0100     		.2byte	0x1
 3472 01c0 54       		.byte	0x54
 3473 01c1 56000000 		.4byte	.LVL28
 3474 01c5 64000000 		.4byte	.LFE122
 3475 01c9 0100     		.2byte	0x1
 3476 01cb 54       		.byte	0x54
 3477 01cc 00000000 		.4byte	0
 3478 01d0 00000000 		.4byte	0
 3479              	.LLST15:
 3480 01d4 00000000 		.4byte	.LFB125
 3481 01d8 02000000 		.4byte	.LCFI4
 3482 01dc 0200     		.2byte	0x2
 3483 01de 7D       		.byte	0x7d
 3484 01df 00       		.sleb128 0
 3485 01e0 02000000 		.4byte	.LCFI4
 3486 01e4 16000000 		.4byte	.LFE125
 3487 01e8 0200     		.2byte	0x2
 3488 01ea 7D       		.byte	0x7d
 3489 01eb 08       		.sleb128 8
 3490 01ec 00000000 		.4byte	0
 3491 01f0 00000000 		.4byte	0
 3492              	.LLST16:
 3493 01f4 00000000 		.4byte	.LFB126
 3494 01f8 02000000 		.4byte	.LCFI5
 3495 01fc 0200     		.2byte	0x2
 3496 01fe 7D       		.byte	0x7d
 3497 01ff 00       		.sleb128 0
 3498 0200 02000000 		.4byte	.LCFI5
 3499 0204 16000000 		.4byte	.LFE126
 3500 0208 0200     		.2byte	0x2
 3501 020a 7D       		.byte	0x7d
 3502 020b 08       		.sleb128 8
 3503 020c 00000000 		.4byte	0
 3504 0210 00000000 		.4byte	0
 3505              	.LLST17:
 3506 0214 00000000 		.4byte	.LFB127
 3507 0218 02000000 		.4byte	.LCFI6
 3508 021c 0200     		.2byte	0x2
 3509 021e 7D       		.byte	0x7d
 3510 021f 00       		.sleb128 0
 3511 0220 02000000 		.4byte	.LCFI6
ARM GAS  /tmp/ccg5DWGg.s 			page 63


 3512 0224 50000000 		.4byte	.LFE127
 3513 0228 0200     		.2byte	0x2
 3514 022a 7D       		.byte	0x7d
 3515 022b 10       		.sleb128 16
 3516 022c 00000000 		.4byte	0
 3517 0230 00000000 		.4byte	0
 3518              	.LLST18:
 3519 0234 00000000 		.4byte	.LFB128
 3520 0238 02000000 		.4byte	.LCFI7
 3521 023c 0200     		.2byte	0x2
 3522 023e 7D       		.byte	0x7d
 3523 023f 00       		.sleb128 0
 3524 0240 02000000 		.4byte	.LCFI7
 3525 0244 72010000 		.4byte	.LFE128
 3526 0248 0200     		.2byte	0x2
 3527 024a 7D       		.byte	0x7d
 3528 024b 10       		.sleb128 16
 3529 024c 00000000 		.4byte	0
 3530 0250 00000000 		.4byte	0
 3531              	.LLST19:
 3532 0254 00000000 		.4byte	.LVL29
 3533 0258 0E000000 		.4byte	.LVL30
 3534 025c 0100     		.2byte	0x1
 3535 025e 50       		.byte	0x50
 3536 025f 0E000000 		.4byte	.LVL30
 3537 0263 72010000 		.4byte	.LFE128
 3538 0267 0100     		.2byte	0x1
 3539 0269 54       		.byte	0x54
 3540 026a 00000000 		.4byte	0
 3541 026e 00000000 		.4byte	0
 3542              	.LLST20:
 3543 0272 14000000 		.4byte	.LVL31
 3544 0276 9A000000 		.4byte	.LVL34
 3545 027a 0100     		.2byte	0x1
 3546 027c 54       		.byte	0x54
 3547 027d 00000000 		.4byte	0
 3548 0281 00000000 		.4byte	0
 3549              	.LLST21:
 3550 0285 7C000000 		.4byte	.LVL32
 3551 0289 88000000 		.4byte	.LVL33
 3552 028d 0400     		.2byte	0x4
 3553 028f 0A       		.byte	0xa
 3554 0290 0C21     		.2byte	0x210c
 3555 0292 9F       		.byte	0x9f
 3556 0293 00000000 		.4byte	0
 3557 0297 00000000 		.4byte	0
 3558              	.LLST22:
 3559 029b 14000000 		.4byte	.LVL31
 3560 029f 9A000000 		.4byte	.LVL34
 3561 02a3 0100     		.2byte	0x1
 3562 02a5 55       		.byte	0x55
 3563 02a6 00000000 		.4byte	0
 3564 02aa 00000000 		.4byte	0
 3565              	.LLST23:
 3566 02ae 00000000 		.4byte	.LFB129
 3567 02b2 06000000 		.4byte	.LCFI8
 3568 02b6 0200     		.2byte	0x2
ARM GAS  /tmp/ccg5DWGg.s 			page 64


 3569 02b8 7D       		.byte	0x7d
 3570 02b9 00       		.sleb128 0
 3571 02ba 06000000 		.4byte	.LCFI8
 3572 02be 68000000 		.4byte	.LFE129
 3573 02c2 0200     		.2byte	0x2
 3574 02c4 7D       		.byte	0x7d
 3575 02c5 08       		.sleb128 8
 3576 02c6 00000000 		.4byte	0
 3577 02ca 00000000 		.4byte	0
 3578              	.LLST24:
 3579 02ce 00000000 		.4byte	.LVL35
 3580 02d2 0A000000 		.4byte	.LVL36
 3581 02d6 0100     		.2byte	0x1
 3582 02d8 50       		.byte	0x50
 3583 02d9 0A000000 		.4byte	.LVL36
 3584 02dd 68000000 		.4byte	.LFE129
 3585 02e1 0100     		.2byte	0x1
 3586 02e3 54       		.byte	0x54
 3587 02e4 00000000 		.4byte	0
 3588 02e8 00000000 		.4byte	0
 3589              	.LLST25:
 3590 02ec 00000000 		.4byte	.LVL37
 3591 02f0 04000000 		.4byte	.LVL38
 3592 02f4 0100     		.2byte	0x1
 3593 02f6 50       		.byte	0x50
 3594 02f7 00000000 		.4byte	0
 3595 02fb 00000000 		.4byte	0
 3596              	.LLST26:
 3597 02ff 00000000 		.4byte	.LVL37
 3598 0303 16000000 		.4byte	.LVL39
 3599 0307 0100     		.2byte	0x1
 3600 0309 52       		.byte	0x52
 3601 030a 16000000 		.4byte	.LVL39
 3602 030e 1A000000 		.4byte	.LFE130
 3603 0312 0200     		.2byte	0x2
 3604 0314 73       		.byte	0x73
 3605 0315 0C       		.sleb128 12
 3606 0316 00000000 		.4byte	0
 3607 031a 00000000 		.4byte	0
 3608              	.LLST27:
 3609 031e 00000000 		.4byte	.LVL40
 3610 0322 06000000 		.4byte	.LVL41
 3611 0326 0100     		.2byte	0x1
 3612 0328 50       		.byte	0x50
 3613 0329 00000000 		.4byte	0
 3614 032d 00000000 		.4byte	0
 3615              	.LLST28:
 3616 0331 00000000 		.4byte	.LFB132
 3617 0335 02000000 		.4byte	.LCFI9
 3618 0339 0200     		.2byte	0x2
 3619 033b 7D       		.byte	0x7d
 3620 033c 00       		.sleb128 0
 3621 033d 02000000 		.4byte	.LCFI9
 3622 0341 38000000 		.4byte	.LFE132
 3623 0345 0200     		.2byte	0x2
 3624 0347 7D       		.byte	0x7d
 3625 0348 0C       		.sleb128 12
ARM GAS  /tmp/ccg5DWGg.s 			page 65


 3626 0349 00000000 		.4byte	0
 3627 034d 00000000 		.4byte	0
 3628              	.LLST29:
 3629 0351 00000000 		.4byte	.LVL42
 3630 0355 22000000 		.4byte	.LVL43
 3631 0359 0100     		.2byte	0x1
 3632 035b 50       		.byte	0x50
 3633 035c 00000000 		.4byte	0
 3634 0360 00000000 		.4byte	0
 3635              	.LLST30:
 3636 0364 00000000 		.4byte	.LVL42
 3637 0368 28000000 		.4byte	.LVL44
 3638 036c 0100     		.2byte	0x1
 3639 036e 52       		.byte	0x52
 3640 036f 28000000 		.4byte	.LVL44
 3641 0373 38000000 		.4byte	.LFE132
 3642 0377 0200     		.2byte	0x2
 3643 0379 73       		.byte	0x73
 3644 037a 0C       		.sleb128 12
 3645 037b 00000000 		.4byte	0
 3646 037f 00000000 		.4byte	0
 3647              	.LLST31:
 3648 0383 00000000 		.4byte	.LFB133
 3649 0387 06000000 		.4byte	.LCFI10
 3650 038b 0200     		.2byte	0x2
 3651 038d 7D       		.byte	0x7d
 3652 038e 00       		.sleb128 0
 3653 038f 06000000 		.4byte	.LCFI10
 3654 0393 28000000 		.4byte	.LFE133
 3655 0397 0200     		.2byte	0x2
 3656 0399 7D       		.byte	0x7d
 3657 039a 08       		.sleb128 8
 3658 039b 00000000 		.4byte	0
 3659 039f 00000000 		.4byte	0
 3660              	.LLST32:
 3661 03a3 00000000 		.4byte	.LVL45
 3662 03a7 23000000 		.4byte	.LVL47-1
 3663 03ab 0100     		.2byte	0x1
 3664 03ad 50       		.byte	0x50
 3665 03ae 00000000 		.4byte	0
 3666 03b2 00000000 		.4byte	0
 3667              		.section	.debug_aranges,"",%progbits
 3668 0000 84000000 		.4byte	0x84
 3669 0004 0200     		.2byte	0x2
 3670 0006 00000000 		.4byte	.Ldebug_info0
 3671 000a 04       		.byte	0x4
 3672 000b 00       		.byte	0
 3673 000c 0000     		.2byte	0
 3674 000e 0000     		.2byte	0
 3675 0010 00000000 		.4byte	.LFB119
 3676 0014 30000000 		.4byte	.LFE119-.LFB119
 3677 0018 00000000 		.4byte	.LFB120
 3678 001c 48000000 		.4byte	.LFE120-.LFB120
 3679 0020 00000000 		.4byte	.LFB124
 3680 0024 78000000 		.4byte	.LFE124-.LFB124
 3681 0028 00000000 		.4byte	.LFB123
 3682 002c 5C000000 		.4byte	.LFE123-.LFB123
ARM GAS  /tmp/ccg5DWGg.s 			page 66


 3683 0030 00000000 		.4byte	.LFB122
 3684 0034 64000000 		.4byte	.LFE122-.LFB122
 3685 0038 00000000 		.4byte	.LFB125
 3686 003c 16000000 		.4byte	.LFE125-.LFB125
 3687 0040 00000000 		.4byte	.LFB126
 3688 0044 16000000 		.4byte	.LFE126-.LFB126
 3689 0048 00000000 		.4byte	.LFB127
 3690 004c 50000000 		.4byte	.LFE127-.LFB127
 3691 0050 00000000 		.4byte	.LFB128
 3692 0054 72010000 		.4byte	.LFE128-.LFB128
 3693 0058 00000000 		.4byte	.LFB129
 3694 005c 68000000 		.4byte	.LFE129-.LFB129
 3695 0060 00000000 		.4byte	.LFB130
 3696 0064 1A000000 		.4byte	.LFE130-.LFB130
 3697 0068 00000000 		.4byte	.LFB131
 3698 006c 20000000 		.4byte	.LFE131-.LFB131
 3699 0070 00000000 		.4byte	.LFB132
 3700 0074 38000000 		.4byte	.LFE132-.LFB132
 3701 0078 00000000 		.4byte	.LFB133
 3702 007c 28000000 		.4byte	.LFE133-.LFB133
 3703 0080 00000000 		.4byte	0
 3704 0084 00000000 		.4byte	0
 3705              		.section	.debug_ranges,"",%progbits
 3706              	.Ldebug_ranges0:
 3707 0000 1E000000 		.4byte	.LBB12
 3708 0004 50000000 		.4byte	.LBE12
 3709 0008 56000000 		.4byte	.LBB16
 3710 000c 5C000000 		.4byte	.LBE16
 3711 0010 60000000 		.4byte	.LBB17
 3712 0014 64000000 		.4byte	.LBE17
 3713 0018 00000000 		.4byte	0
 3714 001c 00000000 		.4byte	0
 3715 0020 1E000000 		.4byte	.LBB13
 3716 0024 50000000 		.4byte	.LBE13
 3717 0028 56000000 		.4byte	.LBB14
 3718 002c 5C000000 		.4byte	.LBE14
 3719 0030 60000000 		.4byte	.LBB15
 3720 0034 64000000 		.4byte	.LBE15
 3721 0038 00000000 		.4byte	0
 3722 003c 00000000 		.4byte	0
 3723 0040 14000000 		.4byte	.LBB18
 3724 0044 80000000 		.4byte	.LBE18
 3725 0048 84000000 		.4byte	.LBB21
 3726 004c 9A000000 		.4byte	.LBE21
 3727 0050 00000000 		.4byte	0
 3728 0054 00000000 		.4byte	0
 3729 0058 14000000 		.4byte	.LBB19
 3730 005c 80000000 		.4byte	.LBE19
 3731 0060 84000000 		.4byte	.LBB20
 3732 0064 9A000000 		.4byte	.LBE20
 3733 0068 00000000 		.4byte	0
 3734 006c 00000000 		.4byte	0
 3735 0070 00000000 		.4byte	.LFB119
 3736 0074 30000000 		.4byte	.LFE119
 3737 0078 00000000 		.4byte	.LFB120
 3738 007c 48000000 		.4byte	.LFE120
 3739 0080 00000000 		.4byte	.LFB124
ARM GAS  /tmp/ccg5DWGg.s 			page 67


 3740 0084 78000000 		.4byte	.LFE124
 3741 0088 00000000 		.4byte	.LFB123
 3742 008c 5C000000 		.4byte	.LFE123
 3743 0090 00000000 		.4byte	.LFB122
 3744 0094 64000000 		.4byte	.LFE122
 3745 0098 00000000 		.4byte	.LFB125
 3746 009c 16000000 		.4byte	.LFE125
 3747 00a0 00000000 		.4byte	.LFB126
 3748 00a4 16000000 		.4byte	.LFE126
 3749 00a8 00000000 		.4byte	.LFB127
 3750 00ac 50000000 		.4byte	.LFE127
 3751 00b0 00000000 		.4byte	.LFB128
 3752 00b4 72010000 		.4byte	.LFE128
 3753 00b8 00000000 		.4byte	.LFB129
 3754 00bc 68000000 		.4byte	.LFE129
 3755 00c0 00000000 		.4byte	.LFB130
 3756 00c4 1A000000 		.4byte	.LFE130
 3757 00c8 00000000 		.4byte	.LFB131
 3758 00cc 20000000 		.4byte	.LFE131
 3759 00d0 00000000 		.4byte	.LFB132
 3760 00d4 38000000 		.4byte	.LFE132
 3761 00d8 00000000 		.4byte	.LFB133
 3762 00dc 28000000 		.4byte	.LFE133
 3763 00e0 00000000 		.4byte	0
 3764 00e4 00000000 		.4byte	0
 3765              		.section	.debug_line,"",%progbits
 3766              	.Ldebug_line0:
 3767 0000 B0040000 		.section	.debug_str,"MS",%progbits,1
 3767      0200E001 
 3767      00000201 
 3767      FB0E0D00 
 3767      01010101 
 3768              	.LASF109:
 3769 0000 75617274 		.ascii	"uart_lld_start_receive\000"
 3769      5F6C6C64 
 3769      5F737461 
 3769      72745F72 
 3769      65636569 
 3770              	.LASF41:
 3771 0017 41504231 		.ascii	"APB1LPENR\000"
 3771      4C50454E 
 3771      5200
 3772              	.LASF72:
 3773 0021 75617274 		.ascii	"uartflags_t\000"
 3773      666C6167 
 3773      735F7400 
 3774              	.LASF69:
 3775 002d 55415254 		.ascii	"UART_RX_ACTIVE\000"
 3775      5F52585F 
 3775      41435449 
 3775      564500
 3776              	.LASF104:
 3777 003c 75617274 		.ascii	"uart_lld_init\000"
 3777      5F6C6C64 
 3777      5F696E69 
 3777      7400
 3778              	.LASF2:
ARM GAS  /tmp/ccg5DWGg.s 			page 68


 3779 004a 73697A65 		.ascii	"size_t\000"
 3779      5F7400
 3780              	.LASF89:
 3781 0051 72786368 		.ascii	"rxchar_cb\000"
 3781      61725F63 
 3781      6200
 3782              	.LASF18:
 3783 005b 4D304152 		.ascii	"M0AR\000"
 3783      00
 3784              	.LASF53:
 3785 0060 73747265 		.ascii	"stream\000"
 3785      616D00
 3786              	.LASF80:
 3787 0067 646D6172 		.ascii	"dmarx\000"
 3787      7800
 3788              	.LASF98:
 3789 006d 75736172 		.ascii	"usart_stop\000"
 3789      745F7374 
 3789      6F7000
 3790              	.LASF38:
 3791 0078 41484232 		.ascii	"AHB2LPENR\000"
 3791      4C50454E 
 3791      5200
 3792              	.LASF14:
 3793 0082 626F6F6C 		.ascii	"bool_t\000"
 3793      5F7400
 3794              	.LASF84:
 3795 0089 75617274 		.ascii	"uartccb_t\000"
 3795      6363625F 
 3795      7400
 3796              	.LASF57:
 3797 0093 76656374 		.ascii	"vector\000"
 3797      6F7200
 3798              	.LASF113:
 3799 009a 5F73746D 		.ascii	"_stm32_dma_streams\000"
 3799      33325F64 
 3799      6D615F73 
 3799      74726561 
 3799      6D7300
 3800              	.LASF92:
 3801 00ad 55415254 		.ascii	"UARTConfig\000"
 3801      436F6E66 
 3801      696700
 3802              	.LASF112:
 3803 00b8 49544D5F 		.ascii	"ITM_RxBuffer\000"
 3803      52784275 
 3803      66666572 
 3803      00
 3804              	.LASF82:
 3805 00c5 72786275 		.ascii	"rxbuf\000"
 3805      6600
 3806              	.LASF37:
 3807 00cb 41484231 		.ascii	"AHB1LPENR\000"
 3807      4C50454E 
 3807      5200
 3808              	.LASF49:
 3809 00d5 44434B43 		.ascii	"DCKCFGR\000"
ARM GAS  /tmp/ccg5DWGg.s 			page 69


 3809      46475200 
 3810              	.LASF12:
 3811 00dd 6C6F6E67 		.ascii	"long long int\000"
 3811      206C6F6E 
 3811      6720696E 
 3811      7400
 3812              	.LASF1:
 3813 00eb 7369676E 		.ascii	"signed char\000"
 3813      65642063 
 3813      68617200 
 3814              	.LASF83:
 3815 00f7 75617274 		.ascii	"uartcb_t\000"
 3815      63625F74 
 3815      00
 3816              	.LASF23:
 3817 0100 41484231 		.ascii	"AHB1RSTR\000"
 3817      52535452 
 3817      00
 3818              	.LASF51:
 3819 0109 47545052 		.ascii	"GTPR\000"
 3819      00
 3820              	.LASF76:
 3821 010e 72787374 		.ascii	"rxstate\000"
 3821      61746500 
 3822              	.LASF59:
 3823 0116 73746D33 		.ascii	"stm32_dmaisr_t\000"
 3823      325F646D 
 3823      61697372 
 3823      5F7400
 3824              	.LASF74:
 3825 0125 73746174 		.ascii	"state\000"
 3825      6500
 3826              	.LASF75:
 3827 012b 74787374 		.ascii	"txstate\000"
 3827      61746500 
 3828              	.LASF9:
 3829 0133 6C6F6E67 		.ascii	"long int\000"
 3829      20696E74 
 3829      00
 3830              	.LASF28:
 3831 013c 41504232 		.ascii	"APB2RSTR\000"
 3831      52535452 
 3831      00
 3832              	.LASF6:
 3833 0145 75696E74 		.ascii	"uint16_t\000"
 3833      31365F74 
 3833      00
 3834              	.LASF13:
 3835 014e 6C6F6E67 		.ascii	"long long unsigned int\000"
 3835      206C6F6E 
 3835      6720756E 
 3835      7369676E 
 3835      65642069 
 3836              	.LASF118:
 3837 0165 2F686F6D 		.ascii	"/home/lithium/Downloads/ChibiOS_2.6.8_PodioVirtual/"
 3837      652F6C69 
 3837      74686975 
ARM GAS  /tmp/ccg5DWGg.s 			page 70


 3837      6D2F446F 
 3837      776E6C6F 
 3838 0198 506F6469 		.ascii	"PodioVirtual/src\000"
 3838      6F566972 
 3838      7475616C 
 3838      2F737263 
 3838      00
 3839              	.LASF71:
 3840 01a9 75617274 		.ascii	"uartrxstate_t\000"
 3840      72787374 
 3840      6174655F 
 3840      7400
 3841              	.LASF105:
 3842 01b7 75617274 		.ascii	"uart_lld_start\000"
 3842      5F6C6C64 
 3842      5F737461 
 3842      727400
 3843              	.LASF73:
 3844 01c6 55415254 		.ascii	"UARTDriver\000"
 3844      44726976 
 3844      657200
 3845              	.LASF56:
 3846 01d1 73656C66 		.ascii	"selfindex\000"
 3846      696E6465 
 3846      7800
 3847              	.LASF97:
 3848 01db 7365745F 		.ascii	"set_rx_idle_loop\000"
 3848      72785F69 
 3848      646C655F 
 3848      6C6F6F70 
 3848      00
 3849              	.LASF62:
 3850 01ec 55415254 		.ascii	"UART_READY\000"
 3850      5F524541 
 3850      445900
 3851              	.LASF65:
 3852 01f7 55415254 		.ascii	"UART_TX_ACTIVE\000"
 3852      5F54585F 
 3852      41435449 
 3852      564500
 3853              	.LASF78:
 3854 0206 75736172 		.ascii	"usart\000"
 3854      7400
 3855              	.LASF0:
 3856 020c 756E7369 		.ascii	"unsigned int\000"
 3856      676E6564 
 3856      20696E74 
 3856      00
 3857              	.LASF108:
 3858 0219 74786275 		.ascii	"txbuf\000"
 3858      6600
 3859              	.LASF110:
 3860 021f 75617274 		.ascii	"uart_lld_stop_send\000"
 3860      5F6C6C64 
 3860      5F73746F 
 3860      705F7365 
 3860      6E6400
ARM GAS  /tmp/ccg5DWGg.s 			page 71


 3861              	.LASF11:
 3862 0232 6C6F6E67 		.ascii	"long unsigned int\000"
 3862      20756E73 
 3862      69676E65 
 3862      6420696E 
 3862      7400
 3863              	.LASF85:
 3864 0244 75617274 		.ascii	"uartecb_t\000"
 3864      6563625F 
 3864      7400
 3865              	.LASF50:
 3866 024e 5243435F 		.ascii	"RCC_TypeDef\000"
 3866      54797065 
 3866      44656600 
 3867              	.LASF103:
 3868 025a 56656374 		.ascii	"Vector15C\000"
 3868      6F723135 
 3868      4300
 3869              	.LASF55:
 3870 0264 69736869 		.ascii	"ishift\000"
 3870      667400
 3871              	.LASF7:
 3872 026b 73686F72 		.ascii	"short unsigned int\000"
 3872      7420756E 
 3872      7369676E 
 3872      65642069 
 3872      6E7400
 3873              	.LASF60:
 3874 027e 55415254 		.ascii	"UART_UNINIT\000"
 3874      5F554E49 
 3874      4E495400 
 3875              	.LASF61:
 3876 028a 55415254 		.ascii	"UART_STOP\000"
 3876      5F53544F 
 3876      5000
 3877              	.LASF47:
 3878 0294 504C4C49 		.ascii	"PLLI2SCFGR\000"
 3878      32534346 
 3878      475200
 3879              	.LASF21:
 3880 029f 504C4C43 		.ascii	"PLLCFGR\000"
 3880      46475200 
 3881              	.LASF52:
 3882 02a7 55534152 		.ascii	"USART_TypeDef\000"
 3882      545F5479 
 3882      70654465 
 3882      6600
 3883              	.LASF42:
 3884 02b5 41504232 		.ascii	"APB2LPENR\000"
 3884      4C50454E 
 3884      5200
 3885              	.LASF102:
 3886 02bf 56656374 		.ascii	"VectorD8\000"
 3886      6F724438 
 3886      00
 3887              	.LASF99:
 3888 02c8 73657276 		.ascii	"serve_usart_irq\000"
ARM GAS  /tmp/ccg5DWGg.s 			page 72


 3888      655F7573 
 3888      6172745F 
 3888      69727100 
 3889              	.LASF93:
 3890 02d8 75617274 		.ascii	"uartp\000"
 3890      7000
 3891              	.LASF115:
 3892 02de 55415254 		.ascii	"UARTD6\000"
 3892      443600
 3893              	.LASF119:
 3894 02e5 7472616E 		.ascii	"translate_errors\000"
 3894      736C6174 
 3894      655F6572 
 3894      726F7273 
 3894      00
 3895              	.LASF70:
 3896 02f6 55415254 		.ascii	"UART_RX_COMPLETE\000"
 3896      5F52585F 
 3896      434F4D50 
 3896      4C455445 
 3896      00
 3897              	.LASF90:
 3898 0307 72786572 		.ascii	"rxerr_cb\000"
 3898      725F6362 
 3898      00
 3899              	.LASF32:
 3900 0310 41484233 		.ascii	"AHB3ENR\000"
 3900      454E5200 
 3901              	.LASF101:
 3902 0318 75617274 		.ascii	"uart_lld_serve_tx_end_irq\000"
 3902      5F6C6C64 
 3902      5F736572 
 3902      76655F74 
 3902      785F656E 
 3903              	.LASF88:
 3904 0332 7278656E 		.ascii	"rxend_cb\000"
 3904      645F6362 
 3904      00
 3905              	.LASF67:
 3906 033b 75617274 		.ascii	"uarttxstate_t\000"
 3906      74787374 
 3906      6174655F 
 3906      7400
 3907              	.LASF27:
 3908 0349 41504231 		.ascii	"APB1RSTR\000"
 3908      52535452 
 3908      00
 3909              	.LASF48:
 3910 0352 504C4C53 		.ascii	"PLLSAICFGR\000"
 3910      41494346 
 3910      475200
 3911              	.LASF81:
 3912 035d 646D6174 		.ascii	"dmatx\000"
 3912      7800
 3913              	.LASF26:
 3914 0363 52455345 		.ascii	"RESERVED0\000"
 3914      52564544 
ARM GAS  /tmp/ccg5DWGg.s 			page 73


 3914      3000
 3915              	.LASF29:
 3916 036d 52455345 		.ascii	"RESERVED1\000"
 3916      52564544 
 3916      3100
 3917              	.LASF33:
 3918 0377 52455345 		.ascii	"RESERVED2\000"
 3918      52564544 
 3918      3200
 3919              	.LASF36:
 3920 0381 52455345 		.ascii	"RESERVED3\000"
 3920      52564544 
 3920      3300
 3921              	.LASF40:
 3922 038b 52455345 		.ascii	"RESERVED4\000"
 3922      52564544 
 3922      3400
 3923              	.LASF43:
 3924 0395 52455345 		.ascii	"RESERVED5\000"
 3924      52564544 
 3924      3500
 3925              	.LASF45:
 3926 039f 52455345 		.ascii	"RESERVED6\000"
 3926      52564544 
 3926      3600
 3927              	.LASF58:
 3928 03a9 73746D33 		.ascii	"stm32_dma_stream_t\000"
 3928      325F646D 
 3928      615F7374 
 3928      7265616D 
 3928      5F7400
 3929              	.LASF87:
 3930 03bc 7478656E 		.ascii	"txend2_cb\000"
 3930      64325F63 
 3930      6200
 3931              	.LASF15:
 3932 03c6 5F426F6F 		.ascii	"_Bool\000"
 3932      6C00
 3933              	.LASF8:
 3934 03cc 696E7433 		.ascii	"int32_t\000"
 3934      325F7400 
 3935              	.LASF4:
 3936 03d4 756E7369 		.ascii	"unsigned char\000"
 3936      676E6564 
 3936      20636861 
 3936      7200
 3937              	.LASF5:
 3938 03e2 73686F72 		.ascii	"short int\000"
 3938      7420696E 
 3938      7400
 3939              	.LASF39:
 3940 03ec 41484233 		.ascii	"AHB3LPENR\000"
 3940      4C50454E 
 3940      5200
 3941              	.LASF63:
 3942 03f6 75617274 		.ascii	"uartstate_t\000"
 3942      73746174 
ARM GAS  /tmp/ccg5DWGg.s 			page 74


 3942      655F7400 
 3943              	.LASF35:
 3944 0402 41504232 		.ascii	"APB2ENR\000"
 3944      454E5200 
 3945              	.LASF25:
 3946 040a 41484233 		.ascii	"AHB3RSTR\000"
 3946      52535452 
 3946      00
 3947              	.LASF66:
 3948 0413 55415254 		.ascii	"UART_TX_COMPLETE\000"
 3948      5F54585F 
 3948      434F4D50 
 3948      4C455445 
 3948      00
 3949              	.LASF54:
 3950 0424 69666372 		.ascii	"ifcr\000"
 3950      00
 3951              	.LASF10:
 3952 0429 75696E74 		.ascii	"uint32_t\000"
 3952      33325F74 
 3952      00
 3953              	.LASF116:
 3954 0432 474E5520 		.ascii	"GNU C 4.6.1\000"
 3954      4320342E 
 3954      362E3100 
 3955              	.LASF34:
 3956 043e 41504231 		.ascii	"APB1ENR\000"
 3956      454E5200 
 3957              	.LASF16:
 3958 0446 63686172 		.ascii	"char\000"
 3958      00
 3959              	.LASF100:
 3960 044b 6D6F6465 		.ascii	"mode\000"
 3960      00
 3961              	.LASF77:
 3962 0450 636F6E66 		.ascii	"config\000"
 3962      696700
 3963              	.LASF68:
 3964 0457 55415254 		.ascii	"UART_RX_IDLE\000"
 3964      5F52585F 
 3964      49444C45 
 3964      00
 3965              	.LASF24:
 3966 0464 41484232 		.ascii	"AHB2RSTR\000"
 3966      52535452 
 3966      00
 3967              	.LASF86:
 3968 046d 7478656E 		.ascii	"txend1_cb\000"
 3968      64315F63 
 3968      6200
 3969              	.LASF64:
 3970 0477 55415254 		.ascii	"UART_TX_IDLE\000"
 3970      5F54585F 
 3970      49444C45 
 3970      00
 3971              	.LASF17:
 3972 0484 4E445452 		.ascii	"NDTR\000"
ARM GAS  /tmp/ccg5DWGg.s 			page 75


 3972      00
 3973              	.LASF20:
 3974 0489 444D415F 		.ascii	"DMA_Stream_TypeDef\000"
 3974      53747265 
 3974      616D5F54 
 3974      79706544 
 3974      656600
 3975              	.LASF31:
 3976 049c 41484232 		.ascii	"AHB2ENR\000"
 3976      454E5200 
 3977              	.LASF95:
 3978 04a4 75617274 		.ascii	"uart_lld_serve_rx_end_irq\000"
 3978      5F6C6C64 
 3978      5F736572 
 3978      76655F72 
 3978      785F656E 
 3979              	.LASF19:
 3980 04be 4D314152 		.ascii	"M1AR\000"
 3980      00
 3981              	.LASF46:
 3982 04c3 53534347 		.ascii	"SSCGR\000"
 3982      5200
 3983              	.LASF44:
 3984 04c9 42444352 		.ascii	"BDCR\000"
 3984      00
 3985              	.LASF111:
 3986 04ce 75617274 		.ascii	"uart_lld_stop_receive\000"
 3986      5F6C6C64 
 3986      5F73746F 
 3986      705F7265 
 3986      63656976 
 3987              	.LASF3:
 3988 04e4 75696E74 		.ascii	"uint8_t\000"
 3988      385F7400 
 3989              	.LASF96:
 3990 04ec 75736172 		.ascii	"usart_start\000"
 3990      745F7374 
 3990      61727400 
 3991              	.LASF94:
 3992 04f8 666C6167 		.ascii	"flags\000"
 3992      7300
 3993              	.LASF79:
 3994 04fe 646D616D 		.ascii	"dmamode\000"
 3994      6F646500 
 3995              	.LASF91:
 3996 0506 73706565 		.ascii	"speed\000"
 3996      6400
 3997              	.LASF30:
 3998 050c 41484231 		.ascii	"AHB1ENR\000"
 3998      454E5200 
 3999              	.LASF117:
 4000 0514 2E2E2F2E 		.ascii	"../../os/hal/platforms/STM32/USARTv1/uart_lld.c\000"
 4000      2E2F6F73 
 4000      2F68616C 
 4000      2F706C61 
 4000      74666F72 
 4001              	.LASF22:
ARM GAS  /tmp/ccg5DWGg.s 			page 76


 4002 0544 43464752 		.ascii	"CFGR\000"
 4002      00
 4003              	.LASF107:
 4004 0549 75617274 		.ascii	"uart_lld_start_send\000"
 4004      5F6C6C64 
 4004      5F737461 
 4004      72745F73 
 4004      656E6400 
 4005              	.LASF106:
 4006 055d 75617274 		.ascii	"uart_lld_stop\000"
 4006      5F6C6C64 
 4006      5F73746F 
 4006      7000
 4007              	.LASF114:
 4008 056b 55415254 		.ascii	"UARTD2\000"
 4008      443200
 4009              		.ident	"GCC: (Sourcery CodeBench Lite 2011.09-69) 4.6.1"
ARM GAS  /tmp/ccg5DWGg.s 			page 77


DEFINED SYMBOLS
                            *ABS*:00000000 uart_lld.c
     /tmp/ccg5DWGg.s:19     .text.set_rx_idle_loop:00000000 $t
     /tmp/ccg5DWGg.s:24     .text.set_rx_idle_loop:00000000 set_rx_idle_loop
     /tmp/ccg5DWGg.s:71     .text.usart_stop:00000000 $t
     /tmp/ccg5DWGg.s:76     .text.usart_stop:00000000 usart_stop
     /tmp/ccg5DWGg.s:144    .text.serve_usart_irq:00000000 $t
     /tmp/ccg5DWGg.s:149    .text.serve_usart_irq:00000000 serve_usart_irq
     /tmp/ccg5DWGg.s:267    .text.uart_lld_serve_tx_end_irq:00000000 $t
     /tmp/ccg5DWGg.s:272    .text.uart_lld_serve_tx_end_irq:00000000 uart_lld_serve_tx_end_irq
     /tmp/ccg5DWGg.s:356    .text.uart_lld_serve_rx_end_irq:00000000 $t
     /tmp/ccg5DWGg.s:361    .text.uart_lld_serve_rx_end_irq:00000000 uart_lld_serve_rx_end_irq
     /tmp/ccg5DWGg.s:467    .text.VectorD8:00000000 $t
     /tmp/ccg5DWGg.s:473    .text.VectorD8:00000000 VectorD8
     /tmp/ccg5DWGg.s:1100   .bss.UARTD2:00000000 .LANCHOR0
     /tmp/ccg5DWGg.s:496    .text.Vector15C:00000000 $t
     /tmp/ccg5DWGg.s:502    .text.Vector15C:00000000 Vector15C
     /tmp/ccg5DWGg.s:1107   .bss.UARTD6:00000000 .LANCHOR1
     /tmp/ccg5DWGg.s:525    .text.uart_lld_init:00000000 $t
     /tmp/ccg5DWGg.s:531    .text.uart_lld_init:00000000 uart_lld_init
     /tmp/ccg5DWGg.s:595    .text.uart_lld_init:0000004c $d
     /tmp/ccg5DWGg.s:600    .text.uart_lld_start:00000000 $t
     /tmp/ccg5DWGg.s:606    .text.uart_lld_start:00000000 uart_lld_start
     /tmp/ccg5DWGg.s:832    .text.uart_lld_stop:00000000 $t
     /tmp/ccg5DWGg.s:838    .text.uart_lld_stop:00000000 uart_lld_stop
     /tmp/ccg5DWGg.s:907    .text.uart_lld_start_send:00000000 $t
     /tmp/ccg5DWGg.s:913    .text.uart_lld_start_send:00000000 uart_lld_start_send
     /tmp/ccg5DWGg.s:947    .text.uart_lld_stop_send:00000000 $t
     /tmp/ccg5DWGg.s:953    .text.uart_lld_stop_send:00000000 uart_lld_stop_send
     /tmp/ccg5DWGg.s:987    .text.uart_lld_start_receive:00000000 $t
     /tmp/ccg5DWGg.s:993    .text.uart_lld_start_receive:00000000 uart_lld_start_receive
     /tmp/ccg5DWGg.s:1047   .text.uart_lld_stop_receive:00000000 $t
     /tmp/ccg5DWGg.s:1053   .text.uart_lld_stop_receive:00000000 uart_lld_stop_receive
     /tmp/ccg5DWGg.s:1110   .bss.UARTD6:00000000 UARTD6
     /tmp/ccg5DWGg.s:1103   .bss.UARTD2:00000000 UARTD2
     /tmp/ccg5DWGg.s:1099   .bss.UARTD2:00000000 $d
     /tmp/ccg5DWGg.s:1106   .bss.UARTD6:00000000 $d
                     .debug_frame:00000010 $d

UNDEFINED SYMBOLS
port_halt
_port_irq_epilogue
uartObjectInit
_stm32_dma_streams
dmaStreamAllocate
nvicEnableVector
dmaStreamRelease
nvicDisableVector
