ARM GAS  /tmp/ccg5DWGg.s 			page 1


   1              		.syntax unified
   2              		.cpu cortex-m4
   3              		.fpu softvfp
   4              		.eabi_attribute 20, 1
   5              		.eabi_attribute 21, 1
   6              		.eabi_attribute 23, 3
   7              		.eabi_attribute 24, 1
   8              		.eabi_attribute 25, 1
   9              		.eabi_attribute 26, 1
  10              		.eabi_attribute 30, 2
  11              		.eabi_attribute 34, 1
  12              		.eabi_attribute 18, 4
  13              		.thumb
  14              		.file	"uart_lld.c"
  15              		.text
  16              	.Ltext0:
  17              		.cfi_sections	.debug_frame
  18              		.section	.text.set_rx_idle_loop,"ax",%progbits
  19              		.align	2
  20              		.p2align 4,,15
  21              		.thumb
  22              		.thumb_func
  23              		.type	set_rx_idle_loop, %function
  24              	set_rx_idle_loop:
  25              	.LFB119:
  26              		.file 1 "../../os/hal/platforms/STM32/USARTv1/uart_lld.c"
  27              		.loc 1 160 0
  28              		.cfi_startproc
  29              		@ args = 0, pretend = 0, frame = 0
  30              		@ frame_needed = 0, uses_anonymous_args = 0
  31              		@ link register save eliminated.
  32              	.LVL0:
  33              		.loc 1 165 0
  34 0000 4268     		ldr	r2, [r0, #4]
  35              		.loc 1 169 0
  36 0002 0369     		ldr	r3, [r0, #16]
  37              		.loc 1 165 0
  38 0004 D268     		ldr	r2, [r2, #12]
  39              		.loc 1 169 0
  40 0006 1B68     		ldr	r3, [r3, #0]
  41 0008 00F11801 		add	r1, r0, #24
  42              		.loc 1 171 0
  43 000c C068     		ldr	r0, [r0, #12]
  44              	.LVL1:
  45              		.loc 1 169 0
  46 000e D960     		str	r1, [r3, #12]
  47              		.loc 1 166 0
  48 0010 002A     		cmp	r2, #0
  49 0012 14BF     		ite	ne
  50 0014 4FF4887C 		movne	ip, #272
  51 0018 4FF4807C 		moveq	ip, #256
  52              	.LVL2:
  53              		.loc 1 171 0
  54 001c 4CEA0002 		orr	r2, ip, r0
  55              		.loc 1 170 0
  56 0020 0121     		movs	r1, #1
  57              	.LVL3:
ARM GAS  /tmp/ccg5DWGg.s 			page 2


  58 0022 5960     		str	r1, [r3, #4]
  59              		.loc 1 171 0
  60 0024 1A60     		str	r2, [r3, #0]
  61              		.loc 1 172 0
  62 0026 1868     		ldr	r0, [r3, #0]
  63 0028 40EA0102 		orr	r2, r0, r1
  64 002c 1A60     		str	r2, [r3, #0]
  65              		.loc 1 173 0
  66 002e 7047     		bx	lr
  67              		.cfi_endproc
  68              	.LFE119:
  69              		.size	set_rx_idle_loop, .-set_rx_idle_loop
  70              		.section	.text.usart_stop,"ax",%progbits
  71              		.align	2
  72              		.p2align 4,,15
  73              		.thumb
  74              		.thumb_func
  75              		.type	usart_stop, %function
  76              	usart_stop:
  77              	.LFB120:
  78              		.loc 1 181 0
  79              		.cfi_startproc
  80              		@ args = 0, pretend = 0, frame = 0
  81              		@ frame_needed = 0, uses_anonymous_args = 0
  82              		@ link register save eliminated.
  83              	.LVL4:
  84 0000 30B4     		push	{r4, r5}
  85              	.LCFI0:
  86              		.cfi_def_cfa_offset 8
  87              		.cfi_offset 5, -4
  88              		.cfi_offset 4, -8
  89              		.loc 1 184 0
  90 0002 0469     		ldr	r4, [r0, #16]
  91 0004 2268     		ldr	r2, [r4, #0]
  92 0006 1168     		ldr	r1, [r2, #0]
  93 0008 21F01F03 		bic	r3, r1, #31
  94 000c 1360     		str	r3, [r2, #0]
  95              	.L5:
  96              		.loc 1 184 0 is_stmt 0 discriminator 1
  97 000e 1568     		ldr	r5, [r2, #0]
  98 0010 EB07     		lsls	r3, r5, #31
  99 0012 FCD4     		bmi	.L5
 100              		.loc 1 184 0 discriminator 2
 101 0014 257A     		ldrb	r5, [r4, #8]	@ zero_extendqisi2
 102              		.loc 1 185 0 is_stmt 1 discriminator 2
 103 0016 4169     		ldr	r1, [r0, #20]
 104              		.loc 1 184 0 discriminator 2
 105 0018 6368     		ldr	r3, [r4, #4]
 106              		.loc 1 185 0 discriminator 2
 107 001a 0A68     		ldr	r2, [r1, #0]
 108              		.loc 1 184 0 discriminator 2
 109 001c 3D24     		movs	r4, #61
 110 001e AC40     		lsls	r4, r4, r5
 111 0020 1C60     		str	r4, [r3, #0]
 112              		.loc 1 185 0 discriminator 2
 113 0022 1368     		ldr	r3, [r2, #0]
 114 0024 23F01F04 		bic	r4, r3, #31
ARM GAS  /tmp/ccg5DWGg.s 			page 3


 115 0028 1460     		str	r4, [r2, #0]
 116              	.L6:
 117              		.loc 1 185 0 is_stmt 0 discriminator 1
 118 002a 1368     		ldr	r3, [r2, #0]
 119 002c 13F00103 		ands	r3, r3, #1
 120 0030 FBD1     		bne	.L6
 121              		.loc 1 185 0 discriminator 2
 122 0032 0C7A     		ldrb	r4, [r1, #8]	@ zero_extendqisi2
 123              		.loc 1 188 0 is_stmt 1 discriminator 2
 124 0034 8268     		ldr	r2, [r0, #8]
 125              		.loc 1 185 0 discriminator 2
 126 0036 4968     		ldr	r1, [r1, #4]
 127 0038 3D20     		movs	r0, #61
 128              	.LVL5:
 129 003a A040     		lsls	r0, r0, r4
 130 003c 0860     		str	r0, [r1, #0]
 131              		.loc 1 188 0 discriminator 2
 132 003e 9381     		strh	r3, [r2, #12]	@ movhi
 133              		.loc 1 189 0 discriminator 2
 134 0040 1382     		strh	r3, [r2, #16]	@ movhi
 135              		.loc 1 190 0 discriminator 2
 136 0042 9382     		strh	r3, [r2, #20]	@ movhi
 137              		.loc 1 191 0 discriminator 2
 138 0044 30BC     		pop	{r4, r5}
 139 0046 7047     		bx	lr
 140              		.cfi_endproc
 141              	.LFE120:
 142              		.size	usart_stop, .-usart_stop
 143 0048 AFF30080 		.section	.text.serve_usart_irq,"ax",%progbits
 143      AFF30080 
 144              		.align	2
 145              		.p2align 4,,15
 146              		.thumb
 147              		.thumb_func
 148              		.type	serve_usart_irq, %function
 149              	serve_usart_irq:
 150              	.LFB124:
 151              		.loc 1 317 0
 152              		.cfi_startproc
 153              		@ args = 0, pretend = 0, frame = 0
 154              		@ frame_needed = 0, uses_anonymous_args = 0
 155              	.LVL6:
 156 0000 F8B5     		push	{r3, r4, r5, r6, r7, lr}
 157              	.LCFI1:
 158              		.cfi_def_cfa_offset 24
 159              		.cfi_offset 14, -4
 160              		.cfi_offset 7, -8
 161              		.cfi_offset 6, -12
 162              		.cfi_offset 5, -16
 163              		.cfi_offset 4, -20
 164              		.cfi_offset 3, -24
 165              		.loc 1 319 0
 166 0002 8568     		ldr	r5, [r0, #8]
 167              	.LVL7:
 168              		.loc 1 320 0
 169 0004 AF89     		ldrh	r7, [r5, #12]
 170              		.loc 1 322 0
ARM GAS  /tmp/ccg5DWGg.s 			page 4


 171 0006 2C88     		ldrh	r4, [r5, #0]
 172              		.loc 1 323 0
 173 0008 AA88     		ldrh	r2, [r5, #4]
 174              		.loc 1 325 0
 175 000a 40F20F11 		movw	r1, #271
 176              		.loc 1 322 0
 177 000e A4B2     		uxth	r4, r4
 178              		.loc 1 325 0
 179 0010 04EA0103 		and	r3, r4, r1
 180              		.loc 1 317 0
 181 0014 0646     		mov	r6, r0
 182              		.loc 1 320 0
 183 0016 BFB2     		uxth	r7, r7
 184              	.LVL8:
 185              		.loc 1 325 0
 186 0018 DBB1     		cbz	r3, .L11
 187              	.LVL9:
 188              		.loc 1 328 0
 189 001a 4268     		ldr	r2, [r0, #4]
 190 001c 1369     		ldr	r3, [r2, #16]
 191              		.loc 1 327 0
 192 001e 4FF6FF60 		movw	r0, 65279	@ movhi
 193              	.LVL10:
 194 0022 2880     		strh	r0, [r5, #0]	@ movhi
 195              		.loc 1 328 0
 196 0024 ABB1     		cbz	r3, .L11
 197              	.LVL11:
 198              	.LBB8:
 199              	.LBB9:
 200              		.loc 1 142 0
 201 0026 14F00801 		ands	r1, r4, #8
 202              		.loc 1 143 0
 203 002a 18BF     		it	ne
 204 002c 1021     		movne	r1, #16
 205              	.LVL12:
 206              		.loc 1 144 0
 207 002e E207     		lsls	r2, r4, #31
 208              		.loc 1 145 0
 209 0030 48BF     		it	mi
 210 0032 41F00401 		orrmi	r1, r1, #4
 211              	.LVL13:
 212              		.loc 1 146 0
 213 0036 A007     		lsls	r0, r4, #30
 214              		.loc 1 147 0
 215 0038 48BF     		it	mi
 216 003a 41F00801 		orrmi	r1, r1, #8
 217              	.LVL14:
 218              		.loc 1 148 0
 219 003e 6207     		lsls	r2, r4, #29
 220              		.loc 1 149 0
 221 0040 48BF     		it	mi
 222 0042 41F02001 		orrmi	r1, r1, #32
 223              	.LVL15:
 224              		.loc 1 150 0
 225 0046 E005     		lsls	r0, r4, #23
 226              		.loc 1 151 0
 227 0048 48BF     		it	mi
ARM GAS  /tmp/ccg5DWGg.s 			page 5


 228 004a 41F04001 		orrmi	r1, r1, #64
 229              	.LVL16:
 230              	.LBE9:
 231              	.LBE8:
 232              		.loc 1 329 0
 233 004e 3046     		mov	r0, r6
 234 0050 9847     		blx	r3
 235              	.LVL17:
 236              	.L11:
 237              		.loc 1 332 0
 238 0052 6106     		lsls	r1, r4, #25
 239 0054 0FD5     		bpl	.L10
 240              		.loc 1 332 0 is_stmt 0 discriminator 1
 241 0056 7A06     		lsls	r2, r7, #25
 242 0058 0DD5     		bpl	.L10
 243              		.loc 1 338 0 is_stmt 1
 244 005a 7368     		ldr	r3, [r6, #4]
 245              		.loc 1 335 0
 246 005c 4FF6BF71 		movw	r1, #65471
 247              		.loc 1 338 0
 248 0060 5B68     		ldr	r3, [r3, #4]
 249              		.loc 1 335 0
 250 0062 07EA0100 		and	r0, r7, r1
 251              		.loc 1 334 0
 252 0066 4FF6BF7C 		movw	ip, 65471	@ movhi
 253 006a A5F800C0 		strh	ip, [r5, #0]	@ movhi
 254              		.loc 1 335 0
 255 006e A881     		strh	r0, [r5, #12]	@ movhi
 256              		.loc 1 338 0
 257 0070 0BB1     		cbz	r3, .L10
 258              		.loc 1 339 0
 259 0072 3046     		mov	r0, r6
 260 0074 9847     		blx	r3
 261              	.L10:
 262 0076 F8BD     		pop	{r3, r4, r5, r6, r7, pc}
 263              		.cfi_endproc
 264              	.LFE124:
 265              		.size	serve_usart_irq, .-serve_usart_irq
 266 0078 AFF30080 		.section	.text.uart_lld_serve_tx_end_irq,"ax",%progbits
 266      AFF30080 
 267              		.align	2
 268              		.p2align 4,,15
 269              		.thumb
 270              		.thumb_func
 271              		.type	uart_lld_serve_tx_end_irq, %function
 272              	uart_lld_serve_tx_end_irq:
 273              	.LFB123:
 274              		.loc 1 282 0
 275              		.cfi_startproc
 276              		@ args = 0, pretend = 0, frame = 0
 277              		@ frame_needed = 0, uses_anonymous_args = 0
 278              	.LVL18:
 279              		.loc 1 286 0
 280 0000 11F00C0F 		tst	r1, #12
 281              		.loc 1 282 0
 282 0004 38B5     		push	{r3, r4, r5, lr}
 283              	.LCFI2:
ARM GAS  /tmp/ccg5DWGg.s 			page 6


 284              		.cfi_def_cfa_offset 16
 285              		.cfi_offset 14, -4
 286              		.cfi_offset 5, -8
 287              		.cfi_offset 4, -12
 288              		.cfi_offset 3, -16
 289              		.loc 1 282 0
 290 0006 0446     		mov	r4, r0
 291              		.loc 1 286 0
 292 0008 25D1     		bne	.L26
 293              	.LVL19:
 294              	.L20:
 295              		.loc 1 293 0
 296 000a 6169     		ldr	r1, [r4, #20]
 297 000c 0A68     		ldr	r2, [r1, #0]
 298 000e 1068     		ldr	r0, [r2, #0]
 299 0010 20F01F03 		bic	r3, r0, #31
 300 0014 1360     		str	r3, [r2, #0]
 301              	.L21:
 302              		.loc 1 293 0 is_stmt 0 discriminator 1
 303 0016 1568     		ldr	r5, [r2, #0]
 304 0018 E807     		lsls	r0, r5, #31
 305 001a FCD4     		bmi	.L21
 306              		.loc 1 298 0 is_stmt 1 discriminator 2
 307 001c 6368     		ldr	r3, [r4, #4]
 308              		.loc 1 293 0 discriminator 2
 309 001e 087A     		ldrb	r0, [r1, #8]	@ zero_extendqisi2
 310              		.loc 1 298 0 discriminator 2
 311 0020 5A68     		ldr	r2, [r3, #4]
 312              		.loc 1 293 0 discriminator 2
 313 0022 4968     		ldr	r1, [r1, #4]
 314 0024 3D25     		movs	r5, #61
 315 0026 15FA00F0 		lsls	r0, r5, r0
 316 002a 0860     		str	r0, [r1, #0]
 317              		.loc 1 298 0 discriminator 2
 318 002c 32B1     		cbz	r2, .L22
 319              		.loc 1 299 0
 320 002e A268     		ldr	r2, [r4, #8]
 321 0030 9089     		ldrh	r0, [r2, #12]
 322 0032 81B2     		uxth	r1, r0
 323 0034 41F0400C 		orr	ip, r1, #64
 324 0038 A2F80CC0 		strh	ip, [r2, #12]	@ movhi
 325              	.L22:
 326              		.loc 1 303 0
 327 003c 1B68     		ldr	r3, [r3, #0]
 328              		.loc 1 302 0
 329 003e 0222     		movs	r2, #2
 330 0040 6270     		strb	r2, [r4, #1]
 331              		.loc 1 303 0
 332 0042 2BB1     		cbz	r3, .L23
 333              		.loc 1 304 0
 334 0044 2046     		mov	r0, r4
 335 0046 9847     		blx	r3
 336              		.loc 1 308 0
 337 0048 6378     		ldrb	r3, [r4, #1]	@ zero_extendqisi2
 338 004a 022B     		cmp	r3, #2
 339 004c 00D0     		beq	.L23
 340 004e 38BD     		pop	{r3, r4, r5, pc}
ARM GAS  /tmp/ccg5DWGg.s 			page 7


 341              	.L23:
 342              		.loc 1 309 0
 343 0050 0021     		movs	r1, #0
 344 0052 6170     		strb	r1, [r4, #1]
 345 0054 38BD     		pop	{r3, r4, r5, pc}
 346              	.LVL20:
 347              	.L26:
 348              		.loc 1 287 0
 349 0056 FFF7FEFF 		bl	port_halt
 350              	.LVL21:
 351 005a D6E7     		b	.L20
 352              		.cfi_endproc
 353              	.LFE123:
 354              		.size	uart_lld_serve_tx_end_irq, .-uart_lld_serve_tx_end_irq
 355 005c AFF30080 		.section	.text.uart_lld_serve_rx_end_irq,"ax",%progbits
 356              		.align	2
 357              		.p2align 4,,15
 358              		.thumb
 359              		.thumb_func
 360              		.type	uart_lld_serve_rx_end_irq, %function
 361              	uart_lld_serve_rx_end_irq:
 362              	.LFB122:
 363              		.loc 1 242 0
 364              		.cfi_startproc
 365              		@ args = 0, pretend = 0, frame = 0
 366              		@ frame_needed = 0, uses_anonymous_args = 0
 367              	.LVL22:
 368              		.loc 1 246 0
 369 0000 11F00C0F 		tst	r1, #12
 370              		.loc 1 242 0
 371 0004 10B5     		push	{r4, lr}
 372              	.LCFI3:
 373              		.cfi_def_cfa_offset 8
 374              		.cfi_offset 14, -4
 375              		.cfi_offset 4, -8
 376              		.loc 1 242 0
 377 0006 0446     		mov	r4, r0
 378              		.loc 1 246 0
 379 0008 22D1     		bne	.L34
 380              	.LVL23:
 381              	.L28:
 382              		.loc 1 253 0
 383 000a A378     		ldrb	r3, [r4, #2]	@ zero_extendqisi2
 384 000c 3BB9     		cbnz	r3, .L29
 385              		.loc 1 256 0
 386 000e 6068     		ldr	r0, [r4, #4]
 387 0010 C368     		ldr	r3, [r0, #12]
 388 0012 E3B1     		cbz	r3, .L27
 389              		.loc 1 257 0
 390 0014 218B     		ldrh	r1, [r4, #24]
 391 0016 2046     		mov	r0, r4
 392 0018 89B2     		uxth	r1, r1
 393 001a 9847     		blx	r3
 394 001c 10BD     		pop	{r4, pc}
 395              	.L29:
 396              	.LVL24:
 397              	.LBB12:
ARM GAS  /tmp/ccg5DWGg.s 			page 8


 398              	.LBB13:
 399              		.loc 1 262 0
 400 001e 2169     		ldr	r1, [r4, #16]
 401 0020 0A68     		ldr	r2, [r1, #0]
 402 0022 1068     		ldr	r0, [r2, #0]
 403 0024 20F01F03 		bic	r3, r0, #31
 404 0028 1360     		str	r3, [r2, #0]
 405              	.L31:
 406 002a 1368     		ldr	r3, [r2, #0]
 407 002c DB07     		lsls	r3, r3, #31
 408 002e FCD4     		bmi	.L31
 409 0030 087A     		ldrb	r0, [r1, #8]	@ zero_extendqisi2
 410              		.loc 1 264 0
 411 0032 6368     		ldr	r3, [r4, #4]
 412              		.loc 1 262 0
 413 0034 4A68     		ldr	r2, [r1, #4]
 414              		.loc 1 264 0
 415 0036 9B68     		ldr	r3, [r3, #8]
 416              		.loc 1 262 0
 417 0038 3D21     		movs	r1, #61
 418 003a 8140     		lsls	r1, r1, r0
 419 003c 1160     		str	r1, [r2, #0]
 420              		.loc 1 263 0
 421 003e 0222     		movs	r2, #2
 422 0040 A270     		strb	r2, [r4, #2]
 423              		.loc 1 264 0
 424 0042 43B1     		cbz	r3, .L32
 425              		.loc 1 265 0
 426 0044 2046     		mov	r0, r4
 427 0046 9847     		blx	r3
 428              		.loc 1 269 0
 429 0048 A278     		ldrb	r2, [r4, #2]	@ zero_extendqisi2
 430 004a 022A     		cmp	r2, #2
 431 004c 03D0     		beq	.L32
 432              	.LVL25:
 433              	.L27:
 434 004e 10BD     		pop	{r4, pc}
 435              	.LVL26:
 436              	.L34:
 437              	.LBE13:
 438              	.LBE12:
 439              		.loc 1 247 0
 440 0050 FFF7FEFF 		bl	port_halt
 441              	.LVL27:
 442 0054 D9E7     		b	.L28
 443              	.LVL28:
 444              	.L32:
 445              	.LBB16:
 446              	.LBB14:
 447              		.loc 1 270 0
 448 0056 0021     		movs	r1, #0
 449              		.loc 1 271 0
 450 0058 2046     		mov	r0, r4
 451              		.loc 1 270 0
 452 005a A170     		strb	r1, [r4, #2]
 453              	.LBE14:
 454              	.LBE16:
ARM GAS  /tmp/ccg5DWGg.s 			page 9


 455              		.loc 1 274 0
 456 005c BDE81040 		pop	{r4, lr}
 457              	.LBB17:
 458              	.LBB15:
 459              		.loc 1 271 0
 460 0060 FFF7FEBF 		b	set_rx_idle_loop
 461              	.LBE15:
 462              	.LBE17:
 463              		.cfi_endproc
 464              	.LFE122:
 465              		.size	uart_lld_serve_rx_end_irq, .-uart_lld_serve_rx_end_irq
 466 0064 AFF30080 		.section	.text.VectorD8,"ax",%progbits
 466      AFF30080 
 466      AFF30080 
 467              		.align	2
 468              		.p2align 4,,15
 469              		.global	VectorD8
 470              		.thumb
 471              		.thumb_func
 472              		.type	VectorD8, %function
 473              	VectorD8:
 474              	.LFB125:
 475              		.loc 1 375 0
 476              		.cfi_startproc
 477              		@ args = 0, pretend = 0, frame = 0
 478              		@ frame_needed = 0, uses_anonymous_args = 0
 479 0000 08B5     		push	{r3, lr}
 480              	.LCFI4:
 481              		.cfi_def_cfa_offset 8
 482              		.cfi_offset 14, -4
 483              		.cfi_offset 3, -8
 484              		.loc 1 379 0
 485 0002 40F20000 		movw	r0, #:lower16:.LANCHOR0
 486 0006 C0F20000 		movt	r0, #:upper16:.LANCHOR0
 487 000a FFF7FEFF 		bl	serve_usart_irq
 488              		.loc 1 382 0
 489 000e BDE80840 		pop	{r3, lr}
 490              		.loc 1 381 0
 491 0012 FFF7FEBF 		b	_port_irq_epilogue
 492              		.cfi_endproc
 493              	.LFE125:
 494              		.size	VectorD8, .-VectorD8
 495 0016 00BFAFF3 		.section	.text.Vector15C,"ax",%progbits
 495      0080AFF3 
 495      0080
 496              		.align	2
 497              		.p2align 4,,15
 498              		.global	Vector15C
 499              		.thumb
 500              		.thumb_func
 501              		.type	Vector15C, %function
 502              	Vector15C:
 503              	.LFB126:
 504              		.loc 1 451 0
 505              		.cfi_startproc
 506              		@ args = 0, pretend = 0, frame = 0
 507              		@ frame_needed = 0, uses_anonymous_args = 0
ARM GAS  /tmp/ccg5DWGg.s 			page 10


 508 0000 08B5     		push	{r3, lr}
 509              	.LCFI5:
 510              		.cfi_def_cfa_offset 8
 511              		.cfi_offset 14, -4
 512              		.cfi_offset 3, -8
 513              		.loc 1 455 0
 514 0002 40F20000 		movw	r0, #:lower16:.LANCHOR1
 515 0006 C0F20000 		movt	r0, #:upper16:.LANCHOR1
 516 000a FFF7FEFF 		bl	serve_usart_irq
 517              		.loc 1 458 0
 518 000e BDE80840 		pop	{r3, lr}
 519              		.loc 1 457 0
 520 0012 FFF7FEBF 		b	_port_irq_epilogue
 521              		.cfi_endproc
 522              	.LFE126:
 523              		.size	Vector15C, .-Vector15C
 524 0016 00BFAFF3 		.section	.text.uart_lld_init,"ax",%progbits
 524      0080AFF3 
 524      0080
 525              		.align	2
 526              		.p2align 4,,15
 527              		.global	uart_lld_init
 528              		.thumb
 529              		.thumb_func
 530              		.type	uart_lld_init, %function
 531              	uart_lld_init:
 532              	.LFB127:
 533              		.loc 1 470 0
 534              		.cfi_startproc
 535              		@ args = 0, pretend = 0, frame = 0
 536              		@ frame_needed = 0, uses_anonymous_args = 0
 537 0000 70B5     		push	{r4, r5, r6, lr}
 538              	.LCFI6:
 539              		.cfi_def_cfa_offset 16
 540              		.cfi_offset 14, -4
 541              		.cfi_offset 6, -8
 542              		.cfi_offset 5, -12
 543              		.cfi_offset 4, -16
 544              		.loc 1 481 0
 545 0002 40F20004 		movw	r4, #:lower16:.LANCHOR0
 546 0006 C0F20004 		movt	r4, #:upper16:.LANCHOR0
 547              		.loc 1 484 0
 548 000a 104E     		ldr	r6, .L38
 549              		.loc 1 481 0
 550 000c 2046     		mov	r0, r4
 551              		.loc 1 513 0
 552 000e 40F20005 		movw	r5, #:lower16:.LANCHOR1
 553              		.loc 1 481 0
 554 0012 FFF7FEFF 		bl	uartObjectInit
 555              		.loc 1 513 0
 556 0016 C0F20005 		movt	r5, #:upper16:.LANCHOR1
 557              		.loc 1 482 0
 558 001a 4FF48843 		mov	r3, #17408
 559 001e C4F20003 		movt	r3, 16384
 560              		.loc 1 485 0
 561 0022 06F10C01 		add	r1, r6, #12
 562              		.loc 1 483 0
ARM GAS  /tmp/ccg5DWGg.s 			page 11


 563 0026 0622     		movs	r2, #6
 564              		.loc 1 513 0
 565 0028 2846     		mov	r0, r5
 566              		.loc 1 482 0
 567 002a A360     		str	r3, [r4, #8]
 568              		.loc 1 483 0
 569 002c E260     		str	r2, [r4, #12]
 570              		.loc 1 484 0
 571 002e 2661     		str	r6, [r4, #16]
 572              		.loc 1 485 0
 573 0030 6161     		str	r1, [r4, #20]
 574              		.loc 1 513 0
 575 0032 FFF7FEFF 		bl	uartObjectInit
 576              		.loc 1 514 0
 577 0036 4FF4A053 		mov	r3, #5120
 578              		.loc 1 515 0
 579 003a 06F13C02 		add	r2, r6, #60
 580              		.loc 1 514 0
 581 003e C4F20103 		movt	r3, 16385
 582              		.loc 1 516 0
 583 0042 7836     		adds	r6, r6, #120
 584              		.loc 1 514 0
 585 0044 AB60     		str	r3, [r5, #8]
 586              		.loc 1 515 0
 587 0046 2A61     		str	r2, [r5, #16]
 588              		.loc 1 516 0
 589 0048 6E61     		str	r6, [r5, #20]
 590              		.loc 1 518 0
 591 004a 70BD     		pop	{r4, r5, r6, pc}
 592              	.L39:
 593              		.align	2
 594              	.L38:
 595 004c 3C000000 		.word	_stm32_dma_streams+60
 596              		.cfi_endproc
 597              	.LFE127:
 598              		.size	uart_lld_init, .-uart_lld_init
 599              		.section	.text.uart_lld_start,"ax",%progbits
 600              		.align	2
 601              		.p2align 4,,15
 602              		.global	uart_lld_start
 603              		.thumb
 604              		.thumb_func
 605              		.type	uart_lld_start, %function
 606              	uart_lld_start:
 607              	.LFB128:
 608              		.loc 1 527 0
 609              		.cfi_startproc
 610              		@ args = 0, pretend = 0, frame = 0
 611              		@ frame_needed = 0, uses_anonymous_args = 0
 612              	.LVL29:
 613 0000 38B5     		push	{r3, r4, r5, lr}
 614              	.LCFI7:
 615              		.cfi_def_cfa_offset 16
 616              		.cfi_offset 14, -4
 617              		.cfi_offset 5, -8
 618              		.cfi_offset 4, -12
 619              		.cfi_offset 3, -16
ARM GAS  /tmp/ccg5DWGg.s 			page 12


 620              		.loc 1 529 0
 621 0002 0378     		ldrb	r3, [r0, #0]	@ zero_extendqisi2
 622 0004 012B     		cmp	r3, #1
 623              		.loc 1 527 0
 624 0006 0446     		mov	r4, r0
 625 0008 18BF     		it	ne
 626 000a 8568     		ldrne	r5, [r0, #8]
 627              		.loc 1 529 0
 628 000c 45D0     		beq	.L49
 629              	.LVL30:
 630              	.L41:
 631              		.loc 1 681 0
 632 000e 0022     		movs	r2, #0
 633 0010 A270     		strb	r2, [r4, #2]
 634              		.loc 1 682 0
 635 0012 6270     		strb	r2, [r4, #1]
 636              	.LVL31:
 637              	.LBB18:
 638              	.LBB19:
 639              		.loc 1 204 0
 640 0014 2046     		mov	r0, r4
 641 0016 FFF7FEFF 		bl	usart_stop
 642              		.loc 1 208 0
 643 001a A268     		ldr	r2, [r4, #8]
 644 001c 4FF48050 		mov	r0, #4096
 645 0020 C4F20100 		movt	r0, 16385
 646 0024 131A     		subs	r3, r2, r0
 647 0026 5942     		rsbs	r1, r3, #0
 648 0028 4FF4A05C 		mov	ip, #5120
 649 002c C4F2010C 		movt	ip, 16385
 650 0030 41EB0300 		adc	r0, r1, r3
 651 0034 6245     		cmp	r2, ip
 652 0036 14BF     		ite	ne
 653 0038 0346     		movne	r3, r0
 654 003a 40F00103 		orreq	r3, r0, #1
 655              		.loc 1 212 0
 656 003e 6268     		ldr	r2, [r4, #4]
 657              		.loc 1 208 0
 658 0040 13BB     		cbnz	r3, .L50
 659              		.loc 1 214 0
 660 0042 5169     		ldr	r1, [r2, #20]
 661 0044 4DF6806C 		movw	ip, #56960
 662 0048 C0F2802C 		movt	ip, 640
 663 004c BCFBF1F0 		udiv	r0, ip, r1
 664 0050 2881     		strh	r0, [r5, #8]	@ movhi
 665              	.L46:
 666              		.loc 1 230 0
 667 0052 B2F818C0 		ldrh	ip, [r2, #24]
 668              		.loc 1 223 0
 669 0056 518B     		ldrh	r1, [r2, #26]
 670              		.loc 1 224 0
 671 0058 B2F81CE0 		ldrh	lr, [r2, #28]
 672              		.loc 1 217 0
 673 005c 2888     		ldrh	r0, [r5, #0]
 674              		.loc 1 218 0
 675 005e A888     		ldrh	r0, [r5, #4]
 676              		.loc 1 230 0
ARM GAS  /tmp/ccg5DWGg.s 			page 13


 677 0060 4CF40450 		orr	r0, ip, #8448
 678              		.loc 1 224 0
 679 0064 4EF0C102 		orr	r2, lr, #193
 680              		.loc 1 223 0
 681 0068 41F0400C 		orr	ip, r1, #64
 682              		.loc 1 230 0
 683 006c 40F00C0E 		orr	lr, r0, #12
 684              		.loc 1 219 0
 685 0070 0023     		movs	r3, #0
 686              		.loc 1 233 0
 687 0072 2046     		mov	r0, r4
 688              		.loc 1 219 0
 689 0074 2B80     		strh	r3, [r5, #0]	@ movhi
 690              		.loc 1 223 0
 691 0076 A5F810C0 		strh	ip, [r5, #16]	@ movhi
 692              		.loc 1 224 0
 693 007a AA82     		strh	r2, [r5, #20]	@ movhi
 694              	.LVL32:
 695              		.loc 1 230 0
 696 007c A5F80CE0 		strh	lr, [r5, #12]	@ movhi
 697              	.LBE19:
 698              	.LBE18:
 699              		.loc 1 684 0
 700 0080 BDE83840 		pop	{r3, r4, r5, lr}
 701              	.LBB21:
 702              	.LBB20:
 703              		.loc 1 233 0
 704 0084 FFF7FEBF 		b	set_rx_idle_loop
 705              	.LVL33:
 706              	.L50:
 707              		.loc 1 212 0
 708 0088 5369     		ldr	r3, [r2, #20]
 709 008a 4FF43D4E 		mov	lr, #48384
 710 008e C0F2015E 		movt	lr, 1281
 711 0092 BEFBF3F1 		udiv	r1, lr, r3
 712 0096 2981     		strh	r1, [r5, #8]	@ movhi
 713 0098 DBE7     		b	.L46
 714              	.LVL34:
 715              	.L49:
 716              	.LBE20:
 717              	.LBE21:
 718              		.loc 1 552 0
 719 009a 40F20001 		movw	r1, #:lower16:.LANCHOR0
 720 009e C0F20001 		movt	r1, #:upper16:.LANCHOR0
 721 00a2 8842     		cmp	r0, r1
 722 00a4 1BD0     		beq	.L51
 723              		.loc 1 652 0
 724 00a6 40F20001 		movw	r1, #:lower16:.LANCHOR1
 725 00aa C0F20001 		movt	r1, #:upper16:.LANCHOR1
 726 00ae 8842     		cmp	r0, r1
 727 00b0 3AD0     		beq	.L52
 728              	.L43:
 729              		.loc 1 674 0
 730 00b2 6168     		ldr	r1, [r4, #4]
 731              		.loc 1 676 0
 732 00b4 2069     		ldr	r0, [r4, #16]
 733              		.loc 1 674 0
ARM GAS  /tmp/ccg5DWGg.s 			page 14


 734 00b6 0A8B     		ldrh	r2, [r1, #24]
 735              		.loc 1 677 0
 736 00b8 6369     		ldr	r3, [r4, #20]
 737              		.loc 1 676 0
 738 00ba 0168     		ldr	r1, [r0, #0]
 739              		.loc 1 677 0
 740 00bc 1868     		ldr	r0, [r3, #0]
 741              		.loc 1 674 0
 742 00be 02F4A055 		and	r5, r2, #5120
 743 00c2 B5F5805F 		cmp	r5, #4096
 744              		.loc 1 675 0
 745 00c6 02BF     		ittt	eq
 746 00c8 E568     		ldreq	r5, [r4, #12]
 747 00ca 45F42055 		orreq	r5, r5, #10240
 748 00ce E560     		streq	r5, [r4, #12]
 749              		.loc 1 676 0
 750 00d0 A568     		ldr	r5, [r4, #8]
 751 00d2 2A1D     		adds	r2, r5, #4
 752 00d4 8A60     		str	r2, [r1, #8]
 753              		.loc 1 678 0
 754 00d6 0021     		movs	r1, #0
 755              		.loc 1 677 0
 756 00d8 8260     		str	r2, [r0, #8]
 757              		.loc 1 678 0
 758 00da 2183     		strh	r1, [r4, #24]	@ movhi
 759 00dc 97E7     		b	.L41
 760              	.L51:
 761              	.LBB22:
 762              		.loc 1 554 0
 763 00de 40F20002 		movw	r2, #:lower16:uart_lld_serve_rx_end_irq
 764 00e2 0346     		mov	r3, r0
 765 00e4 0C21     		movs	r1, #12
 766 00e6 C0F20002 		movt	r2, #:upper16:uart_lld_serve_rx_end_irq
 767 00ea 0069     		ldr	r0, [r0, #16]
 768 00ec FFF7FEFF 		bl	dmaStreamAllocate
 769              		.loc 1 559 0
 770 00f0 40F20002 		movw	r2, #:lower16:uart_lld_serve_tx_end_irq
 771 00f4 C0F20002 		movt	r2, #:upper16:uart_lld_serve_tx_end_irq
 772 00f8 0C21     		movs	r1, #12
 773 00fa 2346     		mov	r3, r4
 774 00fc 6069     		ldr	r0, [r4, #20]
 775 00fe FFF7FEFF 		bl	dmaStreamAllocate
 776              		.loc 1 564 0
 777 0102 4FF4605C 		mov	ip, #14336
 778 0106 C4F2020C 		movt	ip, 16386
 779              		.loc 1 565 0
 780 010a 2620     		movs	r0, #38
 781              		.loc 1 564 0
 782 010c DCF84030 		ldr	r3, [ip, #64]
 783 0110 43F40035 		orr	r5, r3, #131072
 784 0114 CCF84050 		str	r5, [ip, #64]
 785              		.loc 1 565 0
 786 0118 C021     		movs	r1, #192
 787 011a FFF7FEFF 		bl	nvicEnableVector
 788              		.loc 1 567 0
 789 011e E268     		ldr	r2, [r4, #12]
 790 0120 42F00060 		orr	r0, r2, #134217728
ARM GAS  /tmp/ccg5DWGg.s 			page 15


 791 0124 E060     		str	r0, [r4, #12]
 792 0126 C4E7     		b	.L43
 793              	.L52:
 794              	.LBE22:
 795              	.LBB23:
 796              		.loc 1 654 0
 797 0128 40F20002 		movw	r2, #:lower16:uart_lld_serve_rx_end_irq
 798 012c 0346     		mov	r3, r0
 799 012e 0C21     		movs	r1, #12
 800 0130 C0F20002 		movt	r2, #:upper16:uart_lld_serve_rx_end_irq
 801 0134 0069     		ldr	r0, [r0, #16]
 802 0136 FFF7FEFF 		bl	dmaStreamAllocate
 803              		.loc 1 659 0
 804 013a 40F20002 		movw	r2, #:lower16:uart_lld_serve_tx_end_irq
 805 013e C0F20002 		movt	r2, #:upper16:uart_lld_serve_tx_end_irq
 806 0142 0C21     		movs	r1, #12
 807 0144 2346     		mov	r3, r4
 808 0146 6069     		ldr	r0, [r4, #20]
 809 0148 FFF7FEFF 		bl	dmaStreamAllocate
 810              		.loc 1 664 0
 811 014c 4FF4605C 		mov	ip, #14336
 812 0150 C4F2020C 		movt	ip, 16386
 813              		.loc 1 665 0
 814 0154 4720     		movs	r0, #71
 815              		.loc 1 664 0
 816 0156 DCF84430 		ldr	r3, [ip, #68]
 817 015a 43F02005 		orr	r5, r3, #32
 818 015e CCF84450 		str	r5, [ip, #68]
 819              		.loc 1 665 0
 820 0162 C021     		movs	r1, #192
 821 0164 FFF7FEFF 		bl	nvicEnableVector
 822              		.loc 1 667 0
 823 0168 E268     		ldr	r2, [r4, #12]
 824 016a 42F02060 		orr	r0, r2, #167772160
 825 016e E060     		str	r0, [r4, #12]
 826 0170 9FE7     		b	.L43
 827              	.LBE23:
 828              		.cfi_endproc
 829              	.LFE128:
 830              		.size	uart_lld_start, .-uart_lld_start
 831 0172 00BFAFF3 		.section	.text.uart_lld_stop,"ax",%progbits
 831      0080AFF3 
 831      0080AFF3 
 831      0080
 832              		.align	2
 833              		.p2align 4,,15
 834              		.global	uart_lld_stop
 835              		.thumb
 836              		.thumb_func
 837              		.type	uart_lld_stop, %function
 838              	uart_lld_stop:
 839              	.LFB129:
 840              		.loc 1 693 0
 841              		.cfi_startproc
 842              		@ args = 0, pretend = 0, frame = 0
 843              		@ frame_needed = 0, uses_anonymous_args = 0
 844              	.LVL35:
ARM GAS  /tmp/ccg5DWGg.s 			page 16


 845              		.loc 1 695 0
 846 0000 0378     		ldrb	r3, [r0, #0]	@ zero_extendqisi2
 847 0002 022B     		cmp	r3, #2
 848              		.loc 1 693 0
 849 0004 10B5     		push	{r4, lr}
 850              	.LCFI8:
 851              		.cfi_def_cfa_offset 8
 852              		.cfi_offset 14, -4
 853              		.cfi_offset 4, -8
 854              		.loc 1 693 0
 855 0006 0446     		mov	r4, r0
 856              		.loc 1 695 0
 857 0008 00D0     		beq	.L56
 858              	.LVL36:
 859              	.L53:
 860 000a 10BD     		pop	{r4, pc}
 861              	.L56:
 862              		.loc 1 696 0
 863 000c FFF7FEFF 		bl	usart_stop
 864              		.loc 1 697 0
 865 0010 2069     		ldr	r0, [r4, #16]
 866 0012 FFF7FEFF 		bl	dmaStreamRelease
 867              		.loc 1 698 0
 868 0016 6069     		ldr	r0, [r4, #20]
 869 0018 FFF7FEFF 		bl	dmaStreamRelease
 870              		.loc 1 709 0
 871 001c 40F20000 		movw	r0, #:lower16:.LANCHOR0
 872 0020 C0F20000 		movt	r0, #:upper16:.LANCHOR0
 873 0024 8442     		cmp	r4, r0
 874 0026 13D0     		beq	.L57
 875              		.loc 1 741 0
 876 0028 40F20000 		movw	r0, #:lower16:.LANCHOR1
 877 002c C0F20000 		movt	r0, #:upper16:.LANCHOR1
 878 0030 8442     		cmp	r4, r0
 879 0032 EAD1     		bne	.L53
 880              		.loc 1 742 0
 881 0034 4720     		movs	r0, #71
 882 0036 FFF7FEFF 		bl	nvicDisableVector
 883              		.loc 1 743 0
 884 003a 4FF4605C 		mov	ip, #14336
 885 003e C4F2020C 		movt	ip, 16386
 886 0042 DCF84410 		ldr	r1, [ip, #68]
 887 0046 21F02002 		bic	r2, r1, #32
 888 004a CCF84420 		str	r2, [ip, #68]
 889              		.loc 1 744 0
 890 004e DCE7     		b	.L53
 891              	.L57:
 892              		.loc 1 710 0
 893 0050 2620     		movs	r0, #38
 894 0052 FFF7FEFF 		bl	nvicDisableVector
 895              		.loc 1 711 0
 896 0056 4FF46051 		mov	r1, #14336
 897 005a C4F20201 		movt	r1, 16386
 898 005e 0B6C     		ldr	r3, [r1, #64]
 899 0060 23F40032 		bic	r2, r3, #131072
 900 0064 0A64     		str	r2, [r1, #64]
 901              		.loc 1 712 0
ARM GAS  /tmp/ccg5DWGg.s 			page 17


 902 0066 10BD     		pop	{r4, pc}
 903              		.cfi_endproc
 904              	.LFE129:
 905              		.size	uart_lld_stop, .-uart_lld_stop
 906 0068 AFF30080 		.section	.text.uart_lld_start_send,"ax",%progbits
 906      AFF30080 
 907              		.align	2
 908              		.p2align 4,,15
 909              		.global	uart_lld_start_send
 910              		.thumb
 911              		.thumb_func
 912              		.type	uart_lld_start_send, %function
 913              	uart_lld_start_send:
 914              	.LFB130:
 915              		.loc 1 761 0
 916              		.cfi_startproc
 917              		@ args = 0, pretend = 0, frame = 0
 918              		@ frame_needed = 0, uses_anonymous_args = 0
 919              		@ link register save eliminated.
 920              	.LVL37:
 921              		.loc 1 764 0
 922 0000 4369     		ldr	r3, [r0, #20]
 923              		.loc 1 766 0
 924 0002 C068     		ldr	r0, [r0, #12]
 925              	.LVL38:
 926              		.loc 1 764 0
 927 0004 1B68     		ldr	r3, [r3, #0]
 928              		.loc 1 766 0
 929 0006 40F48A60 		orr	r0, r0, #1104
 930              		.loc 1 764 0
 931 000a DA60     		str	r2, [r3, #12]
 932              		.loc 1 765 0
 933 000c 5960     		str	r1, [r3, #4]
 934              		.loc 1 766 0
 935 000e 1860     		str	r0, [r3, #0]
 936              		.loc 1 768 0
 937 0010 1868     		ldr	r0, [r3, #0]
 938 0012 40F00102 		orr	r2, r0, #1
 939              	.LVL39:
 940 0016 1A60     		str	r2, [r3, #0]
 941              		.loc 1 769 0
 942 0018 7047     		bx	lr
 943              		.cfi_endproc
 944              	.LFE130:
 945              		.size	uart_lld_start_send, .-uart_lld_start_send
 946 001a 00BFAFF3 		.section	.text.uart_lld_stop_send,"ax",%progbits
 946      0080
 947              		.align	2
 948              		.p2align 4,,15
 949              		.global	uart_lld_stop_send
 950              		.thumb
 951              		.thumb_func
 952              		.type	uart_lld_stop_send, %function
 953              	uart_lld_stop_send:
 954              	.LFB131:
 955              		.loc 1 782 0
 956              		.cfi_startproc
ARM GAS  /tmp/ccg5DWGg.s 			page 18


 957              		@ args = 0, pretend = 0, frame = 0
 958              		@ frame_needed = 0, uses_anonymous_args = 0
 959              		@ link register save eliminated.
 960              	.LVL40:
 961              		.loc 1 784 0
 962 0000 4169     		ldr	r1, [r0, #20]
 963 0002 0A68     		ldr	r2, [r1, #0]
 964 0004 1068     		ldr	r0, [r2, #0]
 965              	.LVL41:
 966 0006 20F01F03 		bic	r3, r0, #31
 967 000a 1360     		str	r3, [r2, #0]
 968              	.L60:
 969              		.loc 1 784 0 is_stmt 0 discriminator 1
 970 000c 1368     		ldr	r3, [r2, #0]
 971 000e DB07     		lsls	r3, r3, #31
 972 0010 FCD4     		bmi	.L60
 973              		.loc 1 784 0 discriminator 2
 974 0012 087A     		ldrb	r0, [r1, #8]	@ zero_extendqisi2
 975 0014 4B68     		ldr	r3, [r1, #4]
 976 0016 3D21     		movs	r1, #61
 977 0018 8140     		lsls	r1, r1, r0
 978 001a 1960     		str	r1, [r3, #0]
 979              		.loc 1 785 0 is_stmt 1 discriminator 2
 980 001c 5068     		ldr	r0, [r2, #4]
 981              		.loc 1 786 0 discriminator 2
 982 001e 7047     		bx	lr
 983              		.cfi_endproc
 984              	.LFE131:
 985              		.size	uart_lld_stop_send, .-uart_lld_stop_send
 986              		.section	.text.uart_lld_start_receive,"ax",%progbits
 987              		.align	2
 988              		.p2align 4,,15
 989              		.global	uart_lld_start_receive
 990              		.thumb
 991              		.thumb_func
 992              		.type	uart_lld_start_receive, %function
 993              	uart_lld_start_receive:
 994              	.LFB132:
 995              		.loc 1 799 0
 996              		.cfi_startproc
 997              		@ args = 0, pretend = 0, frame = 0
 998              		@ frame_needed = 0, uses_anonymous_args = 0
 999              		@ link register save eliminated.
 1000              	.LVL42:
 1001 0000 70B4     		push	{r4, r5, r6}
 1002              	.LCFI9:
 1003              		.cfi_def_cfa_offset 12
 1004              		.cfi_offset 6, -4
 1005              		.cfi_offset 5, -8
 1006              		.cfi_offset 4, -12
 1007              		.loc 1 802 0
 1008 0002 0469     		ldr	r4, [r0, #16]
 1009 0004 2368     		ldr	r3, [r4, #0]
 1010 0006 1E68     		ldr	r6, [r3, #0]
 1011 0008 26F01F05 		bic	r5, r6, #31
 1012 000c 1D60     		str	r5, [r3, #0]
 1013              	.L63:
ARM GAS  /tmp/ccg5DWGg.s 			page 19


 1014              		.loc 1 802 0 is_stmt 0 discriminator 1
 1015 000e 1D68     		ldr	r5, [r3, #0]
 1016 0010 ED07     		lsls	r5, r5, #31
 1017 0012 FCD4     		bmi	.L63
 1018              		.loc 1 802 0 discriminator 2
 1019 0014 257A     		ldrb	r5, [r4, #8]	@ zero_extendqisi2
 1020 0016 6468     		ldr	r4, [r4, #4]
 1021 0018 3D26     		movs	r6, #61
 1022 001a 16FA05F5 		lsls	r5, r6, r5
 1023 001e 2560     		str	r5, [r4, #0]
 1024              		.loc 1 807 0 is_stmt 1 discriminator 2
 1025 0020 C068     		ldr	r0, [r0, #12]
 1026              	.LVL43:
 1027              		.loc 1 805 0 discriminator 2
 1028 0022 DA60     		str	r2, [r3, #12]
 1029              		.loc 1 807 0 discriminator 2
 1030 0024 40F48262 		orr	r2, r0, #1040
 1031              	.LVL44:
 1032              		.loc 1 806 0 discriminator 2
 1033 0028 5960     		str	r1, [r3, #4]
 1034              		.loc 1 807 0 discriminator 2
 1035 002a 1A60     		str	r2, [r3, #0]
 1036              		.loc 1 809 0 discriminator 2
 1037 002c 1868     		ldr	r0, [r3, #0]
 1038 002e 40F00102 		orr	r2, r0, #1
 1039 0032 1A60     		str	r2, [r3, #0]
 1040              		.loc 1 810 0 discriminator 2
 1041 0034 70BC     		pop	{r4, r5, r6}
 1042 0036 7047     		bx	lr
 1043              		.cfi_endproc
 1044              	.LFE132:
 1045              		.size	uart_lld_start_receive, .-uart_lld_start_receive
 1046 0038 AFF30080 		.section	.text.uart_lld_stop_receive,"ax",%progbits
 1046      AFF30080 
 1047              		.align	2
 1048              		.p2align 4,,15
 1049              		.global	uart_lld_stop_receive
 1050              		.thumb
 1051              		.thumb_func
 1052              		.type	uart_lld_stop_receive, %function
 1053              	uart_lld_stop_receive:
 1054              	.LFB133:
 1055              		.loc 1 823 0
 1056              		.cfi_startproc
 1057              		@ args = 0, pretend = 0, frame = 0
 1058              		@ frame_needed = 0, uses_anonymous_args = 0
 1059              	.LVL45:
 1060              		.loc 1 826 0
 1061 0000 0169     		ldr	r1, [r0, #16]
 1062 0002 0A68     		ldr	r2, [r1, #0]
 1063              		.loc 1 823 0
 1064 0004 10B5     		push	{r4, lr}
 1065              	.LCFI10:
 1066              		.cfi_def_cfa_offset 8
 1067              		.cfi_offset 14, -4
 1068              		.cfi_offset 4, -8
 1069              		.loc 1 826 0
ARM GAS  /tmp/ccg5DWGg.s 			page 20


 1070 0006 1468     		ldr	r4, [r2, #0]
 1071 0008 24F01F03 		bic	r3, r4, #31
 1072 000c 1360     		str	r3, [r2, #0]
 1073              	.L66:
 1074              		.loc 1 826 0 is_stmt 0 discriminator 1
 1075 000e 1368     		ldr	r3, [r2, #0]
 1076 0010 DB07     		lsls	r3, r3, #31
 1077 0012 FCD4     		bmi	.L66
 1078              		.loc 1 826 0 discriminator 2
 1079 0014 0C7A     		ldrb	r4, [r1, #8]	@ zero_extendqisi2
 1080 0016 4B68     		ldr	r3, [r1, #4]
 1081 0018 3D21     		movs	r1, #61
 1082 001a A140     		lsls	r1, r1, r4
 1083 001c 1960     		str	r1, [r3, #0]
 1084              		.loc 1 827 0 is_stmt 1 discriminator 2
 1085 001e 5468     		ldr	r4, [r2, #4]
 1086              	.LVL46:
 1087              		.loc 1 828 0 discriminator 2
 1088 0020 FFF7FEFF 		bl	set_rx_idle_loop
 1089              	.LVL47:
 1090              		.loc 1 830 0 discriminator 2
 1091 0024 2046     		mov	r0, r4
 1092 0026 10BD     		pop	{r4, pc}
 1093              		.cfi_endproc
 1094              	.LFE133:
 1095              		.size	uart_lld_stop_receive, .-uart_lld_stop_receive
 1096              		.global	UARTD6
 1097              		.global	UARTD2
 1098 0028 AFF30080 		.section	.bss.UARTD2,"aw",%nobits
 1098      AFF30080 
 1099              		.align	2
 1100              		.set	.LANCHOR0,. + 0
 1101              		.type	UARTD2, %object
 1102              		.size	UARTD2, 28
 1103              	UARTD2:
 1104 0000 00000000 		.space	28
 1104      00000000 
 1104      00000000 
 1104      00000000 
 1104      00000000 
 1105              		.section	.bss.UARTD6,"aw",%nobits
 1106              		.align	2
 1107              		.set	.LANCHOR1,. + 0
 1108              		.type	UARTD6, %object
 1109              		.size	UARTD6, 28
 1110              	UARTD6:
 1111 0000 00000000 		.space	28
 1111      00000000 
 1111      00000000 
 1111      00000000 
 1111      00000000 
 1112              		.text
 1113              	.Letext0:
 1114              		.file 2 "/home/lithium/Documents/arm-2011q3/bin/../lib/gcc/arm-none-eabi/4.6.1/include/stddef.h"
 1115              		.file 3 "/home/lithium/Documents/arm-2011q3/bin/../lib/gcc/arm-none-eabi/4.6.1/../../../../arm-non
 1116              		.file 4 "../../os/ports/GCC/ARMCMx/chtypes.h"
 1117              		.file 5 "../../os/hal/platforms/STM32F4xx/stm32f4xx.h"
ARM GAS  /tmp/ccg5DWGg.s 			page 21


 1118              		.file 6 "../../os/hal/platforms/STM32F4xx/stm32_dma.h"
 1119              		.file 7 "../../os/hal/include/uart.h"
 1120              		.file 8 "../../os/hal/platforms/STM32/USARTv1/uart_lld.h"
 1121              		.file 9 "../../os/ports/common/ARMCMx/CMSIS/include/core_cm4.h"